   1              		.cpu cortex-m0
   2              		.arch armv6s-m
   3              		.fpu softvfp
   4              		.eabi_attribute 20, 1
   5              		.eabi_attribute 21, 1
   6              		.eabi_attribute 23, 3
   7              		.eabi_attribute 24, 1
   8              		.eabi_attribute 25, 1
   9              		.eabi_attribute 26, 1
  10              		.eabi_attribute 30, 4
  11              		.eabi_attribute 34, 0
  12              		.eabi_attribute 18, 4
  13              		.file	"stm32f0_hal_lowlevel.c"
  14              		.text
  15              	.Ltext0:
  16              		.cfi_sections	.debug_frame
  17              		.file 1 ".././hal//stm32f0/stm32f0_hal_lowlevel.c"
  18              		.section	.text.HAL_GetTick,"ax",%progbits
  19              		.align	1
  20              		.global	HAL_GetTick
  21              		.syntax unified
  22              		.code	16
  23              		.thumb_func
  25              	HAL_GetTick:
  26              	.LFB37:
   1:.././hal//stm32f0/stm32f0_hal_lowlevel.c **** /* This file combines several STM32F4 HAL Functions into one file. This was done
   2:.././hal//stm32f0/stm32f0_hal_lowlevel.c ****    for space reasons, to avoid having several MB of HAL functions that most people
   3:.././hal//stm32f0/stm32f0_hal_lowlevel.c ****    will not use. In addition this HAL is slightly less demanding (no interrupts),
   4:.././hal//stm32f0/stm32f0_hal_lowlevel.c ****    but less robust as doesn't implement the timeouts.
   5:.././hal//stm32f0/stm32f0_hal_lowlevel.c ****    
   6:.././hal//stm32f0/stm32f0_hal_lowlevel.c ****    The original HAL files are COPYRIGHT STMicroelectronics, as shown below:
   7:.././hal//stm32f0/stm32f0_hal_lowlevel.c **** */
   8:.././hal//stm32f0/stm32f0_hal_lowlevel.c **** 
   9:.././hal//stm32f0/stm32f0_hal_lowlevel.c **** /*
  10:.././hal//stm32f0/stm32f0_hal_lowlevel.c ****   * COPYRIGHT(c) 2017 STMicroelectronics
  11:.././hal//stm32f0/stm32f0_hal_lowlevel.c ****   *
  12:.././hal//stm32f0/stm32f0_hal_lowlevel.c ****   * Redistribution and use in source and binary forms, with or without modification,
  13:.././hal//stm32f0/stm32f0_hal_lowlevel.c ****   * are permitted provided that the following conditions are met:
  14:.././hal//stm32f0/stm32f0_hal_lowlevel.c ****   *   1. Redistributions of source code must retain the above copyright notice,
  15:.././hal//stm32f0/stm32f0_hal_lowlevel.c ****   *      this list of conditions and the following disclaimer.
  16:.././hal//stm32f0/stm32f0_hal_lowlevel.c ****   *   2. Redistributions in binary form must reproduce the above copyright notice,
  17:.././hal//stm32f0/stm32f0_hal_lowlevel.c ****   *      this list of conditions and the following disclaimer in the documentation
  18:.././hal//stm32f0/stm32f0_hal_lowlevel.c ****   *      and/or other materials provided with the distribution.
  19:.././hal//stm32f0/stm32f0_hal_lowlevel.c ****   *   3. Neither the name of STMicroelectronics nor the names of its contributors
  20:.././hal//stm32f0/stm32f0_hal_lowlevel.c ****   *      may be used to endorse or promote products derived from this software
  21:.././hal//stm32f0/stm32f0_hal_lowlevel.c ****   *      without specific prior written permission.
  22:.././hal//stm32f0/stm32f0_hal_lowlevel.c ****   *
  23:.././hal//stm32f0/stm32f0_hal_lowlevel.c ****   * THIS SOFTWARE IS PROVIDED BY THE COPYRIGHT HOLDERS AND CONTRIBUTORS "AS IS"
  24:.././hal//stm32f0/stm32f0_hal_lowlevel.c ****   * AND ANY EXPRESS OR IMPLIED WARRANTIES, INCLUDING, BUT NOT LIMITED TO, THE
  25:.././hal//stm32f0/stm32f0_hal_lowlevel.c ****   * IMPLIED WARRANTIES OF MERCHANTABILITY AND FITNESS FOR A PARTICULAR PURPOSE ARE
  26:.././hal//stm32f0/stm32f0_hal_lowlevel.c ****   * DISCLAIMED. IN NO EVENT SHALL THE COPYRIGHT HOLDER OR CONTRIBUTORS BE LIABLE
  27:.././hal//stm32f0/stm32f0_hal_lowlevel.c ****   * FOR ANY DIRECT, INDIRECT, INCIDENTAL, SPECIAL, EXEMPLARY, OR CONSEQUENTIAL
  28:.././hal//stm32f0/stm32f0_hal_lowlevel.c ****   * DAMAGES (INCLUDING, BUT NOT LIMITED TO, PROCUREMENT OF SUBSTITUTE GOODS OR
  29:.././hal//stm32f0/stm32f0_hal_lowlevel.c ****   * SERVICES; LOSS OF USE, DATA, OR PROFITS; OR BUSINESS INTERRUPTION) HOWEVER
  30:.././hal//stm32f0/stm32f0_hal_lowlevel.c ****   * CAUSED AND ON ANY THEORY OF LIABILITY, WHETHER IN CONTRACT, STRICT LIABILITY,
  31:.././hal//stm32f0/stm32f0_hal_lowlevel.c ****   * OR TORT (INCLUDING NEGLIGENCE OR OTHERWISE) ARISING IN ANY WAY OUT OF THE USE
  32:.././hal//stm32f0/stm32f0_hal_lowlevel.c ****   * OF THIS SOFTWARE, EVEN IF ADVISED OF THE POSSIBILITY OF SUCH DAMAGE.
  33:.././hal//stm32f0/stm32f0_hal_lowlevel.c ****   *
  34:.././hal//stm32f0/stm32f0_hal_lowlevel.c ****   ******************************************************************************
  35:.././hal//stm32f0/stm32f0_hal_lowlevel.c **** */ 
  36:.././hal//stm32f0/stm32f0_hal_lowlevel.c **** 
  37:.././hal//stm32f0/stm32f0_hal_lowlevel.c **** 
  38:.././hal//stm32f0/stm32f0_hal_lowlevel.c **** #include "stm32f0_hal.h"
  39:.././hal//stm32f0/stm32f0_hal_lowlevel.c **** #include "stm32f0_hal_lowlevel.h"
  40:.././hal//stm32f0/stm32f0_hal_lowlevel.c **** #include "stm32f0xx_hal_rcc.h"
  41:.././hal//stm32f0/stm32f0_hal_lowlevel.c **** #include "stm32f0xx_hal_gpio.h"
  42:.././hal//stm32f0/stm32f0_hal_lowlevel.c **** #include "stm32f0xx_hal_dma.h"
  43:.././hal//stm32f0/stm32f0_hal_lowlevel.c **** #include "stm32f0xx_hal_uart.h"
  44:.././hal//stm32f0/stm32f0_hal_lowlevel.c **** #include "stm32f0xx_hal_flash.h"
  45:.././hal//stm32f0/stm32f0_hal_lowlevel.c **** 
  46:.././hal//stm32f0/stm32f0_hal_lowlevel.c **** #define assert_param(expr) ((void)0U)
  47:.././hal//stm32f0/stm32f0_hal_lowlevel.c **** 
  48:.././hal//stm32f0/stm32f0_hal_lowlevel.c **** uint32_t HAL_GetTick(void)
  49:.././hal//stm32f0/stm32f0_hal_lowlevel.c **** {
  27              		.loc 1 49 1 view -0
  28              		.cfi_startproc
  29              		@ args = 0, pretend = 0, frame = 0
  30              		@ frame_needed = 0, uses_anonymous_args = 0
  31              		@ link register save eliminated.
  50:.././hal//stm32f0/stm32f0_hal_lowlevel.c **** 	static uint32_t tick;
  32              		.loc 1 50 2 view .LVU1
  51:.././hal//stm32f0/stm32f0_hal_lowlevel.c **** 	return tick++;;
  33              		.loc 1 51 2 view .LVU2
  34              		.loc 1 51 13 is_stmt 0 view .LVU3
  35 0000 024B     		ldr	r3, .L2
  52:.././hal//stm32f0/stm32f0_hal_lowlevel.c **** }
  36              		.loc 1 52 1 view .LVU4
  37              		@ sp needed
  51:.././hal//stm32f0/stm32f0_hal_lowlevel.c **** 	return tick++;;
  38              		.loc 1 51 13 view .LVU5
  39 0002 1868     		ldr	r0, [r3]
  40 0004 421C     		adds	r2, r0, #1
  41 0006 1A60     		str	r2, [r3]
  51:.././hal//stm32f0/stm32f0_hal_lowlevel.c **** 	return tick++;;
  42              		.loc 1 51 16 is_stmt 1 discriminator 1 view .LVU6
  43              		.loc 1 52 1 is_stmt 0 view .LVU7
  44 0008 7047     		bx	lr
  45              	.L3:
  46 000a C046     		.align	2
  47              	.L2:
  48 000c 00000000 		.word	.LANCHOR0
  49              		.cfi_endproc
  50              	.LFE37:
  52              		.section	.text.HAL_RCC_GetSysClockFreq,"ax",%progbits
  53              		.align	1
  54              		.global	HAL_RCC_GetSysClockFreq
  55              		.syntax unified
  56              		.code	16
  57              		.thumb_func
  59              	HAL_RCC_GetSysClockFreq:
  60              	.LFB38:
  53:.././hal//stm32f0/stm32f0_hal_lowlevel.c **** 
  54:.././hal//stm32f0/stm32f0_hal_lowlevel.c **** #define UART_CR1_FIELDS  ((uint32_t)(USART_CR1_M | USART_CR1_PCE | USART_CR1_PS | \
  55:.././hal//stm32f0/stm32f0_hal_lowlevel.c ****                                      USART_CR1_TE | USART_CR1_RE | USART_CR1_OVER8)) /*!< UART or U
  56:.././hal//stm32f0/stm32f0_hal_lowlevel.c **** 									 
  57:.././hal//stm32f0/stm32f0_hal_lowlevel.c **** uint32_t SystemCoreClock = 8000000;
  58:.././hal//stm32f0/stm32f0_hal_lowlevel.c **** 
  59:.././hal//stm32f0/stm32f0_hal_lowlevel.c **** 
  60:.././hal//stm32f0/stm32f0_hal_lowlevel.c **** uint32_t HAL_RCC_GetSysClockFreq(void)
  61:.././hal//stm32f0/stm32f0_hal_lowlevel.c **** {
  61              		.loc 1 61 1 is_stmt 1 view -0
  62              		.cfi_startproc
  63              		@ args = 0, pretend = 0, frame = 0
  64              		@ frame_needed = 0, uses_anonymous_args = 0
  65              		@ link register save eliminated.
  62:.././hal//stm32f0/stm32f0_hal_lowlevel.c **** 	return 7372800U;
  66              		.loc 1 62 2 view .LVU9
  67              		.loc 1 62 9 is_stmt 0 discriminator 1 view .LVU10
  68 0000 E120     		movs	r0, #225
  63:.././hal//stm32f0/stm32f0_hal_lowlevel.c **** }
  69              		.loc 1 63 1 view .LVU11
  70              		@ sp needed
  71 0002 C003     		lsls	r0, r0, #15
  72 0004 7047     		bx	lr
  73              		.cfi_endproc
  74              	.LFE38:
  76              		.section	.text.HAL_RCC_GetPCLK1Freq,"ax",%progbits
  77              		.align	1
  78              		.global	HAL_RCC_GetPCLK1Freq
  79              		.syntax unified
  80              		.code	16
  81              		.thumb_func
  83              	HAL_RCC_GetPCLK1Freq:
  84              	.LFB53:
  85              		.cfi_startproc
  64:.././hal//stm32f0/stm32f0_hal_lowlevel.c **** 
  65:.././hal//stm32f0/stm32f0_hal_lowlevel.c **** uint32_t HAL_RCC_GetPCLK1Freq(void)
  86              		.loc 1 65 10 is_stmt 1 view -0
  87              		@ args = 0, pretend = 0, frame = 0
  88              		@ frame_needed = 0, uses_anonymous_args = 0
  89              		@ link register save eliminated.
  90 0000 E120     		movs	r0, #225
  91              		@ sp needed
  92 0002 C003     		lsls	r0, r0, #15
  93 0004 7047     		bx	lr
  94              		.cfi_endproc
  95              	.LFE53:
  97              		.section	.text.HAL_RCC_GetPCLK2Freq,"ax",%progbits
  98              		.align	1
  99              		.global	HAL_RCC_GetPCLK2Freq
 100              		.syntax unified
 101              		.code	16
 102              		.thumb_func
 104              	HAL_RCC_GetPCLK2Freq:
 105              	.LFB55:
 106              		.cfi_startproc
  66:.././hal//stm32f0/stm32f0_hal_lowlevel.c **** {
  67:.././hal//stm32f0/stm32f0_hal_lowlevel.c **** 	return 7372800U;
  68:.././hal//stm32f0/stm32f0_hal_lowlevel.c **** }
  69:.././hal//stm32f0/stm32f0_hal_lowlevel.c **** 
  70:.././hal//stm32f0/stm32f0_hal_lowlevel.c **** /**
  71:.././hal//stm32f0/stm32f0_hal_lowlevel.c ****   * @brief  Returns the PCLK2 frequency
  72:.././hal//stm32f0/stm32f0_hal_lowlevel.c ****   * @note   Each time PCLK2 changes, this function must be called to update the
  73:.././hal//stm32f0/stm32f0_hal_lowlevel.c ****   *         right PCLK2 value. Otherwise, any configuration based on this function will be incorrec
  74:.././hal//stm32f0/stm32f0_hal_lowlevel.c ****   * @retval PCLK2 frequency
  75:.././hal//stm32f0/stm32f0_hal_lowlevel.c ****   */
  76:.././hal//stm32f0/stm32f0_hal_lowlevel.c **** uint32_t HAL_RCC_GetPCLK2Freq(void)
 107              		.loc 1 76 10 view -0
 108              		@ args = 0, pretend = 0, frame = 0
 109              		@ frame_needed = 0, uses_anonymous_args = 0
 110              		@ link register save eliminated.
 111 0000 E120     		movs	r0, #225
 112              		@ sp needed
 113 0002 C003     		lsls	r0, r0, #15
 114 0004 7047     		bx	lr
 115              		.cfi_endproc
 116              	.LFE55:
 118              		.section	.text.HAL_RCC_OscConfig,"ax",%progbits
 119              		.align	1
 120              		.global	HAL_RCC_OscConfig
 121              		.syntax unified
 122              		.code	16
 123              		.thumb_func
 125              	HAL_RCC_OscConfig:
 126              	.LVL0:
 127              	.LFB41:
  77:.././hal//stm32f0/stm32f0_hal_lowlevel.c **** {
  78:.././hal//stm32f0/stm32f0_hal_lowlevel.c ****   /* Get HCLK source and Compute PCLK2 frequency ---------------------------*/
  79:.././hal//stm32f0/stm32f0_hal_lowlevel.c ****   //return (HAL_RCC_GetHCLKFreq()>> APBPrescTable[(RCC->CFGR & RCC_CFGR_PPRE2)>> POSITION_VAL(RCC_C
  80:.././hal//stm32f0/stm32f0_hal_lowlevel.c ****   return 7372800;
  81:.././hal//stm32f0/stm32f0_hal_lowlevel.c **** }
  82:.././hal//stm32f0/stm32f0_hal_lowlevel.c **** 
  83:.././hal//stm32f0/stm32f0_hal_lowlevel.c **** /**
  84:.././hal//stm32f0/stm32f0_hal_lowlevel.c ****   * @brief  Initializes the RCC Oscillators according to the specified parameters in the
  85:.././hal//stm32f0/stm32f0_hal_lowlevel.c ****   *         RCC_OscInitTypeDef.
  86:.././hal//stm32f0/stm32f0_hal_lowlevel.c ****   * @param  RCC_OscInitStruct pointer to an RCC_OscInitTypeDef structure that
  87:.././hal//stm32f0/stm32f0_hal_lowlevel.c ****   *         contains the configuration information for the RCC Oscillators.
  88:.././hal//stm32f0/stm32f0_hal_lowlevel.c ****   * @note   The PLL is not disabled when used as system clock.
  89:.././hal//stm32f0/stm32f0_hal_lowlevel.c ****   * @note   Transitions LSE Bypass to LSE On and LSE On to LSE Bypass are not
  90:.././hal//stm32f0/stm32f0_hal_lowlevel.c ****   *         supported by this macro. User should request a transition to LSE Off
  91:.././hal//stm32f0/stm32f0_hal_lowlevel.c ****   *         first and then LSE On or LSE Bypass.
  92:.././hal//stm32f0/stm32f0_hal_lowlevel.c ****   * @note   Transition HSE Bypass to HSE On and HSE On to HSE Bypass are not
  93:.././hal//stm32f0/stm32f0_hal_lowlevel.c ****   *         supported by this macro. User should request a transition to HSE Off
  94:.././hal//stm32f0/stm32f0_hal_lowlevel.c ****   *         first and then HSE On or HSE Bypass.
  95:.././hal//stm32f0/stm32f0_hal_lowlevel.c ****   * @retval HAL status
  96:.././hal//stm32f0/stm32f0_hal_lowlevel.c ****   */
  97:.././hal//stm32f0/stm32f0_hal_lowlevel.c **** HAL_StatusTypeDef HAL_RCC_OscConfig(RCC_OscInitTypeDef  *RCC_OscInitStruct)
  98:.././hal//stm32f0/stm32f0_hal_lowlevel.c **** {
 128              		.loc 1 98 1 view -0
 129              		.cfi_startproc
 130              		@ args = 0, pretend = 0, frame = 16
 131              		@ frame_needed = 0, uses_anonymous_args = 0
  99:.././hal//stm32f0/stm32f0_hal_lowlevel.c ****    uint32_t tickstart = 0U;
 132              		.loc 1 99 4 view .LVU15
 100:.././hal//stm32f0/stm32f0_hal_lowlevel.c ****   
 101:.././hal//stm32f0/stm32f0_hal_lowlevel.c ****   /* Check the parameters */
 102:.././hal//stm32f0/stm32f0_hal_lowlevel.c ****   assert_param(RCC_OscInitStruct != NULL);
 133              		.loc 1 102 3 view .LVU16
 103:.././hal//stm32f0/stm32f0_hal_lowlevel.c ****   assert_param(IS_RCC_OSCILLATORTYPE(RCC_OscInitStruct->OscillatorType));
 134              		.loc 1 103 3 view .LVU17
 104:.././hal//stm32f0/stm32f0_hal_lowlevel.c **** 
 105:.././hal//stm32f0/stm32f0_hal_lowlevel.c ****   /*------------------------------- HSE Configuration ------------------------*/ 
 106:.././hal//stm32f0/stm32f0_hal_lowlevel.c ****   if(((RCC_OscInitStruct->OscillatorType) & RCC_OSCILLATORTYPE_HSE) == RCC_OSCILLATORTYPE_HSE)
 135              		.loc 1 106 3 view .LVU18
  98:.././hal//stm32f0/stm32f0_hal_lowlevel.c ****    uint32_t tickstart = 0U;
 136              		.loc 1 98 1 is_stmt 0 view .LVU19
 137 0000 F0B5     		push	{r4, r5, r6, r7, lr}
 138              	.LCFI0:
 139              		.cfi_def_cfa_offset 20
 140              		.cfi_offset 4, -20
 141              		.cfi_offset 5, -16
 142              		.cfi_offset 6, -12
 143              		.cfi_offset 7, -8
 144              		.cfi_offset 14, -4
 145              		.loc 1 106 43 view .LVU20
 146 0002 0368     		ldr	r3, [r0]
  98:.././hal//stm32f0/stm32f0_hal_lowlevel.c ****    uint32_t tickstart = 0U;
 147              		.loc 1 98 1 view .LVU21
 148 0004 0400     		movs	r4, r0
 149 0006 85B0     		sub	sp, sp, #20
 150              	.LCFI1:
 151              		.cfi_def_cfa_offset 40
 152              		.loc 1 106 5 view .LVU22
 153 0008 DB07     		lsls	r3, r3, #31
 154 000a 2FD4     		bmi	.L8
 155              	.LVL1:
 156              	.L13:
 107:.././hal//stm32f0/stm32f0_hal_lowlevel.c ****   {
 108:.././hal//stm32f0/stm32f0_hal_lowlevel.c ****     /* Check the parameters */
 109:.././hal//stm32f0/stm32f0_hal_lowlevel.c ****     assert_param(IS_RCC_HSE(RCC_OscInitStruct->HSEState));
 110:.././hal//stm32f0/stm32f0_hal_lowlevel.c **** 
 111:.././hal//stm32f0/stm32f0_hal_lowlevel.c ****     /* When the HSE is used as system clock or clock source for PLL in these cases it is not allowe
 112:.././hal//stm32f0/stm32f0_hal_lowlevel.c ****     if((__HAL_RCC_GET_SYSCLK_SOURCE() == RCC_SYSCLKSOURCE_STATUS_HSE) 
 113:.././hal//stm32f0/stm32f0_hal_lowlevel.c ****        || ((__HAL_RCC_GET_SYSCLK_SOURCE() == RCC_SYSCLKSOURCE_STATUS_PLLCLK) && (__HAL_RCC_GET_PLL_
 114:.././hal//stm32f0/stm32f0_hal_lowlevel.c ****     {
 115:.././hal//stm32f0/stm32f0_hal_lowlevel.c ****       if((__HAL_RCC_GET_FLAG(RCC_FLAG_HSERDY) != RESET) && (RCC_OscInitStruct->HSEState == RCC_HSE_
 116:.././hal//stm32f0/stm32f0_hal_lowlevel.c ****       {
 117:.././hal//stm32f0/stm32f0_hal_lowlevel.c ****         return HAL_ERROR;
 118:.././hal//stm32f0/stm32f0_hal_lowlevel.c ****       }
 119:.././hal//stm32f0/stm32f0_hal_lowlevel.c ****     }
 120:.././hal//stm32f0/stm32f0_hal_lowlevel.c ****     else
 121:.././hal//stm32f0/stm32f0_hal_lowlevel.c ****     {
 122:.././hal//stm32f0/stm32f0_hal_lowlevel.c ****       /* Set the new HSE configuration ---------------------------------------*/
 123:.././hal//stm32f0/stm32f0_hal_lowlevel.c ****       __HAL_RCC_HSE_CONFIG(RCC_OscInitStruct->HSEState);
 124:.././hal//stm32f0/stm32f0_hal_lowlevel.c ****       
 125:.././hal//stm32f0/stm32f0_hal_lowlevel.c **** 
 126:.././hal//stm32f0/stm32f0_hal_lowlevel.c ****        /* Check the HSE State */
 127:.././hal//stm32f0/stm32f0_hal_lowlevel.c ****       if(RCC_OscInitStruct->HSEState != RCC_HSE_OFF)
 128:.././hal//stm32f0/stm32f0_hal_lowlevel.c ****       {
 129:.././hal//stm32f0/stm32f0_hal_lowlevel.c ****         /* Get Start Tick */
 130:.././hal//stm32f0/stm32f0_hal_lowlevel.c ****         tickstart = HAL_GetTick();
 131:.././hal//stm32f0/stm32f0_hal_lowlevel.c ****         
 132:.././hal//stm32f0/stm32f0_hal_lowlevel.c ****         /* Wait till HSE is ready */
 133:.././hal//stm32f0/stm32f0_hal_lowlevel.c ****         while(__HAL_RCC_GET_FLAG(RCC_FLAG_HSERDY) == RESET)
 134:.././hal//stm32f0/stm32f0_hal_lowlevel.c ****         {
 135:.././hal//stm32f0/stm32f0_hal_lowlevel.c ****           if((HAL_GetTick() - tickstart ) > HSE_TIMEOUT_VALUE)
 136:.././hal//stm32f0/stm32f0_hal_lowlevel.c ****           {
 137:.././hal//stm32f0/stm32f0_hal_lowlevel.c ****             return HAL_TIMEOUT;
 138:.././hal//stm32f0/stm32f0_hal_lowlevel.c ****           }
 139:.././hal//stm32f0/stm32f0_hal_lowlevel.c ****         }
 140:.././hal//stm32f0/stm32f0_hal_lowlevel.c ****       }
 141:.././hal//stm32f0/stm32f0_hal_lowlevel.c ****       else
 142:.././hal//stm32f0/stm32f0_hal_lowlevel.c ****       {
 143:.././hal//stm32f0/stm32f0_hal_lowlevel.c ****         /* Get Start Tick */
 144:.././hal//stm32f0/stm32f0_hal_lowlevel.c ****         tickstart = HAL_GetTick();
 145:.././hal//stm32f0/stm32f0_hal_lowlevel.c ****         
 146:.././hal//stm32f0/stm32f0_hal_lowlevel.c ****         /* Wait till HSE is disabled */
 147:.././hal//stm32f0/stm32f0_hal_lowlevel.c ****         while(__HAL_RCC_GET_FLAG(RCC_FLAG_HSERDY) != RESET)
 148:.././hal//stm32f0/stm32f0_hal_lowlevel.c ****         {
 149:.././hal//stm32f0/stm32f0_hal_lowlevel.c ****            if((HAL_GetTick() - tickstart ) > HSE_TIMEOUT_VALUE)
 150:.././hal//stm32f0/stm32f0_hal_lowlevel.c ****           {
 151:.././hal//stm32f0/stm32f0_hal_lowlevel.c ****             return HAL_TIMEOUT;
 152:.././hal//stm32f0/stm32f0_hal_lowlevel.c ****           }
 153:.././hal//stm32f0/stm32f0_hal_lowlevel.c ****         }
 154:.././hal//stm32f0/stm32f0_hal_lowlevel.c ****       }
 155:.././hal//stm32f0/stm32f0_hal_lowlevel.c ****     }
 156:.././hal//stm32f0/stm32f0_hal_lowlevel.c ****   }
 157:.././hal//stm32f0/stm32f0_hal_lowlevel.c ****   /*----------------------------- HSI Configuration --------------------------*/ 
 158:.././hal//stm32f0/stm32f0_hal_lowlevel.c ****   if(((RCC_OscInitStruct->OscillatorType) & RCC_OSCILLATORTYPE_HSI) == RCC_OSCILLATORTYPE_HSI)
 157              		.loc 1 158 3 is_stmt 1 view .LVU23
 158              		.loc 1 158 43 is_stmt 0 view .LVU24
 159 000c 2368     		ldr	r3, [r4]
 160              		.loc 1 158 5 view .LVU25
 161 000e 9B07     		lsls	r3, r3, #30
 162 0010 00D5     		bpl	.LCB99
 163 0012 81E0     		b	.L9	@long jump
 164              	.LCB99:
 165              	.L25:
 159:.././hal//stm32f0/stm32f0_hal_lowlevel.c ****   {
 160:.././hal//stm32f0/stm32f0_hal_lowlevel.c ****     /* Check the parameters */
 161:.././hal//stm32f0/stm32f0_hal_lowlevel.c ****     assert_param(IS_RCC_HSI(RCC_OscInitStruct->HSIState));
 162:.././hal//stm32f0/stm32f0_hal_lowlevel.c ****     assert_param(IS_RCC_CALIBRATION_VALUE(RCC_OscInitStruct->HSICalibrationValue));
 163:.././hal//stm32f0/stm32f0_hal_lowlevel.c ****     
 164:.././hal//stm32f0/stm32f0_hal_lowlevel.c ****     /* Check if HSI is used as system clock or as PLL source when PLL is selected as system clock *
 165:.././hal//stm32f0/stm32f0_hal_lowlevel.c ****     if((__HAL_RCC_GET_SYSCLK_SOURCE() == RCC_SYSCLKSOURCE_STATUS_HSI) 
 166:.././hal//stm32f0/stm32f0_hal_lowlevel.c ****        || ((__HAL_RCC_GET_SYSCLK_SOURCE() == RCC_SYSCLKSOURCE_STATUS_PLLCLK) && (__HAL_RCC_GET_PLL_
 167:.././hal//stm32f0/stm32f0_hal_lowlevel.c ****     {
 168:.././hal//stm32f0/stm32f0_hal_lowlevel.c ****       /* When HSI is used as system clock it will not disabled */
 169:.././hal//stm32f0/stm32f0_hal_lowlevel.c ****       if((__HAL_RCC_GET_FLAG(RCC_FLAG_HSIRDY) != RESET) && (RCC_OscInitStruct->HSIState != RCC_HSI_
 170:.././hal//stm32f0/stm32f0_hal_lowlevel.c ****       {
 171:.././hal//stm32f0/stm32f0_hal_lowlevel.c ****         return HAL_ERROR;
 172:.././hal//stm32f0/stm32f0_hal_lowlevel.c ****       }
 173:.././hal//stm32f0/stm32f0_hal_lowlevel.c ****       /* Otherwise, just the calibration is allowed */
 174:.././hal//stm32f0/stm32f0_hal_lowlevel.c ****       else
 175:.././hal//stm32f0/stm32f0_hal_lowlevel.c ****       {
 176:.././hal//stm32f0/stm32f0_hal_lowlevel.c ****         /* Adjusts the Internal High Speed oscillator (HSI) calibration value.*/
 177:.././hal//stm32f0/stm32f0_hal_lowlevel.c ****         __HAL_RCC_HSI_CALIBRATIONVALUE_ADJUST(RCC_OscInitStruct->HSICalibrationValue);
 178:.././hal//stm32f0/stm32f0_hal_lowlevel.c ****       }
 179:.././hal//stm32f0/stm32f0_hal_lowlevel.c ****     }
 180:.././hal//stm32f0/stm32f0_hal_lowlevel.c ****     else
 181:.././hal//stm32f0/stm32f0_hal_lowlevel.c ****     {
 182:.././hal//stm32f0/stm32f0_hal_lowlevel.c ****       /* Check the HSI State */
 183:.././hal//stm32f0/stm32f0_hal_lowlevel.c ****       if(RCC_OscInitStruct->HSIState != RCC_HSI_OFF)
 184:.././hal//stm32f0/stm32f0_hal_lowlevel.c ****       {
 185:.././hal//stm32f0/stm32f0_hal_lowlevel.c ****        /* Enable the Internal High Speed oscillator (HSI). */
 186:.././hal//stm32f0/stm32f0_hal_lowlevel.c ****         __HAL_RCC_HSI_ENABLE();
 187:.././hal//stm32f0/stm32f0_hal_lowlevel.c ****         
 188:.././hal//stm32f0/stm32f0_hal_lowlevel.c ****         /* Get Start Tick */
 189:.././hal//stm32f0/stm32f0_hal_lowlevel.c ****         tickstart = HAL_GetTick();
 190:.././hal//stm32f0/stm32f0_hal_lowlevel.c ****         
 191:.././hal//stm32f0/stm32f0_hal_lowlevel.c ****         /* Wait till HSI is ready */
 192:.././hal//stm32f0/stm32f0_hal_lowlevel.c ****         while(__HAL_RCC_GET_FLAG(RCC_FLAG_HSIRDY) == RESET)
 193:.././hal//stm32f0/stm32f0_hal_lowlevel.c ****         {
 194:.././hal//stm32f0/stm32f0_hal_lowlevel.c ****           if((HAL_GetTick() - tickstart ) > HSI_TIMEOUT_VALUE)
 195:.././hal//stm32f0/stm32f0_hal_lowlevel.c ****           {
 196:.././hal//stm32f0/stm32f0_hal_lowlevel.c ****             return HAL_TIMEOUT;
 197:.././hal//stm32f0/stm32f0_hal_lowlevel.c ****           }
 198:.././hal//stm32f0/stm32f0_hal_lowlevel.c ****         }
 199:.././hal//stm32f0/stm32f0_hal_lowlevel.c ****                 
 200:.././hal//stm32f0/stm32f0_hal_lowlevel.c ****         /* Adjusts the Internal High Speed oscillator (HSI) calibration value.*/
 201:.././hal//stm32f0/stm32f0_hal_lowlevel.c ****         __HAL_RCC_HSI_CALIBRATIONVALUE_ADJUST(RCC_OscInitStruct->HSICalibrationValue);
 202:.././hal//stm32f0/stm32f0_hal_lowlevel.c ****       }
 203:.././hal//stm32f0/stm32f0_hal_lowlevel.c ****       else
 204:.././hal//stm32f0/stm32f0_hal_lowlevel.c ****       {
 205:.././hal//stm32f0/stm32f0_hal_lowlevel.c ****         /* Disable the Internal High Speed oscillator (HSI). */
 206:.././hal//stm32f0/stm32f0_hal_lowlevel.c ****         __HAL_RCC_HSI_DISABLE();
 207:.././hal//stm32f0/stm32f0_hal_lowlevel.c ****         
 208:.././hal//stm32f0/stm32f0_hal_lowlevel.c ****         /* Get Start Tick */
 209:.././hal//stm32f0/stm32f0_hal_lowlevel.c ****         tickstart = HAL_GetTick();
 210:.././hal//stm32f0/stm32f0_hal_lowlevel.c ****         
 211:.././hal//stm32f0/stm32f0_hal_lowlevel.c ****         /* Wait till HSI is disabled */
 212:.././hal//stm32f0/stm32f0_hal_lowlevel.c ****         while(__HAL_RCC_GET_FLAG(RCC_FLAG_HSIRDY) != RESET)
 213:.././hal//stm32f0/stm32f0_hal_lowlevel.c ****         {
 214:.././hal//stm32f0/stm32f0_hal_lowlevel.c ****           if((HAL_GetTick() - tickstart ) > HSI_TIMEOUT_VALUE)
 215:.././hal//stm32f0/stm32f0_hal_lowlevel.c ****           {
 216:.././hal//stm32f0/stm32f0_hal_lowlevel.c ****             return HAL_TIMEOUT;
 217:.././hal//stm32f0/stm32f0_hal_lowlevel.c ****           }
 218:.././hal//stm32f0/stm32f0_hal_lowlevel.c ****         }
 219:.././hal//stm32f0/stm32f0_hal_lowlevel.c ****       }
 220:.././hal//stm32f0/stm32f0_hal_lowlevel.c ****     }
 221:.././hal//stm32f0/stm32f0_hal_lowlevel.c ****   }
 222:.././hal//stm32f0/stm32f0_hal_lowlevel.c ****   /*------------------------------ LSI Configuration -------------------------*/ 
 223:.././hal//stm32f0/stm32f0_hal_lowlevel.c ****   if(((RCC_OscInitStruct->OscillatorType) & RCC_OSCILLATORTYPE_LSI) == RCC_OSCILLATORTYPE_LSI)
 166              		.loc 1 223 3 is_stmt 1 view .LVU26
 167              		.loc 1 223 43 is_stmt 0 view .LVU27
 168 0014 2368     		ldr	r3, [r4]
 169              		.loc 1 223 5 view .LVU28
 170 0016 1B07     		lsls	r3, r3, #28
 171 0018 00D5     		bpl	.LCB106
 172 001a BCE0     		b	.L35	@long jump
 173              	.LCB106:
 174              	.L41:
 224:.././hal//stm32f0/stm32f0_hal_lowlevel.c ****   {
 225:.././hal//stm32f0/stm32f0_hal_lowlevel.c ****     /* Check the parameters */
 226:.././hal//stm32f0/stm32f0_hal_lowlevel.c ****     assert_param(IS_RCC_LSI(RCC_OscInitStruct->LSIState));
 227:.././hal//stm32f0/stm32f0_hal_lowlevel.c ****     
 228:.././hal//stm32f0/stm32f0_hal_lowlevel.c ****     /* Check the LSI State */
 229:.././hal//stm32f0/stm32f0_hal_lowlevel.c ****     if(RCC_OscInitStruct->LSIState != RCC_LSI_OFF)
 230:.././hal//stm32f0/stm32f0_hal_lowlevel.c ****     {
 231:.././hal//stm32f0/stm32f0_hal_lowlevel.c ****       /* Enable the Internal Low Speed oscillator (LSI). */
 232:.././hal//stm32f0/stm32f0_hal_lowlevel.c ****       __HAL_RCC_LSI_ENABLE();
 233:.././hal//stm32f0/stm32f0_hal_lowlevel.c ****       
 234:.././hal//stm32f0/stm32f0_hal_lowlevel.c ****       /* Get Start Tick */
 235:.././hal//stm32f0/stm32f0_hal_lowlevel.c ****       tickstart = HAL_GetTick();
 236:.././hal//stm32f0/stm32f0_hal_lowlevel.c ****       
 237:.././hal//stm32f0/stm32f0_hal_lowlevel.c ****       /* Wait till LSI is ready */  
 238:.././hal//stm32f0/stm32f0_hal_lowlevel.c ****       while(__HAL_RCC_GET_FLAG(RCC_FLAG_LSIRDY) == RESET)
 239:.././hal//stm32f0/stm32f0_hal_lowlevel.c ****       {
 240:.././hal//stm32f0/stm32f0_hal_lowlevel.c ****         if((HAL_GetTick() - tickstart ) > LSI_TIMEOUT_VALUE)
 241:.././hal//stm32f0/stm32f0_hal_lowlevel.c ****         {
 242:.././hal//stm32f0/stm32f0_hal_lowlevel.c ****           return HAL_TIMEOUT;
 243:.././hal//stm32f0/stm32f0_hal_lowlevel.c ****         }
 244:.././hal//stm32f0/stm32f0_hal_lowlevel.c ****       }
 245:.././hal//stm32f0/stm32f0_hal_lowlevel.c ****     }
 246:.././hal//stm32f0/stm32f0_hal_lowlevel.c ****     else
 247:.././hal//stm32f0/stm32f0_hal_lowlevel.c ****     {
 248:.././hal//stm32f0/stm32f0_hal_lowlevel.c ****       /* Disable the Internal Low Speed oscillator (LSI). */
 249:.././hal//stm32f0/stm32f0_hal_lowlevel.c ****       __HAL_RCC_LSI_DISABLE();
 250:.././hal//stm32f0/stm32f0_hal_lowlevel.c ****       
 251:.././hal//stm32f0/stm32f0_hal_lowlevel.c ****       /* Get Start Tick */
 252:.././hal//stm32f0/stm32f0_hal_lowlevel.c ****       tickstart = HAL_GetTick();
 253:.././hal//stm32f0/stm32f0_hal_lowlevel.c ****       
 254:.././hal//stm32f0/stm32f0_hal_lowlevel.c ****       /* Wait till LSI is disabled */  
 255:.././hal//stm32f0/stm32f0_hal_lowlevel.c ****       while(__HAL_RCC_GET_FLAG(RCC_FLAG_LSIRDY) != RESET)
 256:.././hal//stm32f0/stm32f0_hal_lowlevel.c ****       {
 257:.././hal//stm32f0/stm32f0_hal_lowlevel.c ****         if((HAL_GetTick() - tickstart ) > LSI_TIMEOUT_VALUE)
 258:.././hal//stm32f0/stm32f0_hal_lowlevel.c ****         {
 259:.././hal//stm32f0/stm32f0_hal_lowlevel.c ****           return HAL_TIMEOUT;
 260:.././hal//stm32f0/stm32f0_hal_lowlevel.c ****         }
 261:.././hal//stm32f0/stm32f0_hal_lowlevel.c ****       }
 262:.././hal//stm32f0/stm32f0_hal_lowlevel.c ****     }
 263:.././hal//stm32f0/stm32f0_hal_lowlevel.c ****   }
 264:.././hal//stm32f0/stm32f0_hal_lowlevel.c ****   /*------------------------------ LSE Configuration -------------------------*/ 
 265:.././hal//stm32f0/stm32f0_hal_lowlevel.c ****   if(((RCC_OscInitStruct->OscillatorType) & RCC_OSCILLATORTYPE_LSE) == RCC_OSCILLATORTYPE_LSE)
 175              		.loc 1 265 3 is_stmt 1 view .LVU29
 176              		.loc 1 265 43 is_stmt 0 view .LVU30
 177 001c 2368     		ldr	r3, [r4]
 178              		.loc 1 265 5 view .LVU31
 179 001e 5B07     		lsls	r3, r3, #29
 180 0020 00D5     		bpl	.LCB113
 181 0022 DFE0     		b	.L36	@long jump
 182              	.LCB113:
 183              	.L44:
 266:.././hal//stm32f0/stm32f0_hal_lowlevel.c ****   {
 267:.././hal//stm32f0/stm32f0_hal_lowlevel.c ****     FlagStatus       pwrclkchanged = RESET;
 268:.././hal//stm32f0/stm32f0_hal_lowlevel.c ****     
 269:.././hal//stm32f0/stm32f0_hal_lowlevel.c ****     /* Check the parameters */
 270:.././hal//stm32f0/stm32f0_hal_lowlevel.c ****     assert_param(IS_RCC_LSE(RCC_OscInitStruct->LSEState));
 271:.././hal//stm32f0/stm32f0_hal_lowlevel.c **** 
 272:.././hal//stm32f0/stm32f0_hal_lowlevel.c ****     /* Update LSE configuration in Backup Domain control register    */
 273:.././hal//stm32f0/stm32f0_hal_lowlevel.c ****     /* Requires to enable write access to Backup Domain of necessary */
 274:.././hal//stm32f0/stm32f0_hal_lowlevel.c ****     if(__HAL_RCC_PWR_IS_CLK_DISABLED())
 275:.././hal//stm32f0/stm32f0_hal_lowlevel.c ****     {
 276:.././hal//stm32f0/stm32f0_hal_lowlevel.c ****       __HAL_RCC_PWR_CLK_ENABLE();
 277:.././hal//stm32f0/stm32f0_hal_lowlevel.c ****       pwrclkchanged = SET;
 278:.././hal//stm32f0/stm32f0_hal_lowlevel.c ****     }
 279:.././hal//stm32f0/stm32f0_hal_lowlevel.c ****     
 280:.././hal//stm32f0/stm32f0_hal_lowlevel.c ****     if(HAL_IS_BIT_CLR(PWR->CR, PWR_CR_DBP))
 281:.././hal//stm32f0/stm32f0_hal_lowlevel.c ****     {
 282:.././hal//stm32f0/stm32f0_hal_lowlevel.c ****       /* Enable write access to Backup domain */
 283:.././hal//stm32f0/stm32f0_hal_lowlevel.c ****       SET_BIT(PWR->CR, PWR_CR_DBP);
 284:.././hal//stm32f0/stm32f0_hal_lowlevel.c ****       
 285:.././hal//stm32f0/stm32f0_hal_lowlevel.c ****       /* Wait for Backup domain Write protection disable */
 286:.././hal//stm32f0/stm32f0_hal_lowlevel.c ****       tickstart = HAL_GetTick();
 287:.././hal//stm32f0/stm32f0_hal_lowlevel.c **** 
 288:.././hal//stm32f0/stm32f0_hal_lowlevel.c ****       while(HAL_IS_BIT_CLR(PWR->CR, PWR_CR_DBP))
 289:.././hal//stm32f0/stm32f0_hal_lowlevel.c ****       {
 290:.././hal//stm32f0/stm32f0_hal_lowlevel.c ****         if((HAL_GetTick() - tickstart) > RCC_DBP_TIMEOUT_VALUE)
 291:.././hal//stm32f0/stm32f0_hal_lowlevel.c ****         {
 292:.././hal//stm32f0/stm32f0_hal_lowlevel.c ****           return HAL_TIMEOUT;
 293:.././hal//stm32f0/stm32f0_hal_lowlevel.c ****         }
 294:.././hal//stm32f0/stm32f0_hal_lowlevel.c ****       }
 295:.././hal//stm32f0/stm32f0_hal_lowlevel.c ****     }
 296:.././hal//stm32f0/stm32f0_hal_lowlevel.c **** 
 297:.././hal//stm32f0/stm32f0_hal_lowlevel.c ****     /* Set the new LSE configuration -----------------------------------------*/
 298:.././hal//stm32f0/stm32f0_hal_lowlevel.c ****     __HAL_RCC_LSE_CONFIG(RCC_OscInitStruct->LSEState);
 299:.././hal//stm32f0/stm32f0_hal_lowlevel.c ****     /* Check the LSE State */
 300:.././hal//stm32f0/stm32f0_hal_lowlevel.c ****     if(RCC_OscInitStruct->LSEState != RCC_LSE_OFF)
 301:.././hal//stm32f0/stm32f0_hal_lowlevel.c ****     {
 302:.././hal//stm32f0/stm32f0_hal_lowlevel.c ****       /* Get Start Tick */
 303:.././hal//stm32f0/stm32f0_hal_lowlevel.c ****       tickstart = HAL_GetTick();
 304:.././hal//stm32f0/stm32f0_hal_lowlevel.c ****       
 305:.././hal//stm32f0/stm32f0_hal_lowlevel.c ****       /* Wait till LSE is ready */  
 306:.././hal//stm32f0/stm32f0_hal_lowlevel.c ****       while(__HAL_RCC_GET_FLAG(RCC_FLAG_LSERDY) == RESET)
 307:.././hal//stm32f0/stm32f0_hal_lowlevel.c ****       {
 308:.././hal//stm32f0/stm32f0_hal_lowlevel.c ****         if((HAL_GetTick() - tickstart ) > RCC_LSE_TIMEOUT_VALUE)
 309:.././hal//stm32f0/stm32f0_hal_lowlevel.c ****         {
 310:.././hal//stm32f0/stm32f0_hal_lowlevel.c ****           return HAL_TIMEOUT;
 311:.././hal//stm32f0/stm32f0_hal_lowlevel.c ****         }
 312:.././hal//stm32f0/stm32f0_hal_lowlevel.c ****       }
 313:.././hal//stm32f0/stm32f0_hal_lowlevel.c ****     }
 314:.././hal//stm32f0/stm32f0_hal_lowlevel.c ****     else
 315:.././hal//stm32f0/stm32f0_hal_lowlevel.c ****     {
 316:.././hal//stm32f0/stm32f0_hal_lowlevel.c ****       /* Get Start Tick */
 317:.././hal//stm32f0/stm32f0_hal_lowlevel.c ****       tickstart = HAL_GetTick();
 318:.././hal//stm32f0/stm32f0_hal_lowlevel.c ****       
 319:.././hal//stm32f0/stm32f0_hal_lowlevel.c ****       /* Wait till LSE is disabled */  
 320:.././hal//stm32f0/stm32f0_hal_lowlevel.c ****       while(__HAL_RCC_GET_FLAG(RCC_FLAG_LSERDY) != RESET)
 321:.././hal//stm32f0/stm32f0_hal_lowlevel.c ****       {
 322:.././hal//stm32f0/stm32f0_hal_lowlevel.c ****         if((HAL_GetTick() - tickstart ) > RCC_LSE_TIMEOUT_VALUE)
 323:.././hal//stm32f0/stm32f0_hal_lowlevel.c ****         {
 324:.././hal//stm32f0/stm32f0_hal_lowlevel.c ****           return HAL_TIMEOUT;
 325:.././hal//stm32f0/stm32f0_hal_lowlevel.c ****         }
 326:.././hal//stm32f0/stm32f0_hal_lowlevel.c ****       }
 327:.././hal//stm32f0/stm32f0_hal_lowlevel.c ****     }
 328:.././hal//stm32f0/stm32f0_hal_lowlevel.c **** 
 329:.././hal//stm32f0/stm32f0_hal_lowlevel.c ****     /* Require to disable power clock if necessary */
 330:.././hal//stm32f0/stm32f0_hal_lowlevel.c ****     if(pwrclkchanged == SET)
 331:.././hal//stm32f0/stm32f0_hal_lowlevel.c ****     {
 332:.././hal//stm32f0/stm32f0_hal_lowlevel.c ****       __HAL_RCC_PWR_CLK_DISABLE();
 333:.././hal//stm32f0/stm32f0_hal_lowlevel.c ****     }
 334:.././hal//stm32f0/stm32f0_hal_lowlevel.c ****   }
 335:.././hal//stm32f0/stm32f0_hal_lowlevel.c **** 
 336:.././hal//stm32f0/stm32f0_hal_lowlevel.c ****   /*----------------------------- HSI14 Configuration --------------------------*/
 337:.././hal//stm32f0/stm32f0_hal_lowlevel.c ****   if(((RCC_OscInitStruct->OscillatorType) & RCC_OSCILLATORTYPE_HSI14) == RCC_OSCILLATORTYPE_HSI14)
 184              		.loc 1 337 3 is_stmt 1 view .LVU32
 185              		.loc 1 337 43 is_stmt 0 view .LVU33
 186 0024 2368     		ldr	r3, [r4]
 187              		.loc 1 337 5 view .LVU34
 188 0026 DB06     		lsls	r3, r3, #27
 189 0028 1AD5     		bpl	.L62
 338:.././hal//stm32f0/stm32f0_hal_lowlevel.c ****   {
 339:.././hal//stm32f0/stm32f0_hal_lowlevel.c ****     /* Check the parameters */
 340:.././hal//stm32f0/stm32f0_hal_lowlevel.c ****     assert_param(IS_RCC_HSI14(RCC_OscInitStruct->HSI14State));
 190              		.loc 1 340 5 is_stmt 1 view .LVU35
 341:.././hal//stm32f0/stm32f0_hal_lowlevel.c ****     assert_param(IS_RCC_CALIBRATION_VALUE(RCC_OscInitStruct->HSI14CalibrationValue));
 191              		.loc 1 341 5 view .LVU36
 342:.././hal//stm32f0/stm32f0_hal_lowlevel.c **** 
 343:.././hal//stm32f0/stm32f0_hal_lowlevel.c ****     /* Check the HSI14 State */
 344:.././hal//stm32f0/stm32f0_hal_lowlevel.c ****     if(RCC_OscInitStruct->HSI14State == RCC_HSI14_ON)
 192              		.loc 1 344 5 view .LVU37
 193              		.loc 1 344 25 is_stmt 0 view .LVU38
 194 002a 6269     		ldr	r2, [r4, #20]
 195 002c 0423     		movs	r3, #4
 196 002e B44D     		ldr	r5, .L111
 197              		.loc 1 344 7 view .LVU39
 198 0030 012A     		cmp	r2, #1
 199 0032 00D0     		beq	.LCB128
 200 0034 48E1     		b	.L63	@long jump
 201              	.LCB128:
 345:.././hal//stm32f0/stm32f0_hal_lowlevel.c ****     {
 346:.././hal//stm32f0/stm32f0_hal_lowlevel.c ****       /* Disable ADC control of the Internal High Speed oscillator HSI14 */
 347:.././hal//stm32f0/stm32f0_hal_lowlevel.c ****       __HAL_RCC_HSI14ADC_DISABLE();
 202              		.loc 1 347 7 is_stmt 1 view .LVU40
 203 0036 696B     		ldr	r1, [r5, #52]
 348:.././hal//stm32f0/stm32f0_hal_lowlevel.c **** 
 349:.././hal//stm32f0/stm32f0_hal_lowlevel.c ****       /* Enable the Internal High Speed oscillator (HSI). */
 350:.././hal//stm32f0/stm32f0_hal_lowlevel.c ****       __HAL_RCC_HSI14_ENABLE();
 351:.././hal//stm32f0/stm32f0_hal_lowlevel.c **** 
 352:.././hal//stm32f0/stm32f0_hal_lowlevel.c ****       /* Get Start Tick */
 353:.././hal//stm32f0/stm32f0_hal_lowlevel.c ****       tickstart = HAL_GetTick();
 354:.././hal//stm32f0/stm32f0_hal_lowlevel.c ****       
 355:.././hal//stm32f0/stm32f0_hal_lowlevel.c ****       /* Wait till HSI is ready */  
 356:.././hal//stm32f0/stm32f0_hal_lowlevel.c ****       while(__HAL_RCC_GET_FLAG(RCC_FLAG_HSI14RDY) == RESET)
 204              		.loc 1 356 13 is_stmt 0 view .LVU41
 205 0038 0227     		movs	r7, #2
 347:.././hal//stm32f0/stm32f0_hal_lowlevel.c **** 
 206              		.loc 1 347 7 view .LVU42
 207 003a 0B43     		orrs	r3, r1
 208 003c 6B63     		str	r3, [r5, #52]
 350:.././hal//stm32f0/stm32f0_hal_lowlevel.c **** 
 209              		.loc 1 350 7 is_stmt 1 view .LVU43
 210 003e 6B6B     		ldr	r3, [r5, #52]
 211 0040 1A43     		orrs	r2, r3
 212 0042 6A63     		str	r2, [r5, #52]
 353:.././hal//stm32f0/stm32f0_hal_lowlevel.c ****       
 213              		.loc 1 353 7 view .LVU44
 353:.././hal//stm32f0/stm32f0_hal_lowlevel.c ****       
 214              		.loc 1 353 19 is_stmt 0 view .LVU45
 215 0044 FFF7FEFF 		bl	HAL_GetTick
 216              	.LVL2:
 217 0048 0600     		movs	r6, r0
 218              	.LVL3:
 219              		.loc 1 356 7 is_stmt 1 view .LVU46
 220              	.L64:
 221              		.loc 1 356 51 view .LVU47
 222              		.loc 1 356 13 is_stmt 0 view .LVU48
 223 004a 6B6B     		ldr	r3, [r5, #52]
 224              		.loc 1 356 51 view .LVU49
 225 004c 3B42     		tst	r3, r7
 226 004e 00D1     		bne	.LCB150
 227 0050 33E1     		b	.L65	@long jump
 228              	.LCB150:
 229              	.LVL4:
 230              	.L108:
 357:.././hal//stm32f0/stm32f0_hal_lowlevel.c ****       {
 358:.././hal//stm32f0/stm32f0_hal_lowlevel.c ****         if((HAL_GetTick() - tickstart) > HSI14_TIMEOUT_VALUE)
 359:.././hal//stm32f0/stm32f0_hal_lowlevel.c ****         {
 360:.././hal//stm32f0/stm32f0_hal_lowlevel.c ****           return HAL_TIMEOUT;
 361:.././hal//stm32f0/stm32f0_hal_lowlevel.c ****         }      
 362:.././hal//stm32f0/stm32f0_hal_lowlevel.c ****       } 
 363:.././hal//stm32f0/stm32f0_hal_lowlevel.c **** 
 364:.././hal//stm32f0/stm32f0_hal_lowlevel.c ****       /* Adjusts the Internal High Speed oscillator 14Mhz (HSI14) calibration value. */
 365:.././hal//stm32f0/stm32f0_hal_lowlevel.c ****       __HAL_RCC_HSI14_CALIBRATIONVALUE_ADJUST(RCC_OscInitStruct->HSI14CalibrationValue);
 366:.././hal//stm32f0/stm32f0_hal_lowlevel.c ****     }
 367:.././hal//stm32f0/stm32f0_hal_lowlevel.c ****     else if(RCC_OscInitStruct->HSI14State == RCC_HSI14_ADC_CONTROL)
 368:.././hal//stm32f0/stm32f0_hal_lowlevel.c ****     {
 369:.././hal//stm32f0/stm32f0_hal_lowlevel.c ****       /* Enable ADC control of the Internal High Speed oscillator HSI14 */
 370:.././hal//stm32f0/stm32f0_hal_lowlevel.c ****       __HAL_RCC_HSI14ADC_ENABLE();
 371:.././hal//stm32f0/stm32f0_hal_lowlevel.c **** 
 372:.././hal//stm32f0/stm32f0_hal_lowlevel.c ****       /* Adjusts the Internal High Speed oscillator 14Mhz (HSI14) calibration value. */
 373:.././hal//stm32f0/stm32f0_hal_lowlevel.c ****       __HAL_RCC_HSI14_CALIBRATIONVALUE_ADJUST(RCC_OscInitStruct->HSI14CalibrationValue);
 231              		.loc 1 373 7 is_stmt 1 view .LVU50
 232 0052 F821     		movs	r1, #248
 233 0054 6A6B     		ldr	r2, [r5, #52]
 234 0056 A369     		ldr	r3, [r4, #24]
 235 0058 8A43     		bics	r2, r1
 236 005a DB00     		lsls	r3, r3, #3
 237 005c 1343     		orrs	r3, r2
 238 005e 6B63     		str	r3, [r5, #52]
 239              	.L62:
 374:.././hal//stm32f0/stm32f0_hal_lowlevel.c ****     }
 375:.././hal//stm32f0/stm32f0_hal_lowlevel.c ****     else
 376:.././hal//stm32f0/stm32f0_hal_lowlevel.c ****     {
 377:.././hal//stm32f0/stm32f0_hal_lowlevel.c ****       /* Disable ADC control of the Internal High Speed oscillator HSI14 */
 378:.././hal//stm32f0/stm32f0_hal_lowlevel.c ****       __HAL_RCC_HSI14ADC_DISABLE();
 379:.././hal//stm32f0/stm32f0_hal_lowlevel.c **** 
 380:.././hal//stm32f0/stm32f0_hal_lowlevel.c ****       /* Disable the Internal High Speed oscillator (HSI). */
 381:.././hal//stm32f0/stm32f0_hal_lowlevel.c ****       __HAL_RCC_HSI14_DISABLE();
 382:.././hal//stm32f0/stm32f0_hal_lowlevel.c **** 
 383:.././hal//stm32f0/stm32f0_hal_lowlevel.c ****       /* Get Start Tick */
 384:.././hal//stm32f0/stm32f0_hal_lowlevel.c ****       tickstart = HAL_GetTick();
 385:.././hal//stm32f0/stm32f0_hal_lowlevel.c ****       
 386:.././hal//stm32f0/stm32f0_hal_lowlevel.c ****       /* Wait till HSI is ready */  
 387:.././hal//stm32f0/stm32f0_hal_lowlevel.c ****       while(__HAL_RCC_GET_FLAG(RCC_FLAG_HSI14RDY) != RESET)
 388:.././hal//stm32f0/stm32f0_hal_lowlevel.c ****       {
 389:.././hal//stm32f0/stm32f0_hal_lowlevel.c ****         if((HAL_GetTick() - tickstart) > HSI14_TIMEOUT_VALUE)
 390:.././hal//stm32f0/stm32f0_hal_lowlevel.c ****         {
 391:.././hal//stm32f0/stm32f0_hal_lowlevel.c ****           return HAL_TIMEOUT;
 392:.././hal//stm32f0/stm32f0_hal_lowlevel.c ****         }
 393:.././hal//stm32f0/stm32f0_hal_lowlevel.c ****       }
 394:.././hal//stm32f0/stm32f0_hal_lowlevel.c ****     }
 395:.././hal//stm32f0/stm32f0_hal_lowlevel.c ****   }
 396:.././hal//stm32f0/stm32f0_hal_lowlevel.c **** 
 397:.././hal//stm32f0/stm32f0_hal_lowlevel.c **** #if defined(RCC_HSI48_SUPPORT)
 398:.././hal//stm32f0/stm32f0_hal_lowlevel.c ****   /*----------------------------- HSI48 Configuration --------------------------*/
 399:.././hal//stm32f0/stm32f0_hal_lowlevel.c ****   if(((RCC_OscInitStruct->OscillatorType) & RCC_OSCILLATORTYPE_HSI48) == RCC_OSCILLATORTYPE_HSI48)
 400:.././hal//stm32f0/stm32f0_hal_lowlevel.c ****   {
 401:.././hal//stm32f0/stm32f0_hal_lowlevel.c ****     /* Check the parameters */
 402:.././hal//stm32f0/stm32f0_hal_lowlevel.c ****     assert_param(IS_RCC_HSI48(RCC_OscInitStruct->HSI48State));
 403:.././hal//stm32f0/stm32f0_hal_lowlevel.c **** 
 404:.././hal//stm32f0/stm32f0_hal_lowlevel.c ****     /* When the HSI48 is used as system clock it is not allowed to be disabled */
 405:.././hal//stm32f0/stm32f0_hal_lowlevel.c ****     if((__HAL_RCC_GET_SYSCLK_SOURCE() == RCC_SYSCLKSOURCE_STATUS_HSI48) ||
 406:.././hal//stm32f0/stm32f0_hal_lowlevel.c ****        ((__HAL_RCC_GET_SYSCLK_SOURCE() == RCC_SYSCLKSOURCE_STATUS_PLLCLK) && (__HAL_RCC_GET_PLL_OSC
 407:.././hal//stm32f0/stm32f0_hal_lowlevel.c ****     {
 408:.././hal//stm32f0/stm32f0_hal_lowlevel.c ****       if((__HAL_RCC_GET_FLAG(RCC_FLAG_HSI48RDY) != RESET) && (RCC_OscInitStruct->HSI48State != RCC_
 409:.././hal//stm32f0/stm32f0_hal_lowlevel.c ****       {
 410:.././hal//stm32f0/stm32f0_hal_lowlevel.c ****         return HAL_ERROR;
 411:.././hal//stm32f0/stm32f0_hal_lowlevel.c ****       }
 412:.././hal//stm32f0/stm32f0_hal_lowlevel.c ****     }
 413:.././hal//stm32f0/stm32f0_hal_lowlevel.c ****     else
 414:.././hal//stm32f0/stm32f0_hal_lowlevel.c ****     {
 415:.././hal//stm32f0/stm32f0_hal_lowlevel.c ****       /* Check the HSI48 State */
 416:.././hal//stm32f0/stm32f0_hal_lowlevel.c ****       if(RCC_OscInitStruct->HSI48State != RCC_HSI48_OFF)
 417:.././hal//stm32f0/stm32f0_hal_lowlevel.c ****       {
 418:.././hal//stm32f0/stm32f0_hal_lowlevel.c ****         /* Enable the Internal High Speed oscillator (HSI48). */
 419:.././hal//stm32f0/stm32f0_hal_lowlevel.c ****         __HAL_RCC_HSI48_ENABLE();
 420:.././hal//stm32f0/stm32f0_hal_lowlevel.c **** 
 421:.././hal//stm32f0/stm32f0_hal_lowlevel.c ****         /* Get Start Tick */
 422:.././hal//stm32f0/stm32f0_hal_lowlevel.c ****         tickstart = HAL_GetTick();
 423:.././hal//stm32f0/stm32f0_hal_lowlevel.c ****       
 424:.././hal//stm32f0/stm32f0_hal_lowlevel.c ****         /* Wait till HSI48 is ready */  
 425:.././hal//stm32f0/stm32f0_hal_lowlevel.c ****         while(__HAL_RCC_GET_FLAG(RCC_FLAG_HSI48RDY) == RESET)
 426:.././hal//stm32f0/stm32f0_hal_lowlevel.c ****         {
 427:.././hal//stm32f0/stm32f0_hal_lowlevel.c ****           if((HAL_GetTick() - tickstart) > HSI48_TIMEOUT_VALUE)
 428:.././hal//stm32f0/stm32f0_hal_lowlevel.c ****           {
 429:.././hal//stm32f0/stm32f0_hal_lowlevel.c ****             return HAL_TIMEOUT;
 430:.././hal//stm32f0/stm32f0_hal_lowlevel.c ****           }
 431:.././hal//stm32f0/stm32f0_hal_lowlevel.c ****         } 
 432:.././hal//stm32f0/stm32f0_hal_lowlevel.c ****       }
 433:.././hal//stm32f0/stm32f0_hal_lowlevel.c ****       else
 434:.././hal//stm32f0/stm32f0_hal_lowlevel.c ****       {
 435:.././hal//stm32f0/stm32f0_hal_lowlevel.c ****         /* Disable the Internal High Speed oscillator (HSI48). */
 436:.././hal//stm32f0/stm32f0_hal_lowlevel.c ****         __HAL_RCC_HSI48_DISABLE();
 437:.././hal//stm32f0/stm32f0_hal_lowlevel.c **** 
 438:.././hal//stm32f0/stm32f0_hal_lowlevel.c ****         /* Get Start Tick */
 439:.././hal//stm32f0/stm32f0_hal_lowlevel.c ****         tickstart = HAL_GetTick();
 440:.././hal//stm32f0/stm32f0_hal_lowlevel.c ****       
 441:.././hal//stm32f0/stm32f0_hal_lowlevel.c ****         /* Wait till HSI48 is ready */  
 442:.././hal//stm32f0/stm32f0_hal_lowlevel.c ****         while(__HAL_RCC_GET_FLAG(RCC_FLAG_HSI48RDY) != RESET)
 443:.././hal//stm32f0/stm32f0_hal_lowlevel.c ****         {
 444:.././hal//stm32f0/stm32f0_hal_lowlevel.c ****           if((HAL_GetTick() - tickstart) > HSI48_TIMEOUT_VALUE)
 445:.././hal//stm32f0/stm32f0_hal_lowlevel.c ****           {
 446:.././hal//stm32f0/stm32f0_hal_lowlevel.c ****             return HAL_TIMEOUT;
 447:.././hal//stm32f0/stm32f0_hal_lowlevel.c ****           }
 448:.././hal//stm32f0/stm32f0_hal_lowlevel.c ****         }
 449:.././hal//stm32f0/stm32f0_hal_lowlevel.c ****       }
 450:.././hal//stm32f0/stm32f0_hal_lowlevel.c ****     }
 451:.././hal//stm32f0/stm32f0_hal_lowlevel.c ****   }
 452:.././hal//stm32f0/stm32f0_hal_lowlevel.c **** #endif /* RCC_HSI48_SUPPORT */
 453:.././hal//stm32f0/stm32f0_hal_lowlevel.c ****        
 454:.././hal//stm32f0/stm32f0_hal_lowlevel.c ****   /*-------------------------------- PLL Configuration -----------------------*/
 455:.././hal//stm32f0/stm32f0_hal_lowlevel.c ****   /* Check the parameters */
 456:.././hal//stm32f0/stm32f0_hal_lowlevel.c ****   assert_param(IS_RCC_PLL(RCC_OscInitStruct->PLL.PLLState));
 240              		.loc 1 456 3 view .LVU51
 457:.././hal//stm32f0/stm32f0_hal_lowlevel.c ****   if ((RCC_OscInitStruct->PLL.PLLState) != RCC_PLL_NONE)
 241              		.loc 1 457 3 view .LVU52
 242              		.loc 1 457 30 is_stmt 0 view .LVU53
 243 0060 216A     		ldr	r1, [r4, #32]
 244              		.loc 1 457 6 view .LVU54
 245 0062 0029     		cmp	r1, #0
 246 0064 00D0     		beq	.LCB168
 247 0066 57E1     		b	.L70	@long jump
 248              	.LCB168:
 249              	.LVL5:
 250              	.L76:
 458:.././hal//stm32f0/stm32f0_hal_lowlevel.c ****   {
 459:.././hal//stm32f0/stm32f0_hal_lowlevel.c ****     /* Check if the PLL is used as system clock or not */
 460:.././hal//stm32f0/stm32f0_hal_lowlevel.c ****     if(__HAL_RCC_GET_SYSCLK_SOURCE() != RCC_SYSCLKSOURCE_STATUS_PLLCLK)
 461:.././hal//stm32f0/stm32f0_hal_lowlevel.c ****     { 
 462:.././hal//stm32f0/stm32f0_hal_lowlevel.c ****       if((RCC_OscInitStruct->PLL.PLLState) == RCC_PLL_ON)
 463:.././hal//stm32f0/stm32f0_hal_lowlevel.c ****       {
 464:.././hal//stm32f0/stm32f0_hal_lowlevel.c ****         /* Check the parameters */
 465:.././hal//stm32f0/stm32f0_hal_lowlevel.c ****         assert_param(IS_RCC_PLLSOURCE(RCC_OscInitStruct->PLL.PLLSource));
 466:.././hal//stm32f0/stm32f0_hal_lowlevel.c ****         assert_param(IS_RCC_PLL_MUL(RCC_OscInitStruct->PLL.PLLMUL));
 467:.././hal//stm32f0/stm32f0_hal_lowlevel.c ****         assert_param(IS_RCC_PREDIV(RCC_OscInitStruct->PLL.PREDIV));
 468:.././hal//stm32f0/stm32f0_hal_lowlevel.c ****   
 469:.././hal//stm32f0/stm32f0_hal_lowlevel.c ****         /* Disable the main PLL. */
 470:.././hal//stm32f0/stm32f0_hal_lowlevel.c ****         __HAL_RCC_PLL_DISABLE();
 471:.././hal//stm32f0/stm32f0_hal_lowlevel.c ****         
 472:.././hal//stm32f0/stm32f0_hal_lowlevel.c ****         /* Get Start Tick */
 473:.././hal//stm32f0/stm32f0_hal_lowlevel.c ****         tickstart = HAL_GetTick();
 474:.././hal//stm32f0/stm32f0_hal_lowlevel.c ****         
 475:.././hal//stm32f0/stm32f0_hal_lowlevel.c ****         /* Wait till PLL is disabled */
 476:.././hal//stm32f0/stm32f0_hal_lowlevel.c ****         while(__HAL_RCC_GET_FLAG(RCC_FLAG_PLLRDY)  != RESET)
 477:.././hal//stm32f0/stm32f0_hal_lowlevel.c ****         {
 478:.././hal//stm32f0/stm32f0_hal_lowlevel.c ****           if((HAL_GetTick() - tickstart ) > PLL_TIMEOUT_VALUE)
 479:.././hal//stm32f0/stm32f0_hal_lowlevel.c ****           {
 480:.././hal//stm32f0/stm32f0_hal_lowlevel.c ****             return HAL_TIMEOUT;
 481:.././hal//stm32f0/stm32f0_hal_lowlevel.c ****           }
 482:.././hal//stm32f0/stm32f0_hal_lowlevel.c ****         }
 483:.././hal//stm32f0/stm32f0_hal_lowlevel.c **** 
 484:.././hal//stm32f0/stm32f0_hal_lowlevel.c ****         /* Configure the main PLL clock source, predivider and multiplication factor. */
 485:.././hal//stm32f0/stm32f0_hal_lowlevel.c ****         __HAL_RCC_PLL_CONFIG(RCC_OscInitStruct->PLL.PLLSource,
 486:.././hal//stm32f0/stm32f0_hal_lowlevel.c ****                              RCC_OscInitStruct->PLL.PREDIV,
 487:.././hal//stm32f0/stm32f0_hal_lowlevel.c ****                              RCC_OscInitStruct->PLL.PLLMUL);
 488:.././hal//stm32f0/stm32f0_hal_lowlevel.c ****         /* Enable the main PLL. */
 489:.././hal//stm32f0/stm32f0_hal_lowlevel.c ****         __HAL_RCC_PLL_ENABLE();
 490:.././hal//stm32f0/stm32f0_hal_lowlevel.c ****         
 491:.././hal//stm32f0/stm32f0_hal_lowlevel.c ****         /* Get Start Tick */
 492:.././hal//stm32f0/stm32f0_hal_lowlevel.c ****         tickstart = HAL_GetTick();
 493:.././hal//stm32f0/stm32f0_hal_lowlevel.c ****         
 494:.././hal//stm32f0/stm32f0_hal_lowlevel.c ****         /* Wait till PLL is ready */
 495:.././hal//stm32f0/stm32f0_hal_lowlevel.c ****         while(__HAL_RCC_GET_FLAG(RCC_FLAG_PLLRDY)  == RESET)
 496:.././hal//stm32f0/stm32f0_hal_lowlevel.c ****         {
 497:.././hal//stm32f0/stm32f0_hal_lowlevel.c ****           if((HAL_GetTick() - tickstart ) > PLL_TIMEOUT_VALUE)
 498:.././hal//stm32f0/stm32f0_hal_lowlevel.c ****           {
 499:.././hal//stm32f0/stm32f0_hal_lowlevel.c ****             return HAL_TIMEOUT;
 500:.././hal//stm32f0/stm32f0_hal_lowlevel.c ****           }
 501:.././hal//stm32f0/stm32f0_hal_lowlevel.c ****         }
 502:.././hal//stm32f0/stm32f0_hal_lowlevel.c ****       }
 503:.././hal//stm32f0/stm32f0_hal_lowlevel.c ****       else
 504:.././hal//stm32f0/stm32f0_hal_lowlevel.c ****       {
 505:.././hal//stm32f0/stm32f0_hal_lowlevel.c ****         /* Disable the main PLL. */
 506:.././hal//stm32f0/stm32f0_hal_lowlevel.c ****         __HAL_RCC_PLL_DISABLE();
 507:.././hal//stm32f0/stm32f0_hal_lowlevel.c ****  
 508:.././hal//stm32f0/stm32f0_hal_lowlevel.c ****         /* Get Start Tick */
 509:.././hal//stm32f0/stm32f0_hal_lowlevel.c ****         tickstart = HAL_GetTick();
 510:.././hal//stm32f0/stm32f0_hal_lowlevel.c ****         
 511:.././hal//stm32f0/stm32f0_hal_lowlevel.c ****         /* Wait till PLL is disabled */  
 512:.././hal//stm32f0/stm32f0_hal_lowlevel.c ****         while(__HAL_RCC_GET_FLAG(RCC_FLAG_PLLRDY)  != RESET)
 513:.././hal//stm32f0/stm32f0_hal_lowlevel.c ****         {
 514:.././hal//stm32f0/stm32f0_hal_lowlevel.c ****           if((HAL_GetTick() - tickstart ) > PLL_TIMEOUT_VALUE)
 515:.././hal//stm32f0/stm32f0_hal_lowlevel.c ****           {
 516:.././hal//stm32f0/stm32f0_hal_lowlevel.c ****             return HAL_TIMEOUT;
 517:.././hal//stm32f0/stm32f0_hal_lowlevel.c ****           }
 518:.././hal//stm32f0/stm32f0_hal_lowlevel.c ****         }
 519:.././hal//stm32f0/stm32f0_hal_lowlevel.c ****       }
 520:.././hal//stm32f0/stm32f0_hal_lowlevel.c ****     }
 521:.././hal//stm32f0/stm32f0_hal_lowlevel.c ****     else
 522:.././hal//stm32f0/stm32f0_hal_lowlevel.c ****     {
 523:.././hal//stm32f0/stm32f0_hal_lowlevel.c ****       return HAL_ERROR;
 524:.././hal//stm32f0/stm32f0_hal_lowlevel.c ****     }
 525:.././hal//stm32f0/stm32f0_hal_lowlevel.c ****   }
 526:.././hal//stm32f0/stm32f0_hal_lowlevel.c ****   
 527:.././hal//stm32f0/stm32f0_hal_lowlevel.c ****   return HAL_OK;
 251              		.loc 1 527 10 view .LVU55
 252 0068 0020     		movs	r0, #0
 253 006a 2AE0     		b	.L21
 254              	.LVL6:
 255              	.L8:
 109:.././hal//stm32f0/stm32f0_hal_lowlevel.c **** 
 256              		.loc 1 109 5 is_stmt 1 view .LVU56
 112:.././hal//stm32f0/stm32f0_hal_lowlevel.c ****        || ((__HAL_RCC_GET_SYSCLK_SOURCE() == RCC_SYSCLKSOURCE_STATUS_PLLCLK) && (__HAL_RCC_GET_PLL_
 257              		.loc 1 112 5 view .LVU57
 112:.././hal//stm32f0/stm32f0_hal_lowlevel.c ****        || ((__HAL_RCC_GET_SYSCLK_SOURCE() == RCC_SYSCLKSOURCE_STATUS_PLLCLK) && (__HAL_RCC_GET_PLL_
 258              		.loc 1 112 9 is_stmt 0 view .LVU58
 259 006c 0C22     		movs	r2, #12
 260 006e A44D     		ldr	r5, .L111
 261 0070 6B68     		ldr	r3, [r5, #4]
 262 0072 1340     		ands	r3, r2
 112:.././hal//stm32f0/stm32f0_hal_lowlevel.c ****        || ((__HAL_RCC_GET_SYSCLK_SOURCE() == RCC_SYSCLKSOURCE_STATUS_PLLCLK) && (__HAL_RCC_GET_PLL_
 263              		.loc 1 112 7 view .LVU59
 264 0074 042B     		cmp	r3, #4
 265 0076 06D0     		beq	.L11
 113:.././hal//stm32f0/stm32f0_hal_lowlevel.c ****     {
 266              		.loc 1 113 13 view .LVU60
 267 0078 6B68     		ldr	r3, [r5, #4]
 268 007a 1340     		ands	r3, r2
 113:.././hal//stm32f0/stm32f0_hal_lowlevel.c ****     {
 269              		.loc 1 113 8 view .LVU61
 270 007c 082B     		cmp	r3, #8
 271 007e 0AD1     		bne	.L12
 113:.././hal//stm32f0/stm32f0_hal_lowlevel.c ****     {
 272              		.loc 1 113 82 discriminator 1 view .LVU62
 273 0080 6B68     		ldr	r3, [r5, #4]
 113:.././hal//stm32f0/stm32f0_hal_lowlevel.c ****     {
 274              		.loc 1 113 78 discriminator 1 view .LVU63
 275 0082 DB03     		lsls	r3, r3, #15
 276 0084 07D5     		bpl	.L12
 277              	.L11:
 115:.././hal//stm32f0/stm32f0_hal_lowlevel.c ****       {
 278              		.loc 1 115 7 is_stmt 1 view .LVU64
 115:.././hal//stm32f0/stm32f0_hal_lowlevel.c ****       {
 279              		.loc 1 115 11 is_stmt 0 view .LVU65
 280 0086 2B68     		ldr	r3, [r5]
 115:.././hal//stm32f0/stm32f0_hal_lowlevel.c ****       {
 281              		.loc 1 115 9 view .LVU66
 282 0088 9B03     		lsls	r3, r3, #14
 283 008a BFD5     		bpl	.L13
 115:.././hal//stm32f0/stm32f0_hal_lowlevel.c ****       {
 284              		.loc 1 115 57 discriminator 1 view .LVU67
 285 008c 6368     		ldr	r3, [r4, #4]
 286 008e 002B     		cmp	r3, #0
 287 0090 BCD1     		bne	.L13
 288              	.LVL7:
 289              	.L14:
 117:.././hal//stm32f0/stm32f0_hal_lowlevel.c ****       }
 290              		.loc 1 117 16 view .LVU68
 291 0092 0120     		movs	r0, #1
 292 0094 15E0     		b	.L21
 293              	.LVL8:
 294              	.L12:
 123:.././hal//stm32f0/stm32f0_hal_lowlevel.c ****       
 295              		.loc 1 123 7 is_stmt 1 view .LVU69
 123:.././hal//stm32f0/stm32f0_hal_lowlevel.c ****       
 296              		.loc 1 123 7 view .LVU70
 297 0096 6368     		ldr	r3, [r4, #4]
 298 0098 012B     		cmp	r3, #1
 299 009a 14D1     		bne	.L15
 300              	.L109:
 123:.././hal//stm32f0/stm32f0_hal_lowlevel.c ****       
 301              		.loc 1 123 7 view .LVU71
 123:.././hal//stm32f0/stm32f0_hal_lowlevel.c ****       
 302              		.loc 1 123 7 is_stmt 0 discriminator 7 view .LVU72
 303 009c 8023     		movs	r3, #128
 304 009e 2A68     		ldr	r2, [r5]
 305 00a0 5B02     		lsls	r3, r3, #9
 306 00a2 1343     		orrs	r3, r2
 307              	.L105:
 123:.././hal//stm32f0/stm32f0_hal_lowlevel.c ****       
 308              		.loc 1 123 7 discriminator 8 view .LVU73
 309 00a4 2B60     		str	r3, [r5]
 123:.././hal//stm32f0/stm32f0_hal_lowlevel.c ****       
 310              		.loc 1 123 7 is_stmt 1 discriminator 10 view .LVU74
 127:.././hal//stm32f0/stm32f0_hal_lowlevel.c ****       {
 311              		.loc 1 127 7 view .LVU75
 130:.././hal//stm32f0/stm32f0_hal_lowlevel.c ****         
 312              		.loc 1 130 9 view .LVU76
 130:.././hal//stm32f0/stm32f0_hal_lowlevel.c ****         
 313              		.loc 1 130 21 is_stmt 0 view .LVU77
 314 00a6 FFF7FEFF 		bl	HAL_GetTick
 315              	.LVL9:
 133:.././hal//stm32f0/stm32f0_hal_lowlevel.c ****         {
 316              		.loc 1 133 15 view .LVU78
 317 00aa 8027     		movs	r7, #128
 130:.././hal//stm32f0/stm32f0_hal_lowlevel.c ****         
 318              		.loc 1 130 21 view .LVU79
 319 00ac 0600     		movs	r6, r0
 320              	.LVL10:
 133:.././hal//stm32f0/stm32f0_hal_lowlevel.c ****         {
 321              		.loc 1 133 9 is_stmt 1 view .LVU80
 133:.././hal//stm32f0/stm32f0_hal_lowlevel.c ****         {
 322              		.loc 1 133 15 is_stmt 0 view .LVU81
 323 00ae BF02     		lsls	r7, r7, #10
 324              	.LVL11:
 325              	.L20:
 133:.././hal//stm32f0/stm32f0_hal_lowlevel.c ****         {
 326              		.loc 1 133 51 is_stmt 1 view .LVU82
 133:.././hal//stm32f0/stm32f0_hal_lowlevel.c ****         {
 327              		.loc 1 133 15 is_stmt 0 view .LVU83
 328 00b0 2B68     		ldr	r3, [r5]
 133:.././hal//stm32f0/stm32f0_hal_lowlevel.c ****         {
 329              		.loc 1 133 51 view .LVU84
 330 00b2 3B42     		tst	r3, r7
 331 00b4 AAD1     		bne	.L13
 135:.././hal//stm32f0/stm32f0_hal_lowlevel.c ****           {
 332              		.loc 1 135 11 is_stmt 1 view .LVU85
 135:.././hal//stm32f0/stm32f0_hal_lowlevel.c ****           {
 333              		.loc 1 135 15 is_stmt 0 view .LVU86
 334 00b6 FFF7FEFF 		bl	HAL_GetTick
 335              	.LVL12:
 135:.././hal//stm32f0/stm32f0_hal_lowlevel.c ****           {
 336              		.loc 1 135 29 discriminator 1 view .LVU87
 337 00ba 801B     		subs	r0, r0, r6
 135:.././hal//stm32f0/stm32f0_hal_lowlevel.c ****           {
 338              		.loc 1 135 13 discriminator 1 view .LVU88
 339 00bc 6428     		cmp	r0, #100
 340 00be F7D9     		bls	.L20
 341              	.LVL13:
 342              	.L23:
 137:.././hal//stm32f0/stm32f0_hal_lowlevel.c ****           }
 343              		.loc 1 137 20 view .LVU89
 344 00c0 0320     		movs	r0, #3
 345              	.L21:
 528:.././hal//stm32f0/stm32f0_hal_lowlevel.c **** }
 346              		.loc 1 528 1 view .LVU90
 347 00c2 05B0     		add	sp, sp, #20
 348              		@ sp needed
 349 00c4 F0BD     		pop	{r4, r5, r6, r7, pc}
 350              	.LVL14:
 351              	.L15:
 123:.././hal//stm32f0/stm32f0_hal_lowlevel.c ****       
 352              		.loc 1 123 7 is_stmt 1 discriminator 2 view .LVU91
 353 00c6 002B     		cmp	r3, #0
 354 00c8 16D1     		bne	.L17
 123:.././hal//stm32f0/stm32f0_hal_lowlevel.c ****       
 355              		.loc 1 123 7 discriminator 4 view .LVU92
 356 00ca 2B68     		ldr	r3, [r5]
 357 00cc 8D4A     		ldr	r2, .L111+4
 147:.././hal//stm32f0/stm32f0_hal_lowlevel.c ****         {
 358              		.loc 1 147 15 is_stmt 0 view .LVU93
 359 00ce 8027     		movs	r7, #128
 123:.././hal//stm32f0/stm32f0_hal_lowlevel.c ****       
 360              		.loc 1 123 7 discriminator 4 view .LVU94
 361 00d0 1340     		ands	r3, r2
 362 00d2 2B60     		str	r3, [r5]
 123:.././hal//stm32f0/stm32f0_hal_lowlevel.c ****       
 363              		.loc 1 123 7 is_stmt 1 view .LVU95
 123:.././hal//stm32f0/stm32f0_hal_lowlevel.c ****       
 364              		.loc 1 123 7 is_stmt 0 discriminator 4 view .LVU96
 365 00d4 2B68     		ldr	r3, [r5]
 366 00d6 8C4A     		ldr	r2, .L111+8
 147:.././hal//stm32f0/stm32f0_hal_lowlevel.c ****         {
 367              		.loc 1 147 15 view .LVU97
 368 00d8 BF02     		lsls	r7, r7, #10
 123:.././hal//stm32f0/stm32f0_hal_lowlevel.c ****       
 369              		.loc 1 123 7 discriminator 4 view .LVU98
 370 00da 1340     		ands	r3, r2
 371 00dc 2B60     		str	r3, [r5]
 123:.././hal//stm32f0/stm32f0_hal_lowlevel.c ****       
 372              		.loc 1 123 7 is_stmt 1 discriminator 10 view .LVU99
 127:.././hal//stm32f0/stm32f0_hal_lowlevel.c ****       {
 373              		.loc 1 127 7 view .LVU100
 144:.././hal//stm32f0/stm32f0_hal_lowlevel.c ****         
 374              		.loc 1 144 9 view .LVU101
 144:.././hal//stm32f0/stm32f0_hal_lowlevel.c ****         
 375              		.loc 1 144 21 is_stmt 0 view .LVU102
 376 00de FFF7FEFF 		bl	HAL_GetTick
 377              	.LVL15:
 144:.././hal//stm32f0/stm32f0_hal_lowlevel.c ****         
 378              		.loc 1 144 21 view .LVU103
 379 00e2 0600     		movs	r6, r0
 380              	.LVL16:
 147:.././hal//stm32f0/stm32f0_hal_lowlevel.c ****         {
 381              		.loc 1 147 9 is_stmt 1 view .LVU104
 382              	.L18:
 147:.././hal//stm32f0/stm32f0_hal_lowlevel.c ****         {
 383              		.loc 1 147 51 view .LVU105
 147:.././hal//stm32f0/stm32f0_hal_lowlevel.c ****         {
 384              		.loc 1 147 15 is_stmt 0 view .LVU106
 385 00e4 2B68     		ldr	r3, [r5]
 147:.././hal//stm32f0/stm32f0_hal_lowlevel.c ****         {
 386              		.loc 1 147 51 view .LVU107
 387 00e6 3B42     		tst	r3, r7
 388 00e8 00D1     		bne	.LCB304
 389 00ea 8FE7     		b	.L13	@long jump
 390              	.LCB304:
 149:.././hal//stm32f0/stm32f0_hal_lowlevel.c ****           {
 391              		.loc 1 149 12 is_stmt 1 view .LVU108
 149:.././hal//stm32f0/stm32f0_hal_lowlevel.c ****           {
 392              		.loc 1 149 16 is_stmt 0 view .LVU109
 393 00ec FFF7FEFF 		bl	HAL_GetTick
 394              	.LVL17:
 149:.././hal//stm32f0/stm32f0_hal_lowlevel.c ****           {
 395              		.loc 1 149 30 discriminator 1 view .LVU110
 396 00f0 801B     		subs	r0, r0, r6
 149:.././hal//stm32f0/stm32f0_hal_lowlevel.c ****           {
 397              		.loc 1 149 14 discriminator 1 view .LVU111
 398 00f2 6428     		cmp	r0, #100
 399 00f4 F6D9     		bls	.L18
 400 00f6 E3E7     		b	.L23
 401              	.LVL18:
 402              	.L17:
 123:.././hal//stm32f0/stm32f0_hal_lowlevel.c ****       
 403              		.loc 1 123 7 is_stmt 1 discriminator 5 view .LVU112
 404 00f8 052B     		cmp	r3, #5
 405 00fa 05D1     		bne	.L19
 123:.././hal//stm32f0/stm32f0_hal_lowlevel.c ****       
 406              		.loc 1 123 7 discriminator 7 view .LVU113
 407 00fc 8023     		movs	r3, #128
 408 00fe 2A68     		ldr	r2, [r5]
 409 0100 DB02     		lsls	r3, r3, #11
 410 0102 1343     		orrs	r3, r2
 411 0104 2B60     		str	r3, [r5]
 412 0106 C9E7     		b	.L109
 413              	.L19:
 123:.././hal//stm32f0/stm32f0_hal_lowlevel.c ****       
 414              		.loc 1 123 7 discriminator 8 view .LVU114
 415 0108 2B68     		ldr	r3, [r5]
 416 010a 7E4A     		ldr	r2, .L111+4
 417 010c 1340     		ands	r3, r2
 418 010e 2B60     		str	r3, [r5]
 123:.././hal//stm32f0/stm32f0_hal_lowlevel.c ****       
 419              		.loc 1 123 7 view .LVU115
 123:.././hal//stm32f0/stm32f0_hal_lowlevel.c ****       
 420              		.loc 1 123 7 is_stmt 0 discriminator 8 view .LVU116
 421 0110 2B68     		ldr	r3, [r5]
 422 0112 7D4A     		ldr	r2, .L111+8
 423 0114 1340     		ands	r3, r2
 424 0116 C5E7     		b	.L105
 425              	.LVL19:
 426              	.L9:
 161:.././hal//stm32f0/stm32f0_hal_lowlevel.c ****     assert_param(IS_RCC_CALIBRATION_VALUE(RCC_OscInitStruct->HSICalibrationValue));
 427              		.loc 1 161 5 is_stmt 1 view .LVU117
 162:.././hal//stm32f0/stm32f0_hal_lowlevel.c ****     
 428              		.loc 1 162 5 view .LVU118
 165:.././hal//stm32f0/stm32f0_hal_lowlevel.c ****        || ((__HAL_RCC_GET_SYSCLK_SOURCE() == RCC_SYSCLKSOURCE_STATUS_PLLCLK) && (__HAL_RCC_GET_PLL_
 429              		.loc 1 165 5 view .LVU119
 165:.././hal//stm32f0/stm32f0_hal_lowlevel.c ****        || ((__HAL_RCC_GET_SYSCLK_SOURCE() == RCC_SYSCLKSOURCE_STATUS_PLLCLK) && (__HAL_RCC_GET_PLL_
 430              		.loc 1 165 9 is_stmt 0 view .LVU120
 431 0118 0C22     		movs	r2, #12
 432 011a 794D     		ldr	r5, .L111
 433 011c 6B68     		ldr	r3, [r5, #4]
 165:.././hal//stm32f0/stm32f0_hal_lowlevel.c ****        || ((__HAL_RCC_GET_SYSCLK_SOURCE() == RCC_SYSCLKSOURCE_STATUS_PLLCLK) && (__HAL_RCC_GET_PLL_
 434              		.loc 1 165 7 view .LVU121
 435 011e 1342     		tst	r3, r2
 436 0120 06D0     		beq	.L26
 166:.././hal//stm32f0/stm32f0_hal_lowlevel.c ****     {
 437              		.loc 1 166 13 view .LVU122
 438 0122 6B68     		ldr	r3, [r5, #4]
 439 0124 1340     		ands	r3, r2
 166:.././hal//stm32f0/stm32f0_hal_lowlevel.c ****     {
 440              		.loc 1 166 8 view .LVU123
 441 0126 082B     		cmp	r3, #8
 442 0128 10D1     		bne	.L27
 166:.././hal//stm32f0/stm32f0_hal_lowlevel.c ****     {
 443              		.loc 1 166 82 discriminator 1 view .LVU124
 444 012a 6B68     		ldr	r3, [r5, #4]
 166:.././hal//stm32f0/stm32f0_hal_lowlevel.c ****     {
 445              		.loc 1 166 78 discriminator 1 view .LVU125
 446 012c DB03     		lsls	r3, r3, #15
 447 012e 0DD4     		bmi	.L27
 448              	.L26:
 169:.././hal//stm32f0/stm32f0_hal_lowlevel.c ****       {
 449              		.loc 1 169 7 is_stmt 1 view .LVU126
 169:.././hal//stm32f0/stm32f0_hal_lowlevel.c ****       {
 450              		.loc 1 169 11 is_stmt 0 view .LVU127
 451 0130 2B68     		ldr	r3, [r5]
 169:.././hal//stm32f0/stm32f0_hal_lowlevel.c ****       {
 452              		.loc 1 169 9 view .LVU128
 453 0132 9B07     		lsls	r3, r3, #30
 454 0134 02D5     		bpl	.L106
 169:.././hal//stm32f0/stm32f0_hal_lowlevel.c ****       {
 455              		.loc 1 169 57 discriminator 1 view .LVU129
 456 0136 E368     		ldr	r3, [r4, #12]
 457 0138 012B     		cmp	r3, #1
 458 013a AAD1     		bne	.L14
 459              	.L106:
 201:.././hal//stm32f0/stm32f0_hal_lowlevel.c ****       }
 460              		.loc 1 201 9 is_stmt 1 view .LVU130
 461 013c F821     		movs	r1, #248
 462 013e 2A68     		ldr	r2, [r5]
 463 0140 2369     		ldr	r3, [r4, #16]
 464 0142 8A43     		bics	r2, r1
 465 0144 DB00     		lsls	r3, r3, #3
 466 0146 1343     		orrs	r3, r2
 467 0148 2B60     		str	r3, [r5]
 468 014a 63E7     		b	.L25
 469              	.L27:
 183:.././hal//stm32f0/stm32f0_hal_lowlevel.c ****       {
 470              		.loc 1 183 7 view .LVU131
 183:.././hal//stm32f0/stm32f0_hal_lowlevel.c ****       {
 471              		.loc 1 183 9 is_stmt 0 view .LVU132
 472 014c E268     		ldr	r2, [r4, #12]
 473 014e 0123     		movs	r3, #1
 474 0150 002A     		cmp	r2, #0
 475 0152 0FD0     		beq	.L30
 186:.././hal//stm32f0/stm32f0_hal_lowlevel.c ****         
 476              		.loc 1 186 9 is_stmt 1 view .LVU133
 477 0154 2A68     		ldr	r2, [r5]
 192:.././hal//stm32f0/stm32f0_hal_lowlevel.c ****         {
 478              		.loc 1 192 15 is_stmt 0 view .LVU134
 479 0156 0227     		movs	r7, #2
 186:.././hal//stm32f0/stm32f0_hal_lowlevel.c ****         
 480              		.loc 1 186 9 view .LVU135
 481 0158 1343     		orrs	r3, r2
 482 015a 2B60     		str	r3, [r5]
 189:.././hal//stm32f0/stm32f0_hal_lowlevel.c ****         
 483              		.loc 1 189 9 is_stmt 1 view .LVU136
 189:.././hal//stm32f0/stm32f0_hal_lowlevel.c ****         
 484              		.loc 1 189 21 is_stmt 0 view .LVU137
 485 015c FFF7FEFF 		bl	HAL_GetTick
 486              	.LVL20:
 487 0160 0600     		movs	r6, r0
 488              	.LVL21:
 192:.././hal//stm32f0/stm32f0_hal_lowlevel.c ****         {
 489              		.loc 1 192 9 is_stmt 1 view .LVU138
 490              	.L31:
 192:.././hal//stm32f0/stm32f0_hal_lowlevel.c ****         {
 491              		.loc 1 192 51 view .LVU139
 192:.././hal//stm32f0/stm32f0_hal_lowlevel.c ****         {
 492              		.loc 1 192 15 is_stmt 0 view .LVU140
 493 0162 2B68     		ldr	r3, [r5]
 192:.././hal//stm32f0/stm32f0_hal_lowlevel.c ****         {
 494              		.loc 1 192 51 view .LVU141
 495 0164 3B42     		tst	r3, r7
 496 0166 E9D1     		bne	.L106
 194:.././hal//stm32f0/stm32f0_hal_lowlevel.c ****           {
 497              		.loc 1 194 11 is_stmt 1 view .LVU142
 194:.././hal//stm32f0/stm32f0_hal_lowlevel.c ****           {
 498              		.loc 1 194 15 is_stmt 0 view .LVU143
 499 0168 FFF7FEFF 		bl	HAL_GetTick
 500              	.LVL22:
 194:.././hal//stm32f0/stm32f0_hal_lowlevel.c ****           {
 501              		.loc 1 194 29 discriminator 1 view .LVU144
 502 016c 801B     		subs	r0, r0, r6
 194:.././hal//stm32f0/stm32f0_hal_lowlevel.c ****           {
 503              		.loc 1 194 13 discriminator 1 view .LVU145
 504 016e 0228     		cmp	r0, #2
 505 0170 F7D9     		bls	.L31
 506 0172 A5E7     		b	.L23
 507              	.LVL23:
 508              	.L30:
 206:.././hal//stm32f0/stm32f0_hal_lowlevel.c ****         
 509              		.loc 1 206 9 is_stmt 1 view .LVU146
 510 0174 2A68     		ldr	r2, [r5]
 212:.././hal//stm32f0/stm32f0_hal_lowlevel.c ****         {
 511              		.loc 1 212 15 is_stmt 0 view .LVU147
 512 0176 0227     		movs	r7, #2
 206:.././hal//stm32f0/stm32f0_hal_lowlevel.c ****         
 513              		.loc 1 206 9 view .LVU148
 514 0178 9A43     		bics	r2, r3
 515 017a 2A60     		str	r2, [r5]
 209:.././hal//stm32f0/stm32f0_hal_lowlevel.c ****         
 516              		.loc 1 209 9 is_stmt 1 view .LVU149
 209:.././hal//stm32f0/stm32f0_hal_lowlevel.c ****         
 517              		.loc 1 209 21 is_stmt 0 view .LVU150
 518 017c FFF7FEFF 		bl	HAL_GetTick
 519              	.LVL24:
 520 0180 0600     		movs	r6, r0
 521              	.LVL25:
 212:.././hal//stm32f0/stm32f0_hal_lowlevel.c ****         {
 522              		.loc 1 212 9 is_stmt 1 view .LVU151
 523              	.L33:
 212:.././hal//stm32f0/stm32f0_hal_lowlevel.c ****         {
 524              		.loc 1 212 51 view .LVU152
 212:.././hal//stm32f0/stm32f0_hal_lowlevel.c ****         {
 525              		.loc 1 212 15 is_stmt 0 view .LVU153
 526 0182 2B68     		ldr	r3, [r5]
 212:.././hal//stm32f0/stm32f0_hal_lowlevel.c ****         {
 527              		.loc 1 212 51 view .LVU154
 528 0184 3B42     		tst	r3, r7
 529 0186 00D1     		bne	.LCB439
 530 0188 44E7     		b	.L25	@long jump
 531              	.LCB439:
 214:.././hal//stm32f0/stm32f0_hal_lowlevel.c ****           {
 532              		.loc 1 214 11 is_stmt 1 view .LVU155
 214:.././hal//stm32f0/stm32f0_hal_lowlevel.c ****           {
 533              		.loc 1 214 15 is_stmt 0 view .LVU156
 534 018a FFF7FEFF 		bl	HAL_GetTick
 535              	.LVL26:
 214:.././hal//stm32f0/stm32f0_hal_lowlevel.c ****           {
 536              		.loc 1 214 29 discriminator 1 view .LVU157
 537 018e 801B     		subs	r0, r0, r6
 214:.././hal//stm32f0/stm32f0_hal_lowlevel.c ****           {
 538              		.loc 1 214 13 discriminator 1 view .LVU158
 539 0190 0228     		cmp	r0, #2
 540 0192 F6D9     		bls	.L33
 541 0194 94E7     		b	.L23
 542              	.LVL27:
 543              	.L35:
 226:.././hal//stm32f0/stm32f0_hal_lowlevel.c ****     
 544              		.loc 1 226 5 is_stmt 1 view .LVU159
 229:.././hal//stm32f0/stm32f0_hal_lowlevel.c ****     {
 545              		.loc 1 229 5 view .LVU160
 229:.././hal//stm32f0/stm32f0_hal_lowlevel.c ****     {
 546              		.loc 1 229 7 is_stmt 0 view .LVU161
 547 0196 E269     		ldr	r2, [r4, #28]
 548 0198 0123     		movs	r3, #1
 549 019a 594D     		ldr	r5, .L111
 550 019c 002A     		cmp	r2, #0
 551 019e 10D0     		beq	.L38
 232:.././hal//stm32f0/stm32f0_hal_lowlevel.c ****       
 552              		.loc 1 232 7 is_stmt 1 view .LVU162
 553 01a0 6A6A     		ldr	r2, [r5, #36]
 238:.././hal//stm32f0/stm32f0_hal_lowlevel.c ****       {
 554              		.loc 1 238 13 is_stmt 0 view .LVU163
 555 01a2 0227     		movs	r7, #2
 232:.././hal//stm32f0/stm32f0_hal_lowlevel.c ****       
 556              		.loc 1 232 7 view .LVU164
 557 01a4 1343     		orrs	r3, r2
 558 01a6 6B62     		str	r3, [r5, #36]
 235:.././hal//stm32f0/stm32f0_hal_lowlevel.c ****       
 559              		.loc 1 235 7 is_stmt 1 view .LVU165
 235:.././hal//stm32f0/stm32f0_hal_lowlevel.c ****       
 560              		.loc 1 235 19 is_stmt 0 view .LVU166
 561 01a8 FFF7FEFF 		bl	HAL_GetTick
 562              	.LVL28:
 563 01ac 0600     		movs	r6, r0
 564              	.LVL29:
 238:.././hal//stm32f0/stm32f0_hal_lowlevel.c ****       {
 565              		.loc 1 238 7 is_stmt 1 view .LVU167
 566              	.L39:
 238:.././hal//stm32f0/stm32f0_hal_lowlevel.c ****       {
 567              		.loc 1 238 49 view .LVU168
 238:.././hal//stm32f0/stm32f0_hal_lowlevel.c ****       {
 568              		.loc 1 238 13 is_stmt 0 view .LVU169
 569 01ae 6B6A     		ldr	r3, [r5, #36]
 238:.././hal//stm32f0/stm32f0_hal_lowlevel.c ****       {
 570              		.loc 1 238 49 view .LVU170
 571 01b0 3B42     		tst	r3, r7
 572 01b2 00D0     		beq	.LCB476
 573 01b4 32E7     		b	.L41	@long jump
 574              	.LCB476:
 240:.././hal//stm32f0/stm32f0_hal_lowlevel.c ****         {
 575              		.loc 1 240 9 is_stmt 1 view .LVU171
 240:.././hal//stm32f0/stm32f0_hal_lowlevel.c ****         {
 576              		.loc 1 240 13 is_stmt 0 view .LVU172
 577 01b6 FFF7FEFF 		bl	HAL_GetTick
 578              	.LVL30:
 240:.././hal//stm32f0/stm32f0_hal_lowlevel.c ****         {
 579              		.loc 1 240 27 discriminator 1 view .LVU173
 580 01ba 801B     		subs	r0, r0, r6
 240:.././hal//stm32f0/stm32f0_hal_lowlevel.c ****         {
 581              		.loc 1 240 11 discriminator 1 view .LVU174
 582 01bc 0228     		cmp	r0, #2
 583 01be F6D9     		bls	.L39
 584 01c0 7EE7     		b	.L23
 585              	.LVL31:
 586              	.L38:
 249:.././hal//stm32f0/stm32f0_hal_lowlevel.c ****       
 587              		.loc 1 249 7 is_stmt 1 view .LVU175
 588 01c2 6A6A     		ldr	r2, [r5, #36]
 255:.././hal//stm32f0/stm32f0_hal_lowlevel.c ****       {
 589              		.loc 1 255 13 is_stmt 0 view .LVU176
 590 01c4 0227     		movs	r7, #2
 249:.././hal//stm32f0/stm32f0_hal_lowlevel.c ****       
 591              		.loc 1 249 7 view .LVU177
 592 01c6 9A43     		bics	r2, r3
 593 01c8 6A62     		str	r2, [r5, #36]
 252:.././hal//stm32f0/stm32f0_hal_lowlevel.c ****       
 594              		.loc 1 252 7 is_stmt 1 view .LVU178
 252:.././hal//stm32f0/stm32f0_hal_lowlevel.c ****       
 595              		.loc 1 252 19 is_stmt 0 view .LVU179
 596 01ca FFF7FEFF 		bl	HAL_GetTick
 597              	.LVL32:
 598 01ce 0600     		movs	r6, r0
 599              	.LVL33:
 255:.././hal//stm32f0/stm32f0_hal_lowlevel.c ****       {
 600              		.loc 1 255 7 is_stmt 1 view .LVU180
 601              	.L42:
 255:.././hal//stm32f0/stm32f0_hal_lowlevel.c ****       {
 602              		.loc 1 255 49 view .LVU181
 255:.././hal//stm32f0/stm32f0_hal_lowlevel.c ****       {
 603              		.loc 1 255 13 is_stmt 0 view .LVU182
 604 01d0 6B6A     		ldr	r3, [r5, #36]
 255:.././hal//stm32f0/stm32f0_hal_lowlevel.c ****       {
 605              		.loc 1 255 49 view .LVU183
 606 01d2 3B42     		tst	r3, r7
 607 01d4 00D1     		bne	.LCB505
 608 01d6 21E7     		b	.L41	@long jump
 609              	.LCB505:
 257:.././hal//stm32f0/stm32f0_hal_lowlevel.c ****         {
 610              		.loc 1 257 9 is_stmt 1 view .LVU184
 257:.././hal//stm32f0/stm32f0_hal_lowlevel.c ****         {
 611              		.loc 1 257 13 is_stmt 0 view .LVU185
 612 01d8 FFF7FEFF 		bl	HAL_GetTick
 613              	.LVL34:
 257:.././hal//stm32f0/stm32f0_hal_lowlevel.c ****         {
 614              		.loc 1 257 27 discriminator 1 view .LVU186
 615 01dc 801B     		subs	r0, r0, r6
 257:.././hal//stm32f0/stm32f0_hal_lowlevel.c ****         {
 616              		.loc 1 257 11 discriminator 1 view .LVU187
 617 01de 0228     		cmp	r0, #2
 618 01e0 F6D9     		bls	.L42
 619 01e2 6DE7     		b	.L23
 620              	.LVL35:
 621              	.L36:
 622              	.LBB12:
 267:.././hal//stm32f0/stm32f0_hal_lowlevel.c ****     
 623              		.loc 1 267 5 is_stmt 1 view .LVU188
 270:.././hal//stm32f0/stm32f0_hal_lowlevel.c **** 
 624              		.loc 1 270 5 view .LVU189
 274:.././hal//stm32f0/stm32f0_hal_lowlevel.c ****     {
 625              		.loc 1 274 5 view .LVU190
 274:.././hal//stm32f0/stm32f0_hal_lowlevel.c ****     {
 626              		.loc 1 274 8 is_stmt 0 view .LVU191
 627 01e4 8022     		movs	r2, #128
 267:.././hal//stm32f0/stm32f0_hal_lowlevel.c ****     
 628              		.loc 1 267 22 view .LVU192
 629 01e6 0021     		movs	r1, #0
 274:.././hal//stm32f0/stm32f0_hal_lowlevel.c ****     {
 630              		.loc 1 274 8 view .LVU193
 631 01e8 454D     		ldr	r5, .L111
 632 01ea 5205     		lsls	r2, r2, #21
 633 01ec EB69     		ldr	r3, [r5, #28]
 267:.././hal//stm32f0/stm32f0_hal_lowlevel.c ****     
 634              		.loc 1 267 22 view .LVU194
 635 01ee 0091     		str	r1, [sp]
 274:.././hal//stm32f0/stm32f0_hal_lowlevel.c ****     {
 636              		.loc 1 274 7 view .LVU195
 637 01f0 1342     		tst	r3, r2
 638 01f2 08D1     		bne	.L45
 276:.././hal//stm32f0/stm32f0_hal_lowlevel.c ****       pwrclkchanged = SET;
 639              		.loc 1 276 7 is_stmt 1 view .LVU196
 640              	.LBB13:
 276:.././hal//stm32f0/stm32f0_hal_lowlevel.c ****       pwrclkchanged = SET;
 641              		.loc 1 276 7 view .LVU197
 276:.././hal//stm32f0/stm32f0_hal_lowlevel.c ****       pwrclkchanged = SET;
 642              		.loc 1 276 7 view .LVU198
 643 01f4 EB69     		ldr	r3, [r5, #28]
 644 01f6 1343     		orrs	r3, r2
 645 01f8 EB61     		str	r3, [r5, #28]
 276:.././hal//stm32f0/stm32f0_hal_lowlevel.c ****       pwrclkchanged = SET;
 646              		.loc 1 276 7 view .LVU199
 647 01fa EB69     		ldr	r3, [r5, #28]
 648 01fc 1340     		ands	r3, r2
 649 01fe 0393     		str	r3, [sp, #12]
 276:.././hal//stm32f0/stm32f0_hal_lowlevel.c ****       pwrclkchanged = SET;
 650              		.loc 1 276 7 view .LVU200
 651 0200 039B     		ldr	r3, [sp, #12]
 652              	.LBE13:
 276:.././hal//stm32f0/stm32f0_hal_lowlevel.c ****       pwrclkchanged = SET;
 653              		.loc 1 276 7 view .LVU201
 277:.././hal//stm32f0/stm32f0_hal_lowlevel.c ****     }
 654              		.loc 1 277 7 view .LVU202
 655              	.LVL36:
 277:.././hal//stm32f0/stm32f0_hal_lowlevel.c ****     }
 656              		.loc 1 277 21 is_stmt 0 view .LVU203
 657 0202 0123     		movs	r3, #1
 658 0204 0093     		str	r3, [sp]
 659              	.LVL37:
 660              	.L45:
 280:.././hal//stm32f0/stm32f0_hal_lowlevel.c ****     {
 661              		.loc 1 280 5 is_stmt 1 view .LVU204
 280:.././hal//stm32f0/stm32f0_hal_lowlevel.c ****     {
 662              		.loc 1 280 8 is_stmt 0 view .LVU205
 663 0206 8027     		movs	r7, #128
 664 0208 404E     		ldr	r6, .L111+12
 665 020a 7F00     		lsls	r7, r7, #1
 666 020c 3368     		ldr	r3, [r6]
 280:.././hal//stm32f0/stm32f0_hal_lowlevel.c ****     {
 667              		.loc 1 280 7 view .LVU206
 668 020e 3B42     		tst	r3, r7
 669 0210 15D0     		beq	.L46
 670              	.L51:
 298:.././hal//stm32f0/stm32f0_hal_lowlevel.c ****     /* Check the LSE State */
 671              		.loc 1 298 5 is_stmt 1 view .LVU207
 298:.././hal//stm32f0/stm32f0_hal_lowlevel.c ****     /* Check the LSE State */
 672              		.loc 1 298 5 view .LVU208
 673 0212 A368     		ldr	r3, [r4, #8]
 674 0214 012B     		cmp	r3, #1
 675 0216 22D1     		bne	.L99
 298:.././hal//stm32f0/stm32f0_hal_lowlevel.c ****     /* Check the LSE State */
 676              		.loc 1 298 5 discriminator 1 view .LVU209
 677 0218 2A6A     		ldr	r2, [r5, #32]
 678              	.L110:
 298:.././hal//stm32f0/stm32f0_hal_lowlevel.c ****     /* Check the LSE State */
 679              		.loc 1 298 5 is_stmt 0 discriminator 7 view .LVU210
 680 021a 1343     		orrs	r3, r2
 681              	.L107:
 298:.././hal//stm32f0/stm32f0_hal_lowlevel.c ****     /* Check the LSE State */
 682              		.loc 1 298 5 discriminator 8 view .LVU211
 683 021c 2B62     		str	r3, [r5, #32]
 298:.././hal//stm32f0/stm32f0_hal_lowlevel.c ****     /* Check the LSE State */
 684              		.loc 1 298 5 is_stmt 1 discriminator 10 view .LVU212
 300:.././hal//stm32f0/stm32f0_hal_lowlevel.c ****     {
 685              		.loc 1 300 5 view .LVU213
 303:.././hal//stm32f0/stm32f0_hal_lowlevel.c ****       
 686              		.loc 1 303 7 view .LVU214
 303:.././hal//stm32f0/stm32f0_hal_lowlevel.c ****       
 687              		.loc 1 303 19 is_stmt 0 view .LVU215
 688 021e FFF7FEFF 		bl	HAL_GetTick
 689              	.LVL38:
 306:.././hal//stm32f0/stm32f0_hal_lowlevel.c ****       {
 690              		.loc 1 306 13 view .LVU216
 691 0222 0227     		movs	r7, #2
 303:.././hal//stm32f0/stm32f0_hal_lowlevel.c ****       
 692              		.loc 1 303 19 view .LVU217
 693 0224 0600     		movs	r6, r0
 694              	.LVL39:
 306:.././hal//stm32f0/stm32f0_hal_lowlevel.c ****       {
 695              		.loc 1 306 7 is_stmt 1 view .LVU218
 696              	.L56:
 306:.././hal//stm32f0/stm32f0_hal_lowlevel.c ****       {
 697              		.loc 1 306 49 view .LVU219
 306:.././hal//stm32f0/stm32f0_hal_lowlevel.c ****       {
 698              		.loc 1 306 13 is_stmt 0 view .LVU220
 699 0226 2B6A     		ldr	r3, [r5, #32]
 306:.././hal//stm32f0/stm32f0_hal_lowlevel.c ****       {
 700              		.loc 1 306 49 view .LVU221
 701 0228 3B42     		tst	r3, r7
 702 022a 3FD0     		beq	.L57
 703              	.L60:
 330:.././hal//stm32f0/stm32f0_hal_lowlevel.c ****     {
 704              		.loc 1 330 5 is_stmt 1 view .LVU222
 330:.././hal//stm32f0/stm32f0_hal_lowlevel.c ****     {
 705              		.loc 1 330 7 is_stmt 0 view .LVU223
 706 022c 009B     		ldr	r3, [sp]
 707 022e 012B     		cmp	r3, #1
 708 0230 00D0     		beq	.LCB598
 709 0232 F7E6     		b	.L44	@long jump
 710              	.LCB598:
 332:.././hal//stm32f0/stm32f0_hal_lowlevel.c ****     }
 711              		.loc 1 332 7 is_stmt 1 view .LVU224
 712 0234 EB69     		ldr	r3, [r5, #28]
 713 0236 364A     		ldr	r2, .L111+16
 714 0238 1340     		ands	r3, r2
 715 023a EB61     		str	r3, [r5, #28]
 716 023c F2E6     		b	.L44
 717              	.LVL40:
 718              	.L46:
 283:.././hal//stm32f0/stm32f0_hal_lowlevel.c ****       
 719              		.loc 1 283 7 view .LVU225
 720 023e 3368     		ldr	r3, [r6]
 721 0240 3B43     		orrs	r3, r7
 722 0242 3360     		str	r3, [r6]
 286:.././hal//stm32f0/stm32f0_hal_lowlevel.c **** 
 723              		.loc 1 286 7 view .LVU226
 286:.././hal//stm32f0/stm32f0_hal_lowlevel.c **** 
 724              		.loc 1 286 19 is_stmt 0 view .LVU227
 725 0244 FFF7FEFF 		bl	HAL_GetTick
 726              	.LVL41:
 727 0248 0190     		str	r0, [sp, #4]
 728              	.LVL42:
 288:.././hal//stm32f0/stm32f0_hal_lowlevel.c ****       {
 729              		.loc 1 288 7 is_stmt 1 view .LVU228
 730              	.L49:
 288:.././hal//stm32f0/stm32f0_hal_lowlevel.c ****       {
 731              		.loc 1 288 13 view .LVU229
 732 024a 3368     		ldr	r3, [r6]
 733 024c 3B42     		tst	r3, r7
 734 024e E0D1     		bne	.L51
 290:.././hal//stm32f0/stm32f0_hal_lowlevel.c ****         {
 735              		.loc 1 290 9 view .LVU230
 290:.././hal//stm32f0/stm32f0_hal_lowlevel.c ****         {
 736              		.loc 1 290 13 is_stmt 0 view .LVU231
 737 0250 FFF7FEFF 		bl	HAL_GetTick
 738              	.LVL43:
 290:.././hal//stm32f0/stm32f0_hal_lowlevel.c ****         {
 739              		.loc 1 290 27 discriminator 1 view .LVU232
 740 0254 019B     		ldr	r3, [sp, #4]
 741 0256 C01A     		subs	r0, r0, r3
 290:.././hal//stm32f0/stm32f0_hal_lowlevel.c ****         {
 742              		.loc 1 290 11 discriminator 1 view .LVU233
 743 0258 6428     		cmp	r0, #100
 744 025a F6D9     		bls	.L49
 745 025c 30E7     		b	.L23
 746              	.LVL44:
 747              	.L99:
 298:.././hal//stm32f0/stm32f0_hal_lowlevel.c ****     /* Check the LSE State */
 748              		.loc 1 298 5 is_stmt 1 discriminator 2 view .LVU234
 749 025e 0122     		movs	r2, #1
 750 0260 002B     		cmp	r3, #0
 751 0262 14D1     		bne	.L53
 298:.././hal//stm32f0/stm32f0_hal_lowlevel.c ****     /* Check the LSE State */
 752              		.loc 1 298 5 discriminator 4 view .LVU235
 753 0264 2B6A     		ldr	r3, [r5, #32]
 320:.././hal//stm32f0/stm32f0_hal_lowlevel.c ****       {
 754              		.loc 1 320 13 is_stmt 0 view .LVU236
 755 0266 0227     		movs	r7, #2
 298:.././hal//stm32f0/stm32f0_hal_lowlevel.c ****     /* Check the LSE State */
 756              		.loc 1 298 5 discriminator 4 view .LVU237
 757 0268 9343     		bics	r3, r2
 758 026a 2B62     		str	r3, [r5, #32]
 298:.././hal//stm32f0/stm32f0_hal_lowlevel.c ****     /* Check the LSE State */
 759              		.loc 1 298 5 is_stmt 1 view .LVU238
 298:.././hal//stm32f0/stm32f0_hal_lowlevel.c ****     /* Check the LSE State */
 760              		.loc 1 298 5 is_stmt 0 discriminator 4 view .LVU239
 761 026c 2B6A     		ldr	r3, [r5, #32]
 762 026e 0332     		adds	r2, r2, #3
 763 0270 9343     		bics	r3, r2
 764 0272 2B62     		str	r3, [r5, #32]
 298:.././hal//stm32f0/stm32f0_hal_lowlevel.c ****     /* Check the LSE State */
 765              		.loc 1 298 5 is_stmt 1 discriminator 10 view .LVU240
 300:.././hal//stm32f0/stm32f0_hal_lowlevel.c ****     {
 766              		.loc 1 300 5 view .LVU241
 317:.././hal//stm32f0/stm32f0_hal_lowlevel.c ****       
 767              		.loc 1 317 7 view .LVU242
 317:.././hal//stm32f0/stm32f0_hal_lowlevel.c ****       
 768              		.loc 1 317 19 is_stmt 0 view .LVU243
 769 0274 FFF7FEFF 		bl	HAL_GetTick
 770              	.LVL45:
 771 0278 0600     		movs	r6, r0
 772              	.LVL46:
 320:.././hal//stm32f0/stm32f0_hal_lowlevel.c ****       {
 773              		.loc 1 320 7 is_stmt 1 view .LVU244
 774              	.L54:
 320:.././hal//stm32f0/stm32f0_hal_lowlevel.c ****       {
 775              		.loc 1 320 49 view .LVU245
 320:.././hal//stm32f0/stm32f0_hal_lowlevel.c ****       {
 776              		.loc 1 320 13 is_stmt 0 view .LVU246
 777 027a 2B6A     		ldr	r3, [r5, #32]
 320:.././hal//stm32f0/stm32f0_hal_lowlevel.c ****       {
 778              		.loc 1 320 49 view .LVU247
 779 027c 3B42     		tst	r3, r7
 780 027e D5D0     		beq	.L60
 322:.././hal//stm32f0/stm32f0_hal_lowlevel.c ****         {
 781              		.loc 1 322 9 is_stmt 1 view .LVU248
 322:.././hal//stm32f0/stm32f0_hal_lowlevel.c ****         {
 782              		.loc 1 322 13 is_stmt 0 view .LVU249
 783 0280 FFF7FEFF 		bl	HAL_GetTick
 784              	.LVL47:
 322:.././hal//stm32f0/stm32f0_hal_lowlevel.c ****         {
 785              		.loc 1 322 11 discriminator 1 view .LVU250
 786 0284 234B     		ldr	r3, .L111+20
 322:.././hal//stm32f0/stm32f0_hal_lowlevel.c ****         {
 787              		.loc 1 322 27 discriminator 1 view .LVU251
 788 0286 801B     		subs	r0, r0, r6
 322:.././hal//stm32f0/stm32f0_hal_lowlevel.c ****         {
 789              		.loc 1 322 11 discriminator 1 view .LVU252
 790 0288 9842     		cmp	r0, r3
 791 028a F6D9     		bls	.L54
 792 028c 18E7     		b	.L23
 793              	.LVL48:
 794              	.L53:
 298:.././hal//stm32f0/stm32f0_hal_lowlevel.c ****     /* Check the LSE State */
 795              		.loc 1 298 5 is_stmt 1 discriminator 5 view .LVU253
 796 028e 052B     		cmp	r3, #5
 797 0290 05D1     		bne	.L55
 298:.././hal//stm32f0/stm32f0_hal_lowlevel.c ****     /* Check the LSE State */
 798              		.loc 1 298 5 discriminator 7 view .LVU254
 799 0292 296A     		ldr	r1, [r5, #32]
 800 0294 013B     		subs	r3, r3, #1
 801 0296 0B43     		orrs	r3, r1
 802 0298 2B62     		str	r3, [r5, #32]
 298:.././hal//stm32f0/stm32f0_hal_lowlevel.c ****     /* Check the LSE State */
 803              		.loc 1 298 5 view .LVU255
 298:.././hal//stm32f0/stm32f0_hal_lowlevel.c ****     /* Check the LSE State */
 804              		.loc 1 298 5 is_stmt 0 discriminator 7 view .LVU256
 805 029a 2B6A     		ldr	r3, [r5, #32]
 806 029c BDE7     		b	.L110
 807              	.L55:
 298:.././hal//stm32f0/stm32f0_hal_lowlevel.c ****     /* Check the LSE State */
 808              		.loc 1 298 5 is_stmt 1 discriminator 8 view .LVU257
 809 029e 2B6A     		ldr	r3, [r5, #32]
 810 02a0 9343     		bics	r3, r2
 811 02a2 0422     		movs	r2, #4
 812 02a4 2B62     		str	r3, [r5, #32]
 298:.././hal//stm32f0/stm32f0_hal_lowlevel.c ****     /* Check the LSE State */
 813              		.loc 1 298 5 view .LVU258
 298:.././hal//stm32f0/stm32f0_hal_lowlevel.c ****     /* Check the LSE State */
 814              		.loc 1 298 5 is_stmt 0 discriminator 8 view .LVU259
 815 02a6 2B6A     		ldr	r3, [r5, #32]
 816 02a8 9343     		bics	r3, r2
 817 02aa B7E7     		b	.L107
 818              	.LVL49:
 819              	.L57:
 308:.././hal//stm32f0/stm32f0_hal_lowlevel.c ****         {
 820              		.loc 1 308 9 is_stmt 1 view .LVU260
 308:.././hal//stm32f0/stm32f0_hal_lowlevel.c ****         {
 821              		.loc 1 308 13 is_stmt 0 view .LVU261
 822 02ac FFF7FEFF 		bl	HAL_GetTick
 823              	.LVL50:
 308:.././hal//stm32f0/stm32f0_hal_lowlevel.c ****         {
 824              		.loc 1 308 11 discriminator 1 view .LVU262
 825 02b0 184B     		ldr	r3, .L111+20
 308:.././hal//stm32f0/stm32f0_hal_lowlevel.c ****         {
 826              		.loc 1 308 27 discriminator 1 view .LVU263
 827 02b2 801B     		subs	r0, r0, r6
 308:.././hal//stm32f0/stm32f0_hal_lowlevel.c ****         {
 828              		.loc 1 308 11 discriminator 1 view .LVU264
 829 02b4 9842     		cmp	r0, r3
 830 02b6 B6D9     		bls	.L56
 831 02b8 02E7     		b	.L23
 832              	.LVL51:
 833              	.L65:
 308:.././hal//stm32f0/stm32f0_hal_lowlevel.c ****         {
 834              		.loc 1 308 11 discriminator 1 view .LVU265
 835              	.LBE12:
 358:.././hal//stm32f0/stm32f0_hal_lowlevel.c ****         {
 836              		.loc 1 358 9 is_stmt 1 view .LVU266
 358:.././hal//stm32f0/stm32f0_hal_lowlevel.c ****         {
 837              		.loc 1 358 13 is_stmt 0 view .LVU267
 838 02ba FFF7FEFF 		bl	HAL_GetTick
 839              	.LVL52:
 358:.././hal//stm32f0/stm32f0_hal_lowlevel.c ****         {
 840              		.loc 1 358 27 discriminator 1 view .LVU268
 841 02be 801B     		subs	r0, r0, r6
 358:.././hal//stm32f0/stm32f0_hal_lowlevel.c ****         {
 842              		.loc 1 358 11 discriminator 1 view .LVU269
 843 02c0 0228     		cmp	r0, #2
 844 02c2 00D8     		bhi	.LCB728
 845 02c4 C1E6     		b	.L64	@long jump
 846              	.LCB728:
 847 02c6 FBE6     		b	.L23
 848              	.LVL53:
 849              	.L63:
 367:.././hal//stm32f0/stm32f0_hal_lowlevel.c ****     {
 850              		.loc 1 367 10 is_stmt 1 view .LVU270
 367:.././hal//stm32f0/stm32f0_hal_lowlevel.c ****     {
 851              		.loc 1 367 12 is_stmt 0 view .LVU271
 852 02c8 0532     		adds	r2, r2, #5
 853 02ca 03D1     		bne	.L66
 370:.././hal//stm32f0/stm32f0_hal_lowlevel.c **** 
 854              		.loc 1 370 7 is_stmt 1 view .LVU272
 855 02cc 6A6B     		ldr	r2, [r5, #52]
 856 02ce 9A43     		bics	r2, r3
 857 02d0 6A63     		str	r2, [r5, #52]
 858 02d2 BEE6     		b	.L108
 859              	.L66:
 378:.././hal//stm32f0/stm32f0_hal_lowlevel.c **** 
 860              		.loc 1 378 7 view .LVU273
 861 02d4 6A6B     		ldr	r2, [r5, #52]
 387:.././hal//stm32f0/stm32f0_hal_lowlevel.c ****       {
 862              		.loc 1 387 13 is_stmt 0 view .LVU274
 863 02d6 0227     		movs	r7, #2
 378:.././hal//stm32f0/stm32f0_hal_lowlevel.c **** 
 864              		.loc 1 378 7 view .LVU275
 865 02d8 1343     		orrs	r3, r2
 381:.././hal//stm32f0/stm32f0_hal_lowlevel.c **** 
 866              		.loc 1 381 7 view .LVU276
 867 02da 0122     		movs	r2, #1
 378:.././hal//stm32f0/stm32f0_hal_lowlevel.c **** 
 868              		.loc 1 378 7 view .LVU277
 869 02dc 6B63     		str	r3, [r5, #52]
 381:.././hal//stm32f0/stm32f0_hal_lowlevel.c **** 
 870              		.loc 1 381 7 is_stmt 1 view .LVU278
 871 02de 6B6B     		ldr	r3, [r5, #52]
 872 02e0 9343     		bics	r3, r2
 873 02e2 6B63     		str	r3, [r5, #52]
 384:.././hal//stm32f0/stm32f0_hal_lowlevel.c ****       
 874              		.loc 1 384 7 view .LVU279
 384:.././hal//stm32f0/stm32f0_hal_lowlevel.c ****       
 875              		.loc 1 384 19 is_stmt 0 view .LVU280
 876 02e4 FFF7FEFF 		bl	HAL_GetTick
 877              	.LVL54:
 878 02e8 0600     		movs	r6, r0
 879              	.LVL55:
 387:.././hal//stm32f0/stm32f0_hal_lowlevel.c ****       {
 880              		.loc 1 387 7 is_stmt 1 view .LVU281
 881              	.L67:
 387:.././hal//stm32f0/stm32f0_hal_lowlevel.c ****       {
 882              		.loc 1 387 51 view .LVU282
 387:.././hal//stm32f0/stm32f0_hal_lowlevel.c ****       {
 883              		.loc 1 387 13 is_stmt 0 view .LVU283
 884 02ea 6B6B     		ldr	r3, [r5, #52]
 387:.././hal//stm32f0/stm32f0_hal_lowlevel.c ****       {
 885              		.loc 1 387 51 view .LVU284
 886 02ec 3B42     		tst	r3, r7
 887 02ee 00D1     		bne	.LCB767
 888 02f0 B6E6     		b	.L62	@long jump
 889              	.LCB767:
 389:.././hal//stm32f0/stm32f0_hal_lowlevel.c ****         {
 890              		.loc 1 389 9 is_stmt 1 view .LVU285
 389:.././hal//stm32f0/stm32f0_hal_lowlevel.c ****         {
 891              		.loc 1 389 13 is_stmt 0 view .LVU286
 892 02f2 FFF7FEFF 		bl	HAL_GetTick
 893              	.LVL56:
 389:.././hal//stm32f0/stm32f0_hal_lowlevel.c ****         {
 894              		.loc 1 389 27 discriminator 1 view .LVU287
 895 02f6 801B     		subs	r0, r0, r6
 389:.././hal//stm32f0/stm32f0_hal_lowlevel.c ****         {
 896              		.loc 1 389 11 discriminator 1 view .LVU288
 897 02f8 0228     		cmp	r0, #2
 898 02fa F6D9     		bls	.L67
 899 02fc E0E6     		b	.L23
 900              	.L112:
 901 02fe C046     		.align	2
 902              	.L111:
 903 0300 00100240 		.word	1073876992
 904 0304 FFFFFEFF 		.word	-65537
 905 0308 FFFFFBFF 		.word	-262145
 906 030c 00700040 		.word	1073770496
 907 0310 FFFFFFEF 		.word	-268435457
 908 0314 88130000 		.word	5000
 909              	.LVL57:
 910              	.L70:
 460:.././hal//stm32f0/stm32f0_hal_lowlevel.c ****     { 
 911              		.loc 1 460 5 is_stmt 1 view .LVU289
 460:.././hal//stm32f0/stm32f0_hal_lowlevel.c ****     { 
 912              		.loc 1 460 8 is_stmt 0 view .LVU290
 913 0318 0C22     		movs	r2, #12
 914 031a 254D     		ldr	r5, .L113
 915 031c 6B68     		ldr	r3, [r5, #4]
 916 031e 1340     		ands	r3, r2
 460:.././hal//stm32f0/stm32f0_hal_lowlevel.c ****     { 
 917              		.loc 1 460 7 view .LVU291
 918 0320 082B     		cmp	r3, #8
 919 0322 00D1     		bne	.LCB797
 920 0324 B5E6     		b	.L14	@long jump
 921              	.LCB797:
 462:.././hal//stm32f0/stm32f0_hal_lowlevel.c ****       {
 922              		.loc 1 462 7 is_stmt 1 view .LVU292
 470:.././hal//stm32f0/stm32f0_hal_lowlevel.c ****         
 923              		.loc 1 470 9 is_stmt 0 view .LVU293
 924 0326 2B68     		ldr	r3, [r5]
 925 0328 224A     		ldr	r2, .L113+4
 926 032a 1340     		ands	r3, r2
 927 032c 2B60     		str	r3, [r5]
 462:.././hal//stm32f0/stm32f0_hal_lowlevel.c ****       {
 928              		.loc 1 462 9 view .LVU294
 929 032e 0229     		cmp	r1, #2
 930 0330 2FD1     		bne	.L71
 465:.././hal//stm32f0/stm32f0_hal_lowlevel.c ****         assert_param(IS_RCC_PLL_MUL(RCC_OscInitStruct->PLL.PLLMUL));
 931              		.loc 1 465 9 is_stmt 1 view .LVU295
 466:.././hal//stm32f0/stm32f0_hal_lowlevel.c ****         assert_param(IS_RCC_PREDIV(RCC_OscInitStruct->PLL.PREDIV));
 932              		.loc 1 466 9 view .LVU296
 467:.././hal//stm32f0/stm32f0_hal_lowlevel.c ****   
 933              		.loc 1 467 9 view .LVU297
 470:.././hal//stm32f0/stm32f0_hal_lowlevel.c ****         
 934              		.loc 1 470 9 view .LVU298
 473:.././hal//stm32f0/stm32f0_hal_lowlevel.c ****         
 935              		.loc 1 473 9 view .LVU299
 473:.././hal//stm32f0/stm32f0_hal_lowlevel.c ****         
 936              		.loc 1 473 21 is_stmt 0 view .LVU300
 937 0332 FFF7FEFF 		bl	HAL_GetTick
 938              	.LVL58:
 476:.././hal//stm32f0/stm32f0_hal_lowlevel.c ****         {
 939              		.loc 1 476 15 view .LVU301
 940 0336 8027     		movs	r7, #128
 473:.././hal//stm32f0/stm32f0_hal_lowlevel.c ****         
 941              		.loc 1 473 21 view .LVU302
 942 0338 0600     		movs	r6, r0
 943              	.LVL59:
 476:.././hal//stm32f0/stm32f0_hal_lowlevel.c ****         {
 944              		.loc 1 476 9 is_stmt 1 view .LVU303
 476:.././hal//stm32f0/stm32f0_hal_lowlevel.c ****         {
 945              		.loc 1 476 15 is_stmt 0 view .LVU304
 946 033a BF04     		lsls	r7, r7, #18
 947              	.LVL60:
 948              	.L72:
 476:.././hal//stm32f0/stm32f0_hal_lowlevel.c ****         {
 949              		.loc 1 476 52 is_stmt 1 view .LVU305
 476:.././hal//stm32f0/stm32f0_hal_lowlevel.c ****         {
 950              		.loc 1 476 15 is_stmt 0 view .LVU306
 951 033c 2B68     		ldr	r3, [r5]
 476:.././hal//stm32f0/stm32f0_hal_lowlevel.c ****         {
 952              		.loc 1 476 52 view .LVU307
 953 033e 3B42     		tst	r3, r7
 954 0340 21D1     		bne	.L73
 485:.././hal//stm32f0/stm32f0_hal_lowlevel.c ****                              RCC_OscInitStruct->PLL.PREDIV,
 955              		.loc 1 485 9 is_stmt 1 view .LVU308
 485:.././hal//stm32f0/stm32f0_hal_lowlevel.c ****                              RCC_OscInitStruct->PLL.PREDIV,
 956              		.loc 1 485 9 view .LVU309
 957 0342 0F22     		movs	r2, #15
 958 0344 EB6A     		ldr	r3, [r5, #44]
 495:.././hal//stm32f0/stm32f0_hal_lowlevel.c ****         {
 959              		.loc 1 495 15 is_stmt 0 view .LVU310
 960 0346 8026     		movs	r6, #128
 961              	.LVL61:
 485:.././hal//stm32f0/stm32f0_hal_lowlevel.c ****                              RCC_OscInitStruct->PLL.PREDIV,
 962              		.loc 1 485 9 view .LVU311
 963 0348 9343     		bics	r3, r2
 964 034a E26A     		ldr	r2, [r4, #44]
 495:.././hal//stm32f0/stm32f0_hal_lowlevel.c ****         {
 965              		.loc 1 495 15 view .LVU312
 966 034c B604     		lsls	r6, r6, #18
 485:.././hal//stm32f0/stm32f0_hal_lowlevel.c ****                              RCC_OscInitStruct->PLL.PREDIV,
 967              		.loc 1 485 9 view .LVU313
 968 034e 1343     		orrs	r3, r2
 969 0350 EB62     		str	r3, [r5, #44]
 485:.././hal//stm32f0/stm32f0_hal_lowlevel.c ****                              RCC_OscInitStruct->PLL.PREDIV,
 970              		.loc 1 485 9 is_stmt 1 view .LVU314
 971 0352 616A     		ldr	r1, [r4, #36]
 972 0354 A36A     		ldr	r3, [r4, #40]
 973 0356 6A68     		ldr	r2, [r5, #4]
 974 0358 0B43     		orrs	r3, r1
 975 035a 1749     		ldr	r1, .L113+8
 976 035c 0A40     		ands	r2, r1
 977 035e 1343     		orrs	r3, r2
 978 0360 6B60     		str	r3, [r5, #4]
 485:.././hal//stm32f0/stm32f0_hal_lowlevel.c ****                              RCC_OscInitStruct->PLL.PREDIV,
 979              		.loc 1 485 9 view .LVU315
 489:.././hal//stm32f0/stm32f0_hal_lowlevel.c ****         
 980              		.loc 1 489 9 view .LVU316
 981 0362 8023     		movs	r3, #128
 982 0364 2A68     		ldr	r2, [r5]
 983 0366 5B04     		lsls	r3, r3, #17
 984 0368 1343     		orrs	r3, r2
 985 036a 2B60     		str	r3, [r5]
 492:.././hal//stm32f0/stm32f0_hal_lowlevel.c ****         
 986              		.loc 1 492 9 view .LVU317
 492:.././hal//stm32f0/stm32f0_hal_lowlevel.c ****         
 987              		.loc 1 492 21 is_stmt 0 view .LVU318
 988 036c FFF7FEFF 		bl	HAL_GetTick
 989              	.LVL62:
 990 0370 0400     		movs	r4, r0
 991              	.LVL63:
 495:.././hal//stm32f0/stm32f0_hal_lowlevel.c ****         {
 992              		.loc 1 495 9 is_stmt 1 view .LVU319
 993              	.L74:
 495:.././hal//stm32f0/stm32f0_hal_lowlevel.c ****         {
 994              		.loc 1 495 52 view .LVU320
 495:.././hal//stm32f0/stm32f0_hal_lowlevel.c ****         {
 995              		.loc 1 495 15 is_stmt 0 view .LVU321
 996 0372 2B68     		ldr	r3, [r5]
 495:.././hal//stm32f0/stm32f0_hal_lowlevel.c ****         {
 997              		.loc 1 495 52 view .LVU322
 998 0374 3342     		tst	r3, r6
 999 0376 00D0     		beq	.LCB864
 1000 0378 76E6     		b	.L76	@long jump
 1001              	.LCB864:
 497:.././hal//stm32f0/stm32f0_hal_lowlevel.c ****           {
 1002              		.loc 1 497 11 is_stmt 1 view .LVU323
 497:.././hal//stm32f0/stm32f0_hal_lowlevel.c ****           {
 1003              		.loc 1 497 15 is_stmt 0 view .LVU324
 1004 037a FFF7FEFF 		bl	HAL_GetTick
 1005              	.LVL64:
 497:.././hal//stm32f0/stm32f0_hal_lowlevel.c ****           {
 1006              		.loc 1 497 29 discriminator 1 view .LVU325
 1007 037e 001B     		subs	r0, r0, r4
 497:.././hal//stm32f0/stm32f0_hal_lowlevel.c ****           {
 1008              		.loc 1 497 13 discriminator 1 view .LVU326
 1009 0380 0228     		cmp	r0, #2
 1010 0382 F6D9     		bls	.L74
 1011 0384 9CE6     		b	.L23
 1012              	.LVL65:
 1013              	.L73:
 478:.././hal//stm32f0/stm32f0_hal_lowlevel.c ****           {
 1014              		.loc 1 478 11 is_stmt 1 view .LVU327
 478:.././hal//stm32f0/stm32f0_hal_lowlevel.c ****           {
 1015              		.loc 1 478 15 is_stmt 0 view .LVU328
 1016 0386 FFF7FEFF 		bl	HAL_GetTick
 1017              	.LVL66:
 478:.././hal//stm32f0/stm32f0_hal_lowlevel.c ****           {
 1018              		.loc 1 478 29 discriminator 1 view .LVU329
 1019 038a 801B     		subs	r0, r0, r6
 478:.././hal//stm32f0/stm32f0_hal_lowlevel.c ****           {
 1020              		.loc 1 478 13 discriminator 1 view .LVU330
 1021 038c 0228     		cmp	r0, #2
 1022 038e D5D9     		bls	.L72
 1023 0390 96E6     		b	.L23
 1024              	.LVL67:
 1025              	.L71:
 506:.././hal//stm32f0/stm32f0_hal_lowlevel.c ****  
 1026              		.loc 1 506 9 is_stmt 1 view .LVU331
 509:.././hal//stm32f0/stm32f0_hal_lowlevel.c ****         
 1027              		.loc 1 509 9 view .LVU332
 509:.././hal//stm32f0/stm32f0_hal_lowlevel.c ****         
 1028              		.loc 1 509 21 is_stmt 0 view .LVU333
 1029 0392 FFF7FEFF 		bl	HAL_GetTick
 1030              	.LVL68:
 512:.././hal//stm32f0/stm32f0_hal_lowlevel.c ****         {
 1031              		.loc 1 512 15 view .LVU334
 1032 0396 8026     		movs	r6, #128
 509:.././hal//stm32f0/stm32f0_hal_lowlevel.c ****         
 1033              		.loc 1 509 21 view .LVU335
 1034 0398 0400     		movs	r4, r0
 1035              	.LVL69:
 512:.././hal//stm32f0/stm32f0_hal_lowlevel.c ****         {
 1036              		.loc 1 512 9 is_stmt 1 view .LVU336
 512:.././hal//stm32f0/stm32f0_hal_lowlevel.c ****         {
 1037              		.loc 1 512 15 is_stmt 0 view .LVU337
 1038 039a B604     		lsls	r6, r6, #18
 1039              	.LVL70:
 1040              	.L77:
 512:.././hal//stm32f0/stm32f0_hal_lowlevel.c ****         {
 1041              		.loc 1 512 52 is_stmt 1 view .LVU338
 512:.././hal//stm32f0/stm32f0_hal_lowlevel.c ****         {
 1042              		.loc 1 512 15 is_stmt 0 view .LVU339
 1043 039c 2B68     		ldr	r3, [r5]
 512:.././hal//stm32f0/stm32f0_hal_lowlevel.c ****         {
 1044              		.loc 1 512 52 view .LVU340
 1045 039e 3342     		tst	r3, r6
 1046 03a0 00D1     		bne	.LCB904
 1047 03a2 61E6     		b	.L76	@long jump
 1048              	.LCB904:
 514:.././hal//stm32f0/stm32f0_hal_lowlevel.c ****           {
 1049              		.loc 1 514 11 is_stmt 1 view .LVU341
 514:.././hal//stm32f0/stm32f0_hal_lowlevel.c ****           {
 1050              		.loc 1 514 15 is_stmt 0 view .LVU342
 1051 03a4 FFF7FEFF 		bl	HAL_GetTick
 1052              	.LVL71:
 514:.././hal//stm32f0/stm32f0_hal_lowlevel.c ****           {
 1053              		.loc 1 514 29 discriminator 1 view .LVU343
 1054 03a8 001B     		subs	r0, r0, r4
 514:.././hal//stm32f0/stm32f0_hal_lowlevel.c ****           {
 1055              		.loc 1 514 13 discriminator 1 view .LVU344
 1056 03aa 0228     		cmp	r0, #2
 1057 03ac F6D9     		bls	.L77
 1058 03ae 87E6     		b	.L23
 1059              	.L114:
 1060              		.align	2
 1061              	.L113:
 1062 03b0 00100240 		.word	1073876992
 1063 03b4 FFFFFFFE 		.word	-16777217
 1064 03b8 FFFFC2FF 		.word	-3997697
 1065              		.cfi_endproc
 1066              	.LFE41:
 1068              		.section	.text.HAL_RCC_ClockConfig,"ax",%progbits
 1069              		.align	1
 1070              		.global	HAL_RCC_ClockConfig
 1071              		.syntax unified
 1072              		.code	16
 1073              		.thumb_func
 1075              	HAL_RCC_ClockConfig:
 1076              	.LVL72:
 1077              	.LFB42:
 529:.././hal//stm32f0/stm32f0_hal_lowlevel.c **** 
 530:.././hal//stm32f0/stm32f0_hal_lowlevel.c **** /**
 531:.././hal//stm32f0/stm32f0_hal_lowlevel.c ****   * @brief  Initializes the CPU, AHB and APB buses clocks according to the specified 
 532:.././hal//stm32f0/stm32f0_hal_lowlevel.c ****   *         parameters in the RCC_ClkInitStruct.
 533:.././hal//stm32f0/stm32f0_hal_lowlevel.c ****   * @param  RCC_ClkInitStruct pointer to an RCC_OscInitTypeDef structure that
 534:.././hal//stm32f0/stm32f0_hal_lowlevel.c ****   *         contains the configuration information for the RCC peripheral.
 535:.././hal//stm32f0/stm32f0_hal_lowlevel.c ****   * @param  FLatency FLASH Latency                   
 536:.././hal//stm32f0/stm32f0_hal_lowlevel.c ****   *          The value of this parameter depend on device used within the same series
 537:.././hal//stm32f0/stm32f0_hal_lowlevel.c ****   * @note   The SystemCoreClock CMSIS variable is used to store System Clock Frequency 
 538:.././hal//stm32f0/stm32f0_hal_lowlevel.c ****   *         and updated by @ref HAL_RCC_GetHCLKFreq() function called within this function
 539:.././hal//stm32f0/stm32f0_hal_lowlevel.c ****   *
 540:.././hal//stm32f0/stm32f0_hal_lowlevel.c ****   * @note   The HSI is used (enabled by hardware) as system clock source after
 541:.././hal//stm32f0/stm32f0_hal_lowlevel.c ****   *         start-up from Reset, wake-up from STOP and STANDBY mode, or in case
 542:.././hal//stm32f0/stm32f0_hal_lowlevel.c ****   *         of failure of the HSE used directly or indirectly as system clock
 543:.././hal//stm32f0/stm32f0_hal_lowlevel.c ****   *         (if the Clock Security System CSS is enabled).
 544:.././hal//stm32f0/stm32f0_hal_lowlevel.c ****   *           
 545:.././hal//stm32f0/stm32f0_hal_lowlevel.c ****   * @note   A switch from one clock source to another occurs only if the target
 546:.././hal//stm32f0/stm32f0_hal_lowlevel.c ****   *         clock source is ready (clock stable after start-up delay or PLL locked). 
 547:.././hal//stm32f0/stm32f0_hal_lowlevel.c ****   *         If a clock source which is not yet ready is selected, the switch will
 548:.././hal//stm32f0/stm32f0_hal_lowlevel.c ****   *         occur when the clock source will be ready. 
 549:.././hal//stm32f0/stm32f0_hal_lowlevel.c ****   *         You can use @ref HAL_RCC_GetClockConfig() function to know which clock is
 550:.././hal//stm32f0/stm32f0_hal_lowlevel.c ****   *         currently used as system clock source.
 551:.././hal//stm32f0/stm32f0_hal_lowlevel.c ****   * @retval HAL status
 552:.././hal//stm32f0/stm32f0_hal_lowlevel.c ****   */
 553:.././hal//stm32f0/stm32f0_hal_lowlevel.c **** HAL_StatusTypeDef HAL_RCC_ClockConfig(RCC_ClkInitTypeDef  *RCC_ClkInitStruct, uint32_t FLatency)
 554:.././hal//stm32f0/stm32f0_hal_lowlevel.c **** {
 1078              		.loc 1 554 1 is_stmt 1 view -0
 1079              		.cfi_startproc
 1080              		@ args = 0, pretend = 0, frame = 8
 1081              		@ frame_needed = 0, uses_anonymous_args = 0
 555:.././hal//stm32f0/stm32f0_hal_lowlevel.c ****   uint32_t tickstart = 0U;
 1082              		.loc 1 555 3 view .LVU346
 556:.././hal//stm32f0/stm32f0_hal_lowlevel.c ****   
 557:.././hal//stm32f0/stm32f0_hal_lowlevel.c ****   /* Check the parameters */
 558:.././hal//stm32f0/stm32f0_hal_lowlevel.c ****   assert_param(RCC_ClkInitStruct != NULL);
 1083              		.loc 1 558 3 view .LVU347
 559:.././hal//stm32f0/stm32f0_hal_lowlevel.c ****   assert_param(IS_RCC_CLOCKTYPE(RCC_ClkInitStruct->ClockType));
 1084              		.loc 1 559 3 view .LVU348
 560:.././hal//stm32f0/stm32f0_hal_lowlevel.c ****   assert_param(IS_FLASH_LATENCY(FLatency));
 1085              		.loc 1 560 3 view .LVU349
 561:.././hal//stm32f0/stm32f0_hal_lowlevel.c **** 
 562:.././hal//stm32f0/stm32f0_hal_lowlevel.c ****   /* To correctly read data from FLASH memory, the number of wait states (LATENCY) 
 563:.././hal//stm32f0/stm32f0_hal_lowlevel.c ****   must be correctly programmed according to the frequency of the CPU clock 
 564:.././hal//stm32f0/stm32f0_hal_lowlevel.c ****     (HCLK) of the device. */
 565:.././hal//stm32f0/stm32f0_hal_lowlevel.c **** 
 566:.././hal//stm32f0/stm32f0_hal_lowlevel.c ****   /* Increasing the number of wait states because of higher CPU frequency */
 567:.././hal//stm32f0/stm32f0_hal_lowlevel.c ****   if(FLatency > (FLASH->ACR & FLASH_ACR_LATENCY))
 1086              		.loc 1 567 3 view .LVU350
 554:.././hal//stm32f0/stm32f0_hal_lowlevel.c ****   uint32_t tickstart = 0U;
 1087              		.loc 1 554 1 is_stmt 0 view .LVU351
 1088 0000 F7B5     		push	{r0, r1, r2, r4, r5, r6, r7, lr}
 1089              	.LCFI2:
 1090              		.cfi_def_cfa_offset 32
 1091              		.cfi_offset 0, -32
 1092              		.cfi_offset 1, -28
 1093              		.cfi_offset 2, -24
 1094              		.cfi_offset 4, -20
 1095              		.cfi_offset 5, -16
 1096              		.cfi_offset 6, -12
 1097              		.cfi_offset 7, -8
 1098              		.cfi_offset 14, -4
 1099              		.loc 1 567 29 view .LVU352
 1100 0002 0122     		movs	r2, #1
 1101              		.loc 1 567 23 view .LVU353
 1102 0004 3E4D     		ldr	r5, .L156
 554:.././hal//stm32f0/stm32f0_hal_lowlevel.c ****   uint32_t tickstart = 0U;
 1103              		.loc 1 554 1 view .LVU354
 1104 0006 0400     		movs	r4, r0
 1105              		.loc 1 567 23 view .LVU355
 1106 0008 2B68     		ldr	r3, [r5]
 554:.././hal//stm32f0/stm32f0_hal_lowlevel.c ****   uint32_t tickstart = 0U;
 1107              		.loc 1 554 1 view .LVU356
 1108 000a 0F00     		movs	r7, r1
 1109              		.loc 1 567 29 view .LVU357
 1110 000c 1340     		ands	r3, r2
 1111              		.loc 1 567 5 view .LVU358
 1112 000e 8B42     		cmp	r3, r1
 1113 0010 12D3     		bcc	.L116
 1114              	.L119:
 568:.././hal//stm32f0/stm32f0_hal_lowlevel.c ****   {    
 569:.././hal//stm32f0/stm32f0_hal_lowlevel.c ****     /* Program the new number of wait states to the LATENCY bits in the FLASH_ACR register */
 570:.././hal//stm32f0/stm32f0_hal_lowlevel.c ****     __HAL_FLASH_SET_LATENCY(FLatency);
 571:.././hal//stm32f0/stm32f0_hal_lowlevel.c ****     
 572:.././hal//stm32f0/stm32f0_hal_lowlevel.c ****     /* Check that the new number of wait states is taken into account to access the Flash
 573:.././hal//stm32f0/stm32f0_hal_lowlevel.c ****     memory by reading the FLASH_ACR register */
 574:.././hal//stm32f0/stm32f0_hal_lowlevel.c ****     if((FLASH->ACR & FLASH_ACR_LATENCY) != FLatency)
 575:.././hal//stm32f0/stm32f0_hal_lowlevel.c ****     {
 576:.././hal//stm32f0/stm32f0_hal_lowlevel.c ****       return HAL_ERROR;
 577:.././hal//stm32f0/stm32f0_hal_lowlevel.c ****     }
 578:.././hal//stm32f0/stm32f0_hal_lowlevel.c ****   }
 579:.././hal//stm32f0/stm32f0_hal_lowlevel.c **** 
 580:.././hal//stm32f0/stm32f0_hal_lowlevel.c ****   /*-------------------------- HCLK Configuration --------------------------*/
 581:.././hal//stm32f0/stm32f0_hal_lowlevel.c ****   if(((RCC_ClkInitStruct->ClockType) & RCC_CLOCKTYPE_HCLK) == RCC_CLOCKTYPE_HCLK)
 1115              		.loc 1 581 3 is_stmt 1 view .LVU359
 1116              		.loc 1 581 25 is_stmt 0 view .LVU360
 1117 0012 2268     		ldr	r2, [r4]
 1118              		.loc 1 581 5 view .LVU361
 1119 0014 9307     		lsls	r3, r2, #30
 1120 0016 19D4     		bmi	.L117
 1121              	.LVL73:
 1122              	.L118:
 582:.././hal//stm32f0/stm32f0_hal_lowlevel.c ****   {
 583:.././hal//stm32f0/stm32f0_hal_lowlevel.c ****     assert_param(IS_RCC_HCLK(RCC_ClkInitStruct->AHBCLKDivider));
 584:.././hal//stm32f0/stm32f0_hal_lowlevel.c ****     MODIFY_REG(RCC->CFGR, RCC_CFGR_HPRE, RCC_ClkInitStruct->AHBCLKDivider);
 585:.././hal//stm32f0/stm32f0_hal_lowlevel.c ****   }
 586:.././hal//stm32f0/stm32f0_hal_lowlevel.c **** 
 587:.././hal//stm32f0/stm32f0_hal_lowlevel.c ****   /*------------------------- SYSCLK Configuration ---------------------------*/ 
 588:.././hal//stm32f0/stm32f0_hal_lowlevel.c ****   if(((RCC_ClkInitStruct->ClockType) & RCC_CLOCKTYPE_SYSCLK) == RCC_CLOCKTYPE_SYSCLK)
 1123              		.loc 1 588 3 is_stmt 1 view .LVU362
 1124              		.loc 1 588 5 is_stmt 0 view .LVU363
 1125 0018 D207     		lsls	r2, r2, #31
 1126 001a 1FD4     		bmi	.L121
 1127              	.LVL74:
 1128              	.L131:
 589:.././hal//stm32f0/stm32f0_hal_lowlevel.c ****   {    
 590:.././hal//stm32f0/stm32f0_hal_lowlevel.c ****     assert_param(IS_RCC_SYSCLKSOURCE(RCC_ClkInitStruct->SYSCLKSource));
 591:.././hal//stm32f0/stm32f0_hal_lowlevel.c ****     
 592:.././hal//stm32f0/stm32f0_hal_lowlevel.c ****     /* HSE is selected as System Clock Source */
 593:.././hal//stm32f0/stm32f0_hal_lowlevel.c ****     if(RCC_ClkInitStruct->SYSCLKSource == RCC_SYSCLKSOURCE_HSE)
 594:.././hal//stm32f0/stm32f0_hal_lowlevel.c ****     {
 595:.././hal//stm32f0/stm32f0_hal_lowlevel.c ****       /* Check the HSE ready flag */  
 596:.././hal//stm32f0/stm32f0_hal_lowlevel.c ****       if(__HAL_RCC_GET_FLAG(RCC_FLAG_HSERDY) == RESET)
 597:.././hal//stm32f0/stm32f0_hal_lowlevel.c ****       {
 598:.././hal//stm32f0/stm32f0_hal_lowlevel.c ****         return HAL_ERROR;
 599:.././hal//stm32f0/stm32f0_hal_lowlevel.c ****       }
 600:.././hal//stm32f0/stm32f0_hal_lowlevel.c ****     }
 601:.././hal//stm32f0/stm32f0_hal_lowlevel.c ****     /* PLL is selected as System Clock Source */
 602:.././hal//stm32f0/stm32f0_hal_lowlevel.c ****     else if(RCC_ClkInitStruct->SYSCLKSource == RCC_SYSCLKSOURCE_PLLCLK)
 603:.././hal//stm32f0/stm32f0_hal_lowlevel.c ****     {
 604:.././hal//stm32f0/stm32f0_hal_lowlevel.c ****       /* Check the PLL ready flag */  
 605:.././hal//stm32f0/stm32f0_hal_lowlevel.c ****       if(__HAL_RCC_GET_FLAG(RCC_FLAG_PLLRDY) == RESET)
 606:.././hal//stm32f0/stm32f0_hal_lowlevel.c ****       {
 607:.././hal//stm32f0/stm32f0_hal_lowlevel.c ****         return HAL_ERROR;
 608:.././hal//stm32f0/stm32f0_hal_lowlevel.c ****       }
 609:.././hal//stm32f0/stm32f0_hal_lowlevel.c ****     }
 610:.././hal//stm32f0/stm32f0_hal_lowlevel.c **** #if defined(RCC_CFGR_SWS_HSI48)
 611:.././hal//stm32f0/stm32f0_hal_lowlevel.c ****     /* HSI48 is selected as System Clock Source */
 612:.././hal//stm32f0/stm32f0_hal_lowlevel.c ****     else if(RCC_ClkInitStruct->SYSCLKSource == RCC_SYSCLKSOURCE_HSI48)
 613:.././hal//stm32f0/stm32f0_hal_lowlevel.c ****     {
 614:.././hal//stm32f0/stm32f0_hal_lowlevel.c ****       /* Check the HSI48 ready flag */
 615:.././hal//stm32f0/stm32f0_hal_lowlevel.c ****       if(__HAL_RCC_GET_FLAG(RCC_FLAG_HSI48RDY) == RESET)
 616:.././hal//stm32f0/stm32f0_hal_lowlevel.c ****       {
 617:.././hal//stm32f0/stm32f0_hal_lowlevel.c ****         return HAL_ERROR;
 618:.././hal//stm32f0/stm32f0_hal_lowlevel.c ****       }
 619:.././hal//stm32f0/stm32f0_hal_lowlevel.c ****     }
 620:.././hal//stm32f0/stm32f0_hal_lowlevel.c **** #endif /* RCC_CFGR_SWS_HSI48 */
 621:.././hal//stm32f0/stm32f0_hal_lowlevel.c ****     /* HSI is selected as System Clock Source */
 622:.././hal//stm32f0/stm32f0_hal_lowlevel.c ****     else
 623:.././hal//stm32f0/stm32f0_hal_lowlevel.c ****     {
 624:.././hal//stm32f0/stm32f0_hal_lowlevel.c ****       /* Check the HSI ready flag */  
 625:.././hal//stm32f0/stm32f0_hal_lowlevel.c ****       if(__HAL_RCC_GET_FLAG(RCC_FLAG_HSIRDY) == RESET)
 626:.././hal//stm32f0/stm32f0_hal_lowlevel.c ****       {
 627:.././hal//stm32f0/stm32f0_hal_lowlevel.c ****         return HAL_ERROR;
 628:.././hal//stm32f0/stm32f0_hal_lowlevel.c ****       }
 629:.././hal//stm32f0/stm32f0_hal_lowlevel.c ****     }
 630:.././hal//stm32f0/stm32f0_hal_lowlevel.c ****     __HAL_RCC_SYSCLK_CONFIG(RCC_ClkInitStruct->SYSCLKSource);
 631:.././hal//stm32f0/stm32f0_hal_lowlevel.c **** 
 632:.././hal//stm32f0/stm32f0_hal_lowlevel.c ****     /* Get Start Tick */
 633:.././hal//stm32f0/stm32f0_hal_lowlevel.c ****     tickstart = HAL_GetTick();
 634:.././hal//stm32f0/stm32f0_hal_lowlevel.c ****     
 635:.././hal//stm32f0/stm32f0_hal_lowlevel.c ****     if(RCC_ClkInitStruct->SYSCLKSource == RCC_SYSCLKSOURCE_HSE)
 636:.././hal//stm32f0/stm32f0_hal_lowlevel.c ****     {
 637:.././hal//stm32f0/stm32f0_hal_lowlevel.c ****       while (__HAL_RCC_GET_SYSCLK_SOURCE() != RCC_SYSCLKSOURCE_STATUS_HSE)
 638:.././hal//stm32f0/stm32f0_hal_lowlevel.c ****       {
 639:.././hal//stm32f0/stm32f0_hal_lowlevel.c ****         if((HAL_GetTick() - tickstart ) > CLOCKSWITCH_TIMEOUT_VALUE)
 640:.././hal//stm32f0/stm32f0_hal_lowlevel.c ****         {
 641:.././hal//stm32f0/stm32f0_hal_lowlevel.c ****           return HAL_TIMEOUT;
 642:.././hal//stm32f0/stm32f0_hal_lowlevel.c ****         }
 643:.././hal//stm32f0/stm32f0_hal_lowlevel.c ****       }
 644:.././hal//stm32f0/stm32f0_hal_lowlevel.c ****     }
 645:.././hal//stm32f0/stm32f0_hal_lowlevel.c ****     else if(RCC_ClkInitStruct->SYSCLKSource == RCC_SYSCLKSOURCE_PLLCLK)
 646:.././hal//stm32f0/stm32f0_hal_lowlevel.c ****     {
 647:.././hal//stm32f0/stm32f0_hal_lowlevel.c ****       while (__HAL_RCC_GET_SYSCLK_SOURCE() != RCC_SYSCLKSOURCE_STATUS_PLLCLK)
 648:.././hal//stm32f0/stm32f0_hal_lowlevel.c ****       {
 649:.././hal//stm32f0/stm32f0_hal_lowlevel.c ****         if((HAL_GetTick() - tickstart ) > CLOCKSWITCH_TIMEOUT_VALUE)
 650:.././hal//stm32f0/stm32f0_hal_lowlevel.c ****         {
 651:.././hal//stm32f0/stm32f0_hal_lowlevel.c ****           return HAL_TIMEOUT;
 652:.././hal//stm32f0/stm32f0_hal_lowlevel.c ****         }
 653:.././hal//stm32f0/stm32f0_hal_lowlevel.c ****       }
 654:.././hal//stm32f0/stm32f0_hal_lowlevel.c ****     }
 655:.././hal//stm32f0/stm32f0_hal_lowlevel.c **** #if defined(RCC_CFGR_SWS_HSI48)
 656:.././hal//stm32f0/stm32f0_hal_lowlevel.c ****     else if(RCC_ClkInitStruct->SYSCLKSource == RCC_SYSCLKSOURCE_HSI48)
 657:.././hal//stm32f0/stm32f0_hal_lowlevel.c ****     {
 658:.././hal//stm32f0/stm32f0_hal_lowlevel.c ****       while (__HAL_RCC_GET_SYSCLK_SOURCE() != RCC_SYSCLKSOURCE_STATUS_HSI48)
 659:.././hal//stm32f0/stm32f0_hal_lowlevel.c ****       {
 660:.././hal//stm32f0/stm32f0_hal_lowlevel.c ****         if((HAL_GetTick() - tickstart) > CLOCKSWITCH_TIMEOUT_VALUE)
 661:.././hal//stm32f0/stm32f0_hal_lowlevel.c ****         {
 662:.././hal//stm32f0/stm32f0_hal_lowlevel.c ****           return HAL_TIMEOUT;
 663:.././hal//stm32f0/stm32f0_hal_lowlevel.c ****         }
 664:.././hal//stm32f0/stm32f0_hal_lowlevel.c ****       }
 665:.././hal//stm32f0/stm32f0_hal_lowlevel.c ****     }
 666:.././hal//stm32f0/stm32f0_hal_lowlevel.c **** #endif /* RCC_CFGR_SWS_HSI48 */
 667:.././hal//stm32f0/stm32f0_hal_lowlevel.c ****     else
 668:.././hal//stm32f0/stm32f0_hal_lowlevel.c ****     {
 669:.././hal//stm32f0/stm32f0_hal_lowlevel.c ****       while (__HAL_RCC_GET_SYSCLK_SOURCE() != RCC_SYSCLKSOURCE_STATUS_HSI)
 670:.././hal//stm32f0/stm32f0_hal_lowlevel.c ****       {
 671:.././hal//stm32f0/stm32f0_hal_lowlevel.c ****         if((HAL_GetTick() - tickstart ) > CLOCKSWITCH_TIMEOUT_VALUE)
 672:.././hal//stm32f0/stm32f0_hal_lowlevel.c ****         {
 673:.././hal//stm32f0/stm32f0_hal_lowlevel.c ****           return HAL_TIMEOUT;
 674:.././hal//stm32f0/stm32f0_hal_lowlevel.c ****         }
 675:.././hal//stm32f0/stm32f0_hal_lowlevel.c ****       }
 676:.././hal//stm32f0/stm32f0_hal_lowlevel.c ****     }      
 677:.././hal//stm32f0/stm32f0_hal_lowlevel.c ****   }    
 678:.././hal//stm32f0/stm32f0_hal_lowlevel.c ****   /* Decreasing the number of wait states because of lower CPU frequency */
 679:.././hal//stm32f0/stm32f0_hal_lowlevel.c ****   if(FLatency < (FLASH->ACR & FLASH_ACR_LATENCY))
 1129              		.loc 1 679 3 is_stmt 1 view .LVU364
 1130              		.loc 1 679 29 is_stmt 0 view .LVU365
 1131 001c 0123     		movs	r3, #1
 1132              		.loc 1 679 23 view .LVU366
 1133 001e 2A68     		ldr	r2, [r5]
 1134              		.loc 1 679 29 view .LVU367
 1135 0020 1A40     		ands	r2, r3
 1136              		.loc 1 679 5 view .LVU368
 1137 0022 BA42     		cmp	r2, r7
 1138 0024 5DD8     		bhi	.L122
 1139              	.L123:
 680:.././hal//stm32f0/stm32f0_hal_lowlevel.c ****   {    
 681:.././hal//stm32f0/stm32f0_hal_lowlevel.c ****     /* Program the new number of wait states to the LATENCY bits in the FLASH_ACR register */
 682:.././hal//stm32f0/stm32f0_hal_lowlevel.c ****     __HAL_FLASH_SET_LATENCY(FLatency);
 683:.././hal//stm32f0/stm32f0_hal_lowlevel.c ****     
 684:.././hal//stm32f0/stm32f0_hal_lowlevel.c ****     /* Check that the new number of wait states is taken into account to access the Flash
 685:.././hal//stm32f0/stm32f0_hal_lowlevel.c ****     memory by reading the FLASH_ACR register */
 686:.././hal//stm32f0/stm32f0_hal_lowlevel.c ****     if((FLASH->ACR & FLASH_ACR_LATENCY) != FLatency)
 687:.././hal//stm32f0/stm32f0_hal_lowlevel.c ****     {
 688:.././hal//stm32f0/stm32f0_hal_lowlevel.c ****       return HAL_ERROR;
 689:.././hal//stm32f0/stm32f0_hal_lowlevel.c ****     }
 690:.././hal//stm32f0/stm32f0_hal_lowlevel.c ****   }    
 691:.././hal//stm32f0/stm32f0_hal_lowlevel.c **** 
 692:.././hal//stm32f0/stm32f0_hal_lowlevel.c ****   /*-------------------------- PCLK1 Configuration ---------------------------*/ 
 693:.././hal//stm32f0/stm32f0_hal_lowlevel.c ****   if(((RCC_ClkInitStruct->ClockType) & RCC_CLOCKTYPE_PCLK1) == RCC_CLOCKTYPE_PCLK1)
 1140              		.loc 1 693 3 is_stmt 1 view .LVU369
 1141              		.loc 1 693 38 is_stmt 0 view .LVU370
 1142 0026 2368     		ldr	r3, [r4]
 1143              		.loc 1 693 5 view .LVU371
 1144 0028 5B07     		lsls	r3, r3, #29
 1145 002a 61D4     		bmi	.L137
 1146              	.L138:
 694:.././hal//stm32f0/stm32f0_hal_lowlevel.c ****   {
 695:.././hal//stm32f0/stm32f0_hal_lowlevel.c ****     assert_param(IS_RCC_PCLK(RCC_ClkInitStruct->APB1CLKDivider));
 696:.././hal//stm32f0/stm32f0_hal_lowlevel.c ****     MODIFY_REG(RCC->CFGR, RCC_CFGR_PPRE, RCC_ClkInitStruct->APB1CLKDivider);
 697:.././hal//stm32f0/stm32f0_hal_lowlevel.c ****   }
 698:.././hal//stm32f0/stm32f0_hal_lowlevel.c ****   
 699:.././hal//stm32f0/stm32f0_hal_lowlevel.c ****   /* Update the SystemCoreClock global variable */
 700:.././hal//stm32f0/stm32f0_hal_lowlevel.c ****   //SystemCoreClock = HAL_RCC_GetSysClockFreq() >> AHBPrescTable[(RCC->CFGR & RCC_CFGR_HPRE)>> RCC_
 701:.././hal//stm32f0/stm32f0_hal_lowlevel.c ****   SystemCoreClock = 7372800;
 1147              		.loc 1 701 3 is_stmt 1 view .LVU372
 1148              		.loc 1 701 19 is_stmt 0 view .LVU373
 1149 002c E122     		movs	r2, #225
 1150 002e 354B     		ldr	r3, .L156+4
 1151 0030 D203     		lsls	r2, r2, #15
 702:.././hal//stm32f0/stm32f0_hal_lowlevel.c ****   
 703:.././hal//stm32f0/stm32f0_hal_lowlevel.c ****   /* Configure the source of time base considering new system clocks settings*/
 704:.././hal//stm32f0/stm32f0_hal_lowlevel.c ****   //HAL_InitTick (TICK_INT_PRIORITY);
 705:.././hal//stm32f0/stm32f0_hal_lowlevel.c ****   
 706:.././hal//stm32f0/stm32f0_hal_lowlevel.c ****   return HAL_OK;
 1152              		.loc 1 706 10 view .LVU374
 1153 0032 0020     		movs	r0, #0
 701:.././hal//stm32f0/stm32f0_hal_lowlevel.c ****   
 1154              		.loc 1 701 19 view .LVU375
 1155 0034 1A60     		str	r2, [r3]
 1156              		.loc 1 706 3 is_stmt 1 view .LVU376
 1157              		.loc 1 706 10 is_stmt 0 view .LVU377
 1158 0036 08E0     		b	.L120
 1159              	.LVL75:
 1160              	.L116:
 570:.././hal//stm32f0/stm32f0_hal_lowlevel.c ****     
 1161              		.loc 1 570 5 is_stmt 1 view .LVU378
 1162 0038 2B68     		ldr	r3, [r5]
 1163 003a 9343     		bics	r3, r2
 1164 003c 0B43     		orrs	r3, r1
 1165 003e 2B60     		str	r3, [r5]
 574:.././hal//stm32f0/stm32f0_hal_lowlevel.c ****     {
 1166              		.loc 1 574 5 view .LVU379
 574:.././hal//stm32f0/stm32f0_hal_lowlevel.c ****     {
 1167              		.loc 1 574 14 is_stmt 0 view .LVU380
 1168 0040 2B68     		ldr	r3, [r5]
 574:.././hal//stm32f0/stm32f0_hal_lowlevel.c ****     {
 1169              		.loc 1 574 20 view .LVU381
 1170 0042 1340     		ands	r3, r2
 574:.././hal//stm32f0/stm32f0_hal_lowlevel.c ****     {
 1171              		.loc 1 574 7 view .LVU382
 1172 0044 8B42     		cmp	r3, r1
 1173 0046 E4D0     		beq	.L119
 1174              	.LVL76:
 1175              	.L125:
 576:.././hal//stm32f0/stm32f0_hal_lowlevel.c ****     }
 1176              		.loc 1 576 14 view .LVU383
 1177 0048 0120     		movs	r0, #1
 1178              	.L120:
 707:.././hal//stm32f0/stm32f0_hal_lowlevel.c **** }
 1179              		.loc 1 707 1 view .LVU384
 1180              		@ sp needed
 1181              	.LVL77:
 1182              	.LVL78:
 1183              		.loc 1 707 1 view .LVU385
 1184 004a FEBD     		pop	{r1, r2, r3, r4, r5, r6, r7, pc}
 1185              	.LVL79:
 1186              	.L117:
 583:.././hal//stm32f0/stm32f0_hal_lowlevel.c ****     MODIFY_REG(RCC->CFGR, RCC_CFGR_HPRE, RCC_ClkInitStruct->AHBCLKDivider);
 1187              		.loc 1 583 5 is_stmt 1 view .LVU386
 584:.././hal//stm32f0/stm32f0_hal_lowlevel.c ****   }
 1188              		.loc 1 584 5 view .LVU387
 1189 004c F020     		movs	r0, #240
 1190              	.LVL80:
 584:.././hal//stm32f0/stm32f0_hal_lowlevel.c ****   }
 1191              		.loc 1 584 5 is_stmt 0 view .LVU388
 1192 004e 2E49     		ldr	r1, .L156+8
 1193              	.LVL81:
 584:.././hal//stm32f0/stm32f0_hal_lowlevel.c ****   }
 1194              		.loc 1 584 5 view .LVU389
 1195 0050 4B68     		ldr	r3, [r1, #4]
 1196 0052 8343     		bics	r3, r0
 1197 0054 A068     		ldr	r0, [r4, #8]
 1198 0056 0343     		orrs	r3, r0
 1199 0058 4B60     		str	r3, [r1, #4]
 1200 005a DDE7     		b	.L118
 1201              	.L121:
 590:.././hal//stm32f0/stm32f0_hal_lowlevel.c ****     
 1202              		.loc 1 590 5 is_stmt 1 view .LVU390
 593:.././hal//stm32f0/stm32f0_hal_lowlevel.c ****     {
 1203              		.loc 1 593 5 view .LVU391
 1204 005c 2A4E     		ldr	r6, .L156+8
 593:.././hal//stm32f0/stm32f0_hal_lowlevel.c ****     {
 1205              		.loc 1 593 25 is_stmt 0 view .LVU392
 1206 005e 6268     		ldr	r2, [r4, #4]
 596:.././hal//stm32f0/stm32f0_hal_lowlevel.c ****       {
 1207              		.loc 1 596 10 view .LVU393
 1208 0060 3368     		ldr	r3, [r6]
 593:.././hal//stm32f0/stm32f0_hal_lowlevel.c ****     {
 1209              		.loc 1 593 7 view .LVU394
 1210 0062 012A     		cmp	r2, #1
 1211 0064 1AD1     		bne	.L124
 596:.././hal//stm32f0/stm32f0_hal_lowlevel.c ****       {
 1212              		.loc 1 596 7 is_stmt 1 view .LVU395
 596:.././hal//stm32f0/stm32f0_hal_lowlevel.c ****       {
 1213              		.loc 1 596 9 is_stmt 0 view .LVU396
 1214 0066 9B03     		lsls	r3, r3, #14
 1215 0068 EED5     		bpl	.L125
 1216              	.L126:
 630:.././hal//stm32f0/stm32f0_hal_lowlevel.c **** 
 1217              		.loc 1 630 5 is_stmt 1 view .LVU397
 1218 006a 0321     		movs	r1, #3
 1219 006c 7368     		ldr	r3, [r6, #4]
 1220 006e 8B43     		bics	r3, r1
 1221 0070 1343     		orrs	r3, r2
 1222 0072 7360     		str	r3, [r6, #4]
 633:.././hal//stm32f0/stm32f0_hal_lowlevel.c ****     
 1223              		.loc 1 633 5 view .LVU398
 633:.././hal//stm32f0/stm32f0_hal_lowlevel.c ****     
 1224              		.loc 1 633 17 is_stmt 0 view .LVU399
 1225 0074 FFF7FEFF 		bl	HAL_GetTick
 1226              	.LVL82:
 635:.././hal//stm32f0/stm32f0_hal_lowlevel.c ****     {
 1227              		.loc 1 635 25 view .LVU400
 1228 0078 6368     		ldr	r3, [r4, #4]
 633:.././hal//stm32f0/stm32f0_hal_lowlevel.c ****     
 1229              		.loc 1 633 17 view .LVU401
 1230 007a 0190     		str	r0, [sp, #4]
 1231              	.LVL83:
 635:.././hal//stm32f0/stm32f0_hal_lowlevel.c ****     {
 1232              		.loc 1 635 5 is_stmt 1 view .LVU402
 635:.././hal//stm32f0/stm32f0_hal_lowlevel.c ****     {
 1233              		.loc 1 635 7 is_stmt 0 view .LVU403
 1234 007c 012B     		cmp	r3, #1
 1235 007e 15D1     		bne	.L151
 1236              	.LVL84:
 1237              	.L128:
 637:.././hal//stm32f0/stm32f0_hal_lowlevel.c ****       {
 1238              		.loc 1 637 44 is_stmt 1 view .LVU404
 637:.././hal//stm32f0/stm32f0_hal_lowlevel.c ****       {
 1239              		.loc 1 637 14 is_stmt 0 view .LVU405
 1240 0080 0C22     		movs	r2, #12
 1241 0082 7368     		ldr	r3, [r6, #4]
 1242 0084 1340     		ands	r3, r2
 637:.././hal//stm32f0/stm32f0_hal_lowlevel.c ****       {
 1243              		.loc 1 637 44 view .LVU406
 1244 0086 042B     		cmp	r3, #4
 1245 0088 C8D0     		beq	.L131
 639:.././hal//stm32f0/stm32f0_hal_lowlevel.c ****         {
 1246              		.loc 1 639 9 is_stmt 1 view .LVU407
 639:.././hal//stm32f0/stm32f0_hal_lowlevel.c ****         {
 1247              		.loc 1 639 13 is_stmt 0 view .LVU408
 1248 008a FFF7FEFF 		bl	HAL_GetTick
 1249              	.LVL85:
 639:.././hal//stm32f0/stm32f0_hal_lowlevel.c ****         {
 1250              		.loc 1 639 27 discriminator 1 view .LVU409
 1251 008e 019B     		ldr	r3, [sp, #4]
 1252 0090 C01A     		subs	r0, r0, r3
 639:.././hal//stm32f0/stm32f0_hal_lowlevel.c ****         {
 1253              		.loc 1 639 11 discriminator 1 view .LVU410
 1254 0092 1E4B     		ldr	r3, .L156+12
 1255 0094 9842     		cmp	r0, r3
 1256 0096 F3D9     		bls	.L128
 1257              	.L134:
 641:.././hal//stm32f0/stm32f0_hal_lowlevel.c ****         }
 1258              		.loc 1 641 18 view .LVU411
 1259 0098 0320     		movs	r0, #3
 1260 009a D6E7     		b	.L120
 1261              	.LVL86:
 1262              	.L124:
 602:.././hal//stm32f0/stm32f0_hal_lowlevel.c ****     {
 1263              		.loc 1 602 10 is_stmt 1 view .LVU412
 602:.././hal//stm32f0/stm32f0_hal_lowlevel.c ****     {
 1264              		.loc 1 602 12 is_stmt 0 view .LVU413
 1265 009c 022A     		cmp	r2, #2
 1266 009e 02D1     		bne	.L127
 605:.././hal//stm32f0/stm32f0_hal_lowlevel.c ****       {
 1267              		.loc 1 605 7 is_stmt 1 view .LVU414
 605:.././hal//stm32f0/stm32f0_hal_lowlevel.c ****       {
 1268              		.loc 1 605 9 is_stmt 0 view .LVU415
 1269 00a0 9B01     		lsls	r3, r3, #6
 1270 00a2 E2D4     		bmi	.L126
 1271 00a4 D0E7     		b	.L125
 1272              	.L127:
 625:.././hal//stm32f0/stm32f0_hal_lowlevel.c ****       {
 1273              		.loc 1 625 7 is_stmt 1 view .LVU416
 625:.././hal//stm32f0/stm32f0_hal_lowlevel.c ****       {
 1274              		.loc 1 625 9 is_stmt 0 view .LVU417
 1275 00a6 9B07     		lsls	r3, r3, #30
 1276 00a8 DFD4     		bmi	.L126
 1277 00aa CDE7     		b	.L125
 1278              	.LVL87:
 1279              	.L151:
 645:.././hal//stm32f0/stm32f0_hal_lowlevel.c ****     {
 1280              		.loc 1 645 10 is_stmt 1 view .LVU418
 645:.././hal//stm32f0/stm32f0_hal_lowlevel.c ****     {
 1281              		.loc 1 645 12 is_stmt 0 view .LVU419
 1282 00ac 022B     		cmp	r3, #2
 1283 00ae 12D0     		beq	.L132
 1284              	.LVL88:
 1285              	.L133:
 669:.././hal//stm32f0/stm32f0_hal_lowlevel.c ****       {
 1286              		.loc 1 669 44 is_stmt 1 view .LVU420
 1287 00b0 0C22     		movs	r2, #12
 669:.././hal//stm32f0/stm32f0_hal_lowlevel.c ****       {
 1288              		.loc 1 669 14 is_stmt 0 view .LVU421
 1289 00b2 7368     		ldr	r3, [r6, #4]
 669:.././hal//stm32f0/stm32f0_hal_lowlevel.c ****       {
 1290              		.loc 1 669 44 view .LVU422
 1291 00b4 1342     		tst	r3, r2
 1292 00b6 B1D0     		beq	.L131
 671:.././hal//stm32f0/stm32f0_hal_lowlevel.c ****         {
 1293              		.loc 1 671 9 is_stmt 1 view .LVU423
 671:.././hal//stm32f0/stm32f0_hal_lowlevel.c ****         {
 1294              		.loc 1 671 13 is_stmt 0 view .LVU424
 1295 00b8 FFF7FEFF 		bl	HAL_GetTick
 1296              	.LVL89:
 671:.././hal//stm32f0/stm32f0_hal_lowlevel.c ****         {
 1297              		.loc 1 671 27 discriminator 1 view .LVU425
 1298 00bc 019B     		ldr	r3, [sp, #4]
 1299 00be C01A     		subs	r0, r0, r3
 671:.././hal//stm32f0/stm32f0_hal_lowlevel.c ****         {
 1300              		.loc 1 671 11 discriminator 1 view .LVU426
 1301 00c0 124B     		ldr	r3, .L156+12
 1302 00c2 9842     		cmp	r0, r3
 1303 00c4 F4D9     		bls	.L133
 1304 00c6 E7E7     		b	.L134
 1305              	.L135:
 649:.././hal//stm32f0/stm32f0_hal_lowlevel.c ****         {
 1306              		.loc 1 649 9 is_stmt 1 view .LVU427
 649:.././hal//stm32f0/stm32f0_hal_lowlevel.c ****         {
 1307              		.loc 1 649 13 is_stmt 0 view .LVU428
 1308 00c8 FFF7FEFF 		bl	HAL_GetTick
 1309              	.LVL90:
 649:.././hal//stm32f0/stm32f0_hal_lowlevel.c ****         {
 1310              		.loc 1 649 27 discriminator 1 view .LVU429
 1311 00cc 019B     		ldr	r3, [sp, #4]
 1312 00ce C01A     		subs	r0, r0, r3
 649:.././hal//stm32f0/stm32f0_hal_lowlevel.c ****         {
 1313              		.loc 1 649 11 discriminator 1 view .LVU430
 1314 00d0 0E4B     		ldr	r3, .L156+12
 1315 00d2 9842     		cmp	r0, r3
 1316 00d4 E0D8     		bhi	.L134
 1317              	.L132:
 647:.././hal//stm32f0/stm32f0_hal_lowlevel.c ****       {
 1318              		.loc 1 647 44 is_stmt 1 view .LVU431
 647:.././hal//stm32f0/stm32f0_hal_lowlevel.c ****       {
 1319              		.loc 1 647 14 is_stmt 0 view .LVU432
 1320 00d6 0C22     		movs	r2, #12
 1321 00d8 7368     		ldr	r3, [r6, #4]
 1322 00da 1340     		ands	r3, r2
 647:.././hal//stm32f0/stm32f0_hal_lowlevel.c ****       {
 1323              		.loc 1 647 44 view .LVU433
 1324 00dc 082B     		cmp	r3, #8
 1325 00de F3D1     		bne	.L135
 1326 00e0 9CE7     		b	.L131
 1327              	.LVL91:
 1328              	.L122:
 682:.././hal//stm32f0/stm32f0_hal_lowlevel.c ****     
 1329              		.loc 1 682 5 is_stmt 1 view .LVU434
 1330 00e2 2A68     		ldr	r2, [r5]
 1331 00e4 9A43     		bics	r2, r3
 1332 00e6 2A60     		str	r2, [r5]
 686:.././hal//stm32f0/stm32f0_hal_lowlevel.c ****     {
 1333              		.loc 1 686 5 view .LVU435
 686:.././hal//stm32f0/stm32f0_hal_lowlevel.c ****     {
 1334              		.loc 1 686 14 is_stmt 0 view .LVU436
 1335 00e8 2A68     		ldr	r2, [r5]
 686:.././hal//stm32f0/stm32f0_hal_lowlevel.c ****     {
 1336              		.loc 1 686 7 view .LVU437
 1337 00ea 1A42     		tst	r2, r3
 1338 00ec 9BD0     		beq	.L123
 1339 00ee ABE7     		b	.L125
 1340              	.L137:
 695:.././hal//stm32f0/stm32f0_hal_lowlevel.c ****     MODIFY_REG(RCC->CFGR, RCC_CFGR_PPRE, RCC_ClkInitStruct->APB1CLKDivider);
 1341              		.loc 1 695 5 is_stmt 1 view .LVU438
 696:.././hal//stm32f0/stm32f0_hal_lowlevel.c ****   }
 1342              		.loc 1 696 5 view .LVU439
 1343 00f0 054A     		ldr	r2, .L156+8
 1344 00f2 0749     		ldr	r1, .L156+16
 1345 00f4 5368     		ldr	r3, [r2, #4]
 1346 00f6 0B40     		ands	r3, r1
 1347 00f8 E168     		ldr	r1, [r4, #12]
 1348 00fa 0B43     		orrs	r3, r1
 1349 00fc 5360     		str	r3, [r2, #4]
 1350 00fe 95E7     		b	.L138
 1351              	.L157:
 1352              		.align	2
 1353              	.L156:
 1354 0100 00200240 		.word	1073881088
 1355 0104 00000000 		.word	.LANCHOR1
 1356 0108 00100240 		.word	1073876992
 1357 010c 88130000 		.word	5000
 1358 0110 FFF8FFFF 		.word	-1793
 1359              		.cfi_endproc
 1360              	.LFE42:
 1362              		.section	.text.HAL_RCCEx_PeriphCLKConfig,"ax",%progbits
 1363              		.align	1
 1364              		.global	HAL_RCCEx_PeriphCLKConfig
 1365              		.syntax unified
 1366              		.code	16
 1367              		.thumb_func
 1369              	HAL_RCCEx_PeriphCLKConfig:
 1370              	.LVL92:
 1371              	.LFB43:
 708:.././hal//stm32f0/stm32f0_hal_lowlevel.c **** 
 709:.././hal//stm32f0/stm32f0_hal_lowlevel.c **** HAL_StatusTypeDef HAL_RCCEx_PeriphCLKConfig(RCC_PeriphCLKInitTypeDef  *PeriphClkInit)
 710:.././hal//stm32f0/stm32f0_hal_lowlevel.c **** {
 1372              		.loc 1 710 1 view -0
 1373              		.cfi_startproc
 1374              		@ args = 0, pretend = 0, frame = 16
 1375              		@ frame_needed = 0, uses_anonymous_args = 0
 711:.././hal//stm32f0/stm32f0_hal_lowlevel.c ****   uint32_t tickstart = 0U;
 1376              		.loc 1 711 3 view .LVU441
 712:.././hal//stm32f0/stm32f0_hal_lowlevel.c ****   uint32_t temp_reg = 0U;
 1377              		.loc 1 712 3 view .LVU442
 713:.././hal//stm32f0/stm32f0_hal_lowlevel.c **** 
 714:.././hal//stm32f0/stm32f0_hal_lowlevel.c ****   /* Check the parameters */
 715:.././hal//stm32f0/stm32f0_hal_lowlevel.c ****   assert_param(IS_RCC_PERIPHCLOCK(PeriphClkInit->PeriphClockSelection));
 1378              		.loc 1 715 3 view .LVU443
 716:.././hal//stm32f0/stm32f0_hal_lowlevel.c ****   
 717:.././hal//stm32f0/stm32f0_hal_lowlevel.c ****   /*---------------------------- RTC configuration -------------------------------*/
 718:.././hal//stm32f0/stm32f0_hal_lowlevel.c ****   if(((PeriphClkInit->PeriphClockSelection) & RCC_PERIPHCLK_RTC) == (RCC_PERIPHCLK_RTC))
 1379              		.loc 1 718 3 view .LVU444
 710:.././hal//stm32f0/stm32f0_hal_lowlevel.c ****   uint32_t tickstart = 0U;
 1380              		.loc 1 710 1 is_stmt 0 view .LVU445
 1381 0000 F0B5     		push	{r4, r5, r6, r7, lr}
 1382              	.LCFI3:
 1383              		.cfi_def_cfa_offset 20
 1384              		.cfi_offset 4, -20
 1385              		.cfi_offset 5, -16
 1386              		.cfi_offset 6, -12
 1387              		.cfi_offset 7, -8
 1388              		.cfi_offset 14, -4
 1389              		.loc 1 718 45 view .LVU446
 1390 0002 0368     		ldr	r3, [r0]
 710:.././hal//stm32f0/stm32f0_hal_lowlevel.c ****   uint32_t tickstart = 0U;
 1391              		.loc 1 710 1 view .LVU447
 1392 0004 0500     		movs	r5, r0
 1393 0006 85B0     		sub	sp, sp, #20
 1394              	.LCFI4:
 1395              		.cfi_def_cfa_offset 40
 1396              		.loc 1 718 5 view .LVU448
 1397 0008 DB03     		lsls	r3, r3, #15
 1398 000a 2AD5     		bpl	.L160
 1399              	.LBB14:
 719:.././hal//stm32f0/stm32f0_hal_lowlevel.c ****   {
 720:.././hal//stm32f0/stm32f0_hal_lowlevel.c ****     /* check for RTC Parameters used to output RTCCLK */
 721:.././hal//stm32f0/stm32f0_hal_lowlevel.c ****     assert_param(IS_RCC_RTCCLKSOURCE(PeriphClkInit->RTCClockSelection));
 1400              		.loc 1 721 5 is_stmt 1 view .LVU449
 722:.././hal//stm32f0/stm32f0_hal_lowlevel.c ****     
 723:.././hal//stm32f0/stm32f0_hal_lowlevel.c ****     FlagStatus       pwrclkchanged = RESET;
 1401              		.loc 1 723 5 view .LVU450
 1402              	.LVL93:
 724:.././hal//stm32f0/stm32f0_hal_lowlevel.c **** 
 725:.././hal//stm32f0/stm32f0_hal_lowlevel.c ****     /* As soon as function is called to change RTC clock source, activation of the 
 726:.././hal//stm32f0/stm32f0_hal_lowlevel.c ****        power domain is done. */
 727:.././hal//stm32f0/stm32f0_hal_lowlevel.c ****     /* Requires to enable write access to Backup Domain of necessary */
 728:.././hal//stm32f0/stm32f0_hal_lowlevel.c ****     if(__HAL_RCC_PWR_IS_CLK_DISABLED())
 1403              		.loc 1 728 5 view .LVU451
 1404              		.loc 1 728 8 is_stmt 0 view .LVU452
 1405 000c 8022     		movs	r2, #128
 723:.././hal//stm32f0/stm32f0_hal_lowlevel.c **** 
 1406              		.loc 1 723 22 view .LVU453
 1407 000e 0021     		movs	r1, #0
 1408              		.loc 1 728 8 view .LVU454
 1409 0010 384C     		ldr	r4, .L188
 1410 0012 5205     		lsls	r2, r2, #21
 1411 0014 E369     		ldr	r3, [r4, #28]
 723:.././hal//stm32f0/stm32f0_hal_lowlevel.c **** 
 1412              		.loc 1 723 22 view .LVU455
 1413 0016 0091     		str	r1, [sp]
 1414              		.loc 1 728 7 view .LVU456
 1415 0018 1342     		tst	r3, r2
 1416 001a 08D1     		bne	.L161
 729:.././hal//stm32f0/stm32f0_hal_lowlevel.c ****     {
 730:.././hal//stm32f0/stm32f0_hal_lowlevel.c ****     __HAL_RCC_PWR_CLK_ENABLE();
 1417              		.loc 1 730 5 is_stmt 1 view .LVU457
 1418              	.LBB15:
 1419              		.loc 1 730 5 view .LVU458
 1420              		.loc 1 730 5 view .LVU459
 1421 001c E369     		ldr	r3, [r4, #28]
 1422 001e 1343     		orrs	r3, r2
 1423 0020 E361     		str	r3, [r4, #28]
 1424              		.loc 1 730 5 view .LVU460
 1425 0022 E369     		ldr	r3, [r4, #28]
 1426 0024 1340     		ands	r3, r2
 1427 0026 0393     		str	r3, [sp, #12]
 1428              		.loc 1 730 5 view .LVU461
 1429 0028 039B     		ldr	r3, [sp, #12]
 1430              	.LBE15:
 1431              		.loc 1 730 5 view .LVU462
 731:.././hal//stm32f0/stm32f0_hal_lowlevel.c ****       pwrclkchanged = SET;
 1432              		.loc 1 731 7 view .LVU463
 1433              	.LVL94:
 1434              		.loc 1 731 21 is_stmt 0 view .LVU464
 1435 002a 0123     		movs	r3, #1
 1436 002c 0093     		str	r3, [sp]
 1437              	.LVL95:
 1438              	.L161:
 732:.././hal//stm32f0/stm32f0_hal_lowlevel.c ****     }
 733:.././hal//stm32f0/stm32f0_hal_lowlevel.c ****     
 734:.././hal//stm32f0/stm32f0_hal_lowlevel.c ****     if(HAL_IS_BIT_CLR(PWR->CR, PWR_CR_DBP))
 1439              		.loc 1 734 5 is_stmt 1 view .LVU465
 1440              		.loc 1 734 8 is_stmt 0 view .LVU466
 1441 002e 8027     		movs	r7, #128
 1442 0030 314E     		ldr	r6, .L188+4
 1443 0032 7F00     		lsls	r7, r7, #1
 1444 0034 3368     		ldr	r3, [r6]
 1445              		.loc 1 734 7 view .LVU467
 1446 0036 3B42     		tst	r3, r7
 1447 0038 21D0     		beq	.L162
 1448              	.LVL96:
 1449              	.L168:
 735:.././hal//stm32f0/stm32f0_hal_lowlevel.c ****     {
 736:.././hal//stm32f0/stm32f0_hal_lowlevel.c ****       /* Enable write access to Backup domain */
 737:.././hal//stm32f0/stm32f0_hal_lowlevel.c ****       SET_BIT(PWR->CR, PWR_CR_DBP);
 738:.././hal//stm32f0/stm32f0_hal_lowlevel.c ****       
 739:.././hal//stm32f0/stm32f0_hal_lowlevel.c ****       /* Wait for Backup domain Write protection disable */
 740:.././hal//stm32f0/stm32f0_hal_lowlevel.c ****       tickstart = HAL_GetTick();
 741:.././hal//stm32f0/stm32f0_hal_lowlevel.c ****       
 742:.././hal//stm32f0/stm32f0_hal_lowlevel.c ****       while(HAL_IS_BIT_CLR(PWR->CR, PWR_CR_DBP))
 743:.././hal//stm32f0/stm32f0_hal_lowlevel.c ****       {
 744:.././hal//stm32f0/stm32f0_hal_lowlevel.c ****         if((HAL_GetTick() - tickstart) > RCC_DBP_TIMEOUT_VALUE)
 745:.././hal//stm32f0/stm32f0_hal_lowlevel.c ****         {
 746:.././hal//stm32f0/stm32f0_hal_lowlevel.c ****           return HAL_TIMEOUT;
 747:.././hal//stm32f0/stm32f0_hal_lowlevel.c ****         }
 748:.././hal//stm32f0/stm32f0_hal_lowlevel.c ****       }
 749:.././hal//stm32f0/stm32f0_hal_lowlevel.c ****     }
 750:.././hal//stm32f0/stm32f0_hal_lowlevel.c ****     
 751:.././hal//stm32f0/stm32f0_hal_lowlevel.c ****     /* Reset the Backup domain only if the RTC Clock source selection is modified from reset value 
 752:.././hal//stm32f0/stm32f0_hal_lowlevel.c ****     temp_reg = (RCC->BDCR & RCC_BDCR_RTCSEL);
 1450              		.loc 1 752 5 is_stmt 1 view .LVU468
 1451              		.loc 1 752 20 is_stmt 0 view .LVU469
 1452 003a 236A     		ldr	r3, [r4, #32]
 1453              		.loc 1 752 14 view .LVU470
 1454 003c C022     		movs	r2, #192
 1455 003e 1900     		movs	r1, r3
 1456 0040 9200     		lsls	r2, r2, #2
 1457 0042 2E4E     		ldr	r6, .L188+8
 1458 0044 1140     		ands	r1, r2
 1459              	.LVL97:
 753:.././hal//stm32f0/stm32f0_hal_lowlevel.c ****     if((temp_reg != 0x00000000U) && (temp_reg != (PeriphClkInit->RTCClockSelection & RCC_BDCR_RTCSE
 1460              		.loc 1 753 5 is_stmt 1 view .LVU471
 1461              		.loc 1 753 7 is_stmt 0 view .LVU472
 1462 0046 1342     		tst	r3, r2
 1463 0048 2BD1     		bne	.L163
 1464              	.LVL98:
 1465              	.L164:
 754:.././hal//stm32f0/stm32f0_hal_lowlevel.c ****     {
 755:.././hal//stm32f0/stm32f0_hal_lowlevel.c ****       /* Store the content of BDCR register before the reset of Backup Domain */
 756:.././hal//stm32f0/stm32f0_hal_lowlevel.c ****       temp_reg = (RCC->BDCR & ~(RCC_BDCR_RTCSEL));
 757:.././hal//stm32f0/stm32f0_hal_lowlevel.c ****       /* RTC Clock selection can be changed only if the Backup Domain is reset */
 758:.././hal//stm32f0/stm32f0_hal_lowlevel.c ****       __HAL_RCC_BACKUPRESET_FORCE();
 759:.././hal//stm32f0/stm32f0_hal_lowlevel.c ****       __HAL_RCC_BACKUPRESET_RELEASE();
 760:.././hal//stm32f0/stm32f0_hal_lowlevel.c ****       /* Restore the Content of BDCR register */
 761:.././hal//stm32f0/stm32f0_hal_lowlevel.c ****       RCC->BDCR = temp_reg;
 762:.././hal//stm32f0/stm32f0_hal_lowlevel.c ****       
 763:.././hal//stm32f0/stm32f0_hal_lowlevel.c ****       /* Wait for LSERDY if LSE was enabled */
 764:.././hal//stm32f0/stm32f0_hal_lowlevel.c ****       if (HAL_IS_BIT_SET(temp_reg, RCC_BDCR_LSEON))
 765:.././hal//stm32f0/stm32f0_hal_lowlevel.c ****       {
 766:.././hal//stm32f0/stm32f0_hal_lowlevel.c ****         /* Get Start Tick */
 767:.././hal//stm32f0/stm32f0_hal_lowlevel.c ****         tickstart = HAL_GetTick();
 768:.././hal//stm32f0/stm32f0_hal_lowlevel.c ****         
 769:.././hal//stm32f0/stm32f0_hal_lowlevel.c ****         /* Wait till LSE is ready */  
 770:.././hal//stm32f0/stm32f0_hal_lowlevel.c ****         while(__HAL_RCC_GET_FLAG(RCC_FLAG_LSERDY) == RESET)
 771:.././hal//stm32f0/stm32f0_hal_lowlevel.c ****         {
 772:.././hal//stm32f0/stm32f0_hal_lowlevel.c ****           if((HAL_GetTick() - tickstart) > RCC_LSE_TIMEOUT_VALUE)
 773:.././hal//stm32f0/stm32f0_hal_lowlevel.c ****           {
 774:.././hal//stm32f0/stm32f0_hal_lowlevel.c ****             return HAL_TIMEOUT;
 775:.././hal//stm32f0/stm32f0_hal_lowlevel.c ****           }
 776:.././hal//stm32f0/stm32f0_hal_lowlevel.c ****         }
 777:.././hal//stm32f0/stm32f0_hal_lowlevel.c ****       }
 778:.././hal//stm32f0/stm32f0_hal_lowlevel.c ****     }
 779:.././hal//stm32f0/stm32f0_hal_lowlevel.c ****     __HAL_RCC_RTC_CONFIG(PeriphClkInit->RTCClockSelection);
 1466              		.loc 1 779 5 is_stmt 1 view .LVU473
 1467 004a 236A     		ldr	r3, [r4, #32]
 1468 004c 6A68     		ldr	r2, [r5, #4]
 1469 004e 3340     		ands	r3, r6
 1470 0050 1343     		orrs	r3, r2
 1471 0052 2362     		str	r3, [r4, #32]
 780:.././hal//stm32f0/stm32f0_hal_lowlevel.c **** 
 781:.././hal//stm32f0/stm32f0_hal_lowlevel.c ****     /* Require to disable power clock if necessary */
 782:.././hal//stm32f0/stm32f0_hal_lowlevel.c ****     if(pwrclkchanged == SET)
 1472              		.loc 1 782 5 view .LVU474
 1473              		.loc 1 782 7 is_stmt 0 view .LVU475
 1474 0054 009B     		ldr	r3, [sp]
 1475 0056 012B     		cmp	r3, #1
 1476 0058 03D1     		bne	.L160
 783:.././hal//stm32f0/stm32f0_hal_lowlevel.c ****     {
 784:.././hal//stm32f0/stm32f0_hal_lowlevel.c ****       __HAL_RCC_PWR_CLK_DISABLE();
 1477              		.loc 1 784 7 is_stmt 1 view .LVU476
 1478 005a E369     		ldr	r3, [r4, #28]
 1479 005c 284A     		ldr	r2, .L188+12
 1480 005e 1340     		ands	r3, r2
 1481 0060 E361     		str	r3, [r4, #28]
 1482              	.LVL99:
 1483              	.L160:
 1484              		.loc 1 784 7 is_stmt 0 view .LVU477
 1485              	.LBE14:
 785:.././hal//stm32f0/stm32f0_hal_lowlevel.c ****     }
 786:.././hal//stm32f0/stm32f0_hal_lowlevel.c ****   }
 787:.././hal//stm32f0/stm32f0_hal_lowlevel.c **** 
 788:.././hal//stm32f0/stm32f0_hal_lowlevel.c ****   /*------------------------------- USART1 Configuration ------------------------*/ 
 789:.././hal//stm32f0/stm32f0_hal_lowlevel.c ****   if(((PeriphClkInit->PeriphClockSelection) & RCC_PERIPHCLK_USART1) == RCC_PERIPHCLK_USART1)
 1486              		.loc 1 789 3 is_stmt 1 view .LVU478
 1487              		.loc 1 789 21 is_stmt 0 view .LVU479
 1488 0062 2A68     		ldr	r2, [r5]
 1489              		.loc 1 789 5 view .LVU480
 1490 0064 D307     		lsls	r3, r2, #31
 1491 0066 06D5     		bpl	.L174
 790:.././hal//stm32f0/stm32f0_hal_lowlevel.c ****   {
 791:.././hal//stm32f0/stm32f0_hal_lowlevel.c ****     /* Check the parameters */
 792:.././hal//stm32f0/stm32f0_hal_lowlevel.c ****     assert_param(IS_RCC_USART1CLKSOURCE(PeriphClkInit->Usart1ClockSelection));
 1492              		.loc 1 792 5 is_stmt 1 view .LVU481
 793:.././hal//stm32f0/stm32f0_hal_lowlevel.c ****     
 794:.././hal//stm32f0/stm32f0_hal_lowlevel.c ****     /* Configure the USART1 clock source */
 795:.././hal//stm32f0/stm32f0_hal_lowlevel.c ****     __HAL_RCC_USART1_CONFIG(PeriphClkInit->Usart1ClockSelection);
 1493              		.loc 1 795 5 view .LVU482
 1494 0068 0320     		movs	r0, #3
 1495 006a 2249     		ldr	r1, .L188
 1496 006c 0B6B     		ldr	r3, [r1, #48]
 1497 006e 8343     		bics	r3, r0
 1498 0070 A868     		ldr	r0, [r5, #8]
 1499 0072 0343     		orrs	r3, r0
 1500 0074 0B63     		str	r3, [r1, #48]
 1501              	.L174:
 796:.././hal//stm32f0/stm32f0_hal_lowlevel.c ****   }
 797:.././hal//stm32f0/stm32f0_hal_lowlevel.c ****   
 798:.././hal//stm32f0/stm32f0_hal_lowlevel.c **** #if defined(STM32F071xB) || defined(STM32F072xB) || defined(STM32F078xx)\
 799:.././hal//stm32f0/stm32f0_hal_lowlevel.c ****  || defined(STM32F091xC) || defined(STM32F098xx)
 800:.././hal//stm32f0/stm32f0_hal_lowlevel.c ****   /*----------------------------- USART2 Configuration --------------------------*/ 
 801:.././hal//stm32f0/stm32f0_hal_lowlevel.c ****   if(((PeriphClkInit->PeriphClockSelection) & RCC_PERIPHCLK_USART2) == RCC_PERIPHCLK_USART2)
 802:.././hal//stm32f0/stm32f0_hal_lowlevel.c ****   {
 803:.././hal//stm32f0/stm32f0_hal_lowlevel.c ****     /* Check the parameters */
 804:.././hal//stm32f0/stm32f0_hal_lowlevel.c ****     assert_param(IS_RCC_USART2CLKSOURCE(PeriphClkInit->Usart2ClockSelection));
 805:.././hal//stm32f0/stm32f0_hal_lowlevel.c ****     
 806:.././hal//stm32f0/stm32f0_hal_lowlevel.c ****     /* Configure the USART2 clock source */
 807:.././hal//stm32f0/stm32f0_hal_lowlevel.c ****     __HAL_RCC_USART2_CONFIG(PeriphClkInit->Usart2ClockSelection);
 808:.././hal//stm32f0/stm32f0_hal_lowlevel.c ****   }
 809:.././hal//stm32f0/stm32f0_hal_lowlevel.c **** #endif /* STM32F071xB || STM32F072xB || STM32F078xx || */
 810:.././hal//stm32f0/stm32f0_hal_lowlevel.c ****        /* STM32F091xC || STM32F098xx */
 811:.././hal//stm32f0/stm32f0_hal_lowlevel.c **** 
 812:.././hal//stm32f0/stm32f0_hal_lowlevel.c **** #if defined(STM32F091xC) || defined(STM32F098xx)
 813:.././hal//stm32f0/stm32f0_hal_lowlevel.c ****   /*----------------------------- USART3 Configuration --------------------------*/ 
 814:.././hal//stm32f0/stm32f0_hal_lowlevel.c ****   if(((PeriphClkInit->PeriphClockSelection) & RCC_PERIPHCLK_USART3) == RCC_PERIPHCLK_USART3)
 815:.././hal//stm32f0/stm32f0_hal_lowlevel.c ****   {
 816:.././hal//stm32f0/stm32f0_hal_lowlevel.c ****     /* Check the parameters */
 817:.././hal//stm32f0/stm32f0_hal_lowlevel.c ****     assert_param(IS_RCC_USART3CLKSOURCE(PeriphClkInit->Usart3ClockSelection));
 818:.././hal//stm32f0/stm32f0_hal_lowlevel.c ****     
 819:.././hal//stm32f0/stm32f0_hal_lowlevel.c ****     /* Configure the USART3 clock source */
 820:.././hal//stm32f0/stm32f0_hal_lowlevel.c ****     __HAL_RCC_USART3_CONFIG(PeriphClkInit->Usart3ClockSelection);
 821:.././hal//stm32f0/stm32f0_hal_lowlevel.c ****   }
 822:.././hal//stm32f0/stm32f0_hal_lowlevel.c **** #endif /* STM32F091xC || STM32F098xx */  
 823:.././hal//stm32f0/stm32f0_hal_lowlevel.c **** 
 824:.././hal//stm32f0/stm32f0_hal_lowlevel.c ****   /*------------------------------ I2C1 Configuration ------------------------*/ 
 825:.././hal//stm32f0/stm32f0_hal_lowlevel.c ****   if(((PeriphClkInit->PeriphClockSelection) & RCC_PERIPHCLK_I2C1) == RCC_PERIPHCLK_I2C1)
 1502              		.loc 1 825 3 view .LVU483
 1503              		.loc 1 825 5 is_stmt 0 view .LVU484
 1504 0076 9206     		lsls	r2, r2, #26
 1505 0078 34D4     		bmi	.L175
 1506              	.L176:
 826:.././hal//stm32f0/stm32f0_hal_lowlevel.c ****   {
 827:.././hal//stm32f0/stm32f0_hal_lowlevel.c ****     /* Check the parameters */
 828:.././hal//stm32f0/stm32f0_hal_lowlevel.c ****     assert_param(IS_RCC_I2C1CLKSOURCE(PeriphClkInit->I2c1ClockSelection));
 829:.././hal//stm32f0/stm32f0_hal_lowlevel.c ****     
 830:.././hal//stm32f0/stm32f0_hal_lowlevel.c ****     /* Configure the I2C1 clock source */
 831:.././hal//stm32f0/stm32f0_hal_lowlevel.c ****     __HAL_RCC_I2C1_CONFIG(PeriphClkInit->I2c1ClockSelection);
 832:.././hal//stm32f0/stm32f0_hal_lowlevel.c ****   }
 833:.././hal//stm32f0/stm32f0_hal_lowlevel.c **** 
 834:.././hal//stm32f0/stm32f0_hal_lowlevel.c **** #if defined(STM32F042x6) || defined(STM32F048xx) || defined(STM32F072xB) || defined(STM32F078xx) ||
 835:.././hal//stm32f0/stm32f0_hal_lowlevel.c ****   /*------------------------------ USB Configuration ------------------------*/ 
 836:.././hal//stm32f0/stm32f0_hal_lowlevel.c ****   if(((PeriphClkInit->PeriphClockSelection) & RCC_PERIPHCLK_USB) == RCC_PERIPHCLK_USB)
 837:.././hal//stm32f0/stm32f0_hal_lowlevel.c ****   {
 838:.././hal//stm32f0/stm32f0_hal_lowlevel.c ****     /* Check the parameters */
 839:.././hal//stm32f0/stm32f0_hal_lowlevel.c ****     assert_param(IS_RCC_USBCLKSOURCE(PeriphClkInit->UsbClockSelection));
 840:.././hal//stm32f0/stm32f0_hal_lowlevel.c ****     
 841:.././hal//stm32f0/stm32f0_hal_lowlevel.c ****     /* Configure the USB clock source */
 842:.././hal//stm32f0/stm32f0_hal_lowlevel.c ****     __HAL_RCC_USB_CONFIG(PeriphClkInit->UsbClockSelection);
 843:.././hal//stm32f0/stm32f0_hal_lowlevel.c ****   }
 844:.././hal//stm32f0/stm32f0_hal_lowlevel.c **** #endif /* STM32F042x6 || STM32F048xx || STM32F072xB || STM32F078xx || STM32F070xB || STM32F070x6 */
 845:.././hal//stm32f0/stm32f0_hal_lowlevel.c **** 
 846:.././hal//stm32f0/stm32f0_hal_lowlevel.c **** #if defined(STM32F042x6) || defined(STM32F048xx)\
 847:.././hal//stm32f0/stm32f0_hal_lowlevel.c ****  || defined(STM32F051x8) || defined(STM32F058xx)\
 848:.././hal//stm32f0/stm32f0_hal_lowlevel.c ****  || defined(STM32F071xB) || defined(STM32F072xB) || defined(STM32F078xx)\
 849:.././hal//stm32f0/stm32f0_hal_lowlevel.c ****  || defined(STM32F091xC) || defined(STM32F098xx)
 850:.././hal//stm32f0/stm32f0_hal_lowlevel.c ****   /*------------------------------ CEC clock Configuration -------------------*/ 
 851:.././hal//stm32f0/stm32f0_hal_lowlevel.c ****   if(((PeriphClkInit->PeriphClockSelection) & RCC_PERIPHCLK_CEC) == RCC_PERIPHCLK_CEC)
 852:.././hal//stm32f0/stm32f0_hal_lowlevel.c ****   {
 853:.././hal//stm32f0/stm32f0_hal_lowlevel.c ****     /* Check the parameters */
 854:.././hal//stm32f0/stm32f0_hal_lowlevel.c ****     assert_param(IS_RCC_CECCLKSOURCE(PeriphClkInit->CecClockSelection));
 855:.././hal//stm32f0/stm32f0_hal_lowlevel.c ****     
 856:.././hal//stm32f0/stm32f0_hal_lowlevel.c ****     /* Configure the CEC clock source */
 857:.././hal//stm32f0/stm32f0_hal_lowlevel.c ****     __HAL_RCC_CEC_CONFIG(PeriphClkInit->CecClockSelection);
 858:.././hal//stm32f0/stm32f0_hal_lowlevel.c ****   }
 859:.././hal//stm32f0/stm32f0_hal_lowlevel.c **** #endif /* STM32F042x6 || STM32F048xx ||                */
 860:.././hal//stm32f0/stm32f0_hal_lowlevel.c ****        /* STM32F051x8 || STM32F058xx ||                */
 861:.././hal//stm32f0/stm32f0_hal_lowlevel.c ****        /* STM32F071xB || STM32F072xB || STM32F078xx || */
 862:.././hal//stm32f0/stm32f0_hal_lowlevel.c ****        /* STM32F091xC || STM32F098xx */
 863:.././hal//stm32f0/stm32f0_hal_lowlevel.c ****   
 864:.././hal//stm32f0/stm32f0_hal_lowlevel.c ****   return HAL_OK;
 1507              		.loc 1 864 10 view .LVU485
 1508 007a 0020     		movs	r0, #0
 1509 007c 0FE0     		b	.L166
 1510              	.LVL100:
 1511              	.L162:
 1512              	.LBB16:
 737:.././hal//stm32f0/stm32f0_hal_lowlevel.c ****       
 1513              		.loc 1 737 7 is_stmt 1 view .LVU486
 1514 007e 3368     		ldr	r3, [r6]
 1515 0080 3B43     		orrs	r3, r7
 1516 0082 3360     		str	r3, [r6]
 740:.././hal//stm32f0/stm32f0_hal_lowlevel.c ****       
 1517              		.loc 1 740 7 view .LVU487
 740:.././hal//stm32f0/stm32f0_hal_lowlevel.c ****       
 1518              		.loc 1 740 19 is_stmt 0 view .LVU488
 1519 0084 FFF7FEFF 		bl	HAL_GetTick
 1520              	.LVL101:
 740:.././hal//stm32f0/stm32f0_hal_lowlevel.c ****       
 1521              		.loc 1 740 19 view .LVU489
 1522 0088 0190     		str	r0, [sp, #4]
 1523              	.LVL102:
 742:.././hal//stm32f0/stm32f0_hal_lowlevel.c ****       {
 1524              		.loc 1 742 7 is_stmt 1 view .LVU490
 1525              	.L165:
 742:.././hal//stm32f0/stm32f0_hal_lowlevel.c ****       {
 1526              		.loc 1 742 13 view .LVU491
 1527 008a 3368     		ldr	r3, [r6]
 1528 008c 3B42     		tst	r3, r7
 1529 008e D4D1     		bne	.L168
 744:.././hal//stm32f0/stm32f0_hal_lowlevel.c ****         {
 1530              		.loc 1 744 9 view .LVU492
 744:.././hal//stm32f0/stm32f0_hal_lowlevel.c ****         {
 1531              		.loc 1 744 13 is_stmt 0 view .LVU493
 1532 0090 FFF7FEFF 		bl	HAL_GetTick
 1533              	.LVL103:
 744:.././hal//stm32f0/stm32f0_hal_lowlevel.c ****         {
 1534              		.loc 1 744 27 discriminator 1 view .LVU494
 1535 0094 019B     		ldr	r3, [sp, #4]
 1536 0096 C01A     		subs	r0, r0, r3
 744:.././hal//stm32f0/stm32f0_hal_lowlevel.c ****         {
 1537              		.loc 1 744 11 discriminator 1 view .LVU495
 1538 0098 6428     		cmp	r0, #100
 1539 009a F6D9     		bls	.L165
 1540              	.LVL104:
 1541              	.L172:
 746:.././hal//stm32f0/stm32f0_hal_lowlevel.c ****         }
 1542              		.loc 1 746 18 view .LVU496
 1543 009c 0320     		movs	r0, #3
 1544              	.LVL105:
 1545              	.L166:
 746:.././hal//stm32f0/stm32f0_hal_lowlevel.c ****         }
 1546              		.loc 1 746 18 view .LVU497
 1547              	.LBE16:
 865:.././hal//stm32f0/stm32f0_hal_lowlevel.c **** }
 1548              		.loc 1 865 1 view .LVU498
 1549 009e 05B0     		add	sp, sp, #20
 1550              		@ sp needed
 1551              	.LVL106:
 1552              		.loc 1 865 1 view .LVU499
 1553 00a0 F0BD     		pop	{r4, r5, r6, r7, pc}
 1554              	.LVL107:
 1555              	.L163:
 1556              	.LBB17:
 753:.././hal//stm32f0/stm32f0_hal_lowlevel.c ****     {
 1557              		.loc 1 753 84 discriminator 1 view .LVU500
 1558 00a2 6B68     		ldr	r3, [r5, #4]
 1559 00a4 1340     		ands	r3, r2
 753:.././hal//stm32f0/stm32f0_hal_lowlevel.c ****     {
 1560              		.loc 1 753 34 discriminator 1 view .LVU501
 1561 00a6 8B42     		cmp	r3, r1
 1562 00a8 CFD0     		beq	.L164
 756:.././hal//stm32f0/stm32f0_hal_lowlevel.c ****       /* RTC Clock selection can be changed only if the Backup Domain is reset */
 1563              		.loc 1 756 7 is_stmt 1 view .LVU502
 758:.././hal//stm32f0/stm32f0_hal_lowlevel.c ****       __HAL_RCC_BACKUPRESET_RELEASE();
 1564              		.loc 1 758 7 is_stmt 0 view .LVU503
 1565 00aa 8022     		movs	r2, #128
 756:.././hal//stm32f0/stm32f0_hal_lowlevel.c ****       /* RTC Clock selection can be changed only if the Backup Domain is reset */
 1566              		.loc 1 756 22 view .LVU504
 1567 00ac 236A     		ldr	r3, [r4, #32]
 758:.././hal//stm32f0/stm32f0_hal_lowlevel.c ****       __HAL_RCC_BACKUPRESET_RELEASE();
 1568              		.loc 1 758 7 view .LVU505
 1569 00ae 206A     		ldr	r0, [r4, #32]
 756:.././hal//stm32f0/stm32f0_hal_lowlevel.c ****       /* RTC Clock selection can be changed only if the Backup Domain is reset */
 1570              		.loc 1 756 16 view .LVU506
 1571 00b0 1900     		movs	r1, r3
 1572              	.LVL108:
 758:.././hal//stm32f0/stm32f0_hal_lowlevel.c ****       __HAL_RCC_BACKUPRESET_RELEASE();
 1573              		.loc 1 758 7 view .LVU507
 1574 00b2 5202     		lsls	r2, r2, #9
 1575 00b4 0243     		orrs	r2, r0
 1576 00b6 2262     		str	r2, [r4, #32]
 759:.././hal//stm32f0/stm32f0_hal_lowlevel.c ****       /* Restore the Content of BDCR register */
 1577              		.loc 1 759 7 view .LVU508
 1578 00b8 226A     		ldr	r2, [r4, #32]
 1579 00ba 1248     		ldr	r0, .L188+16
 756:.././hal//stm32f0/stm32f0_hal_lowlevel.c ****       /* RTC Clock selection can be changed only if the Backup Domain is reset */
 1580              		.loc 1 756 16 view .LVU509
 1581 00bc 3140     		ands	r1, r6
 1582              	.LVL109:
 758:.././hal//stm32f0/stm32f0_hal_lowlevel.c ****       __HAL_RCC_BACKUPRESET_RELEASE();
 1583              		.loc 1 758 7 is_stmt 1 view .LVU510
 759:.././hal//stm32f0/stm32f0_hal_lowlevel.c ****       /* Restore the Content of BDCR register */
 1584              		.loc 1 759 7 view .LVU511
 1585 00be 0240     		ands	r2, r0
 1586 00c0 2262     		str	r2, [r4, #32]
 761:.././hal//stm32f0/stm32f0_hal_lowlevel.c ****       
 1587              		.loc 1 761 7 view .LVU512
 761:.././hal//stm32f0/stm32f0_hal_lowlevel.c ****       
 1588              		.loc 1 761 17 is_stmt 0 view .LVU513
 1589 00c2 2162     		str	r1, [r4, #32]
 764:.././hal//stm32f0/stm32f0_hal_lowlevel.c ****       {
 1590              		.loc 1 764 7 is_stmt 1 view .LVU514
 764:.././hal//stm32f0/stm32f0_hal_lowlevel.c ****       {
 1591              		.loc 1 764 10 is_stmt 0 view .LVU515
 1592 00c4 DB07     		lsls	r3, r3, #31
 1593 00c6 C0D5     		bpl	.L164
 767:.././hal//stm32f0/stm32f0_hal_lowlevel.c ****         
 1594              		.loc 1 767 9 is_stmt 1 view .LVU516
 767:.././hal//stm32f0/stm32f0_hal_lowlevel.c ****         
 1595              		.loc 1 767 21 is_stmt 0 view .LVU517
 1596 00c8 FFF7FEFF 		bl	HAL_GetTick
 1597              	.LVL110:
 767:.././hal//stm32f0/stm32f0_hal_lowlevel.c ****         
 1598              		.loc 1 767 21 view .LVU518
 1599 00cc 0700     		movs	r7, r0
 1600              	.LVL111:
 770:.././hal//stm32f0/stm32f0_hal_lowlevel.c ****         {
 1601              		.loc 1 770 9 is_stmt 1 view .LVU519
 1602              	.L171:
 770:.././hal//stm32f0/stm32f0_hal_lowlevel.c ****         {
 1603              		.loc 1 770 51 view .LVU520
 1604 00ce 0222     		movs	r2, #2
 770:.././hal//stm32f0/stm32f0_hal_lowlevel.c ****         {
 1605              		.loc 1 770 15 is_stmt 0 view .LVU521
 1606 00d0 236A     		ldr	r3, [r4, #32]
 770:.././hal//stm32f0/stm32f0_hal_lowlevel.c ****         {
 1607              		.loc 1 770 51 view .LVU522
 1608 00d2 1342     		tst	r3, r2
 1609 00d4 B9D1     		bne	.L164
 772:.././hal//stm32f0/stm32f0_hal_lowlevel.c ****           {
 1610              		.loc 1 772 11 is_stmt 1 view .LVU523
 772:.././hal//stm32f0/stm32f0_hal_lowlevel.c ****           {
 1611              		.loc 1 772 15 is_stmt 0 view .LVU524
 1612 00d6 FFF7FEFF 		bl	HAL_GetTick
 1613              	.LVL112:
 772:.././hal//stm32f0/stm32f0_hal_lowlevel.c ****           {
 1614              		.loc 1 772 13 discriminator 1 view .LVU525
 1615 00da 0B4B     		ldr	r3, .L188+20
 772:.././hal//stm32f0/stm32f0_hal_lowlevel.c ****           {
 1616              		.loc 1 772 29 discriminator 1 view .LVU526
 1617 00dc C01B     		subs	r0, r0, r7
 772:.././hal//stm32f0/stm32f0_hal_lowlevel.c ****           {
 1618              		.loc 1 772 13 discriminator 1 view .LVU527
 1619 00de 9842     		cmp	r0, r3
 1620 00e0 F5D9     		bls	.L171
 1621 00e2 DBE7     		b	.L172
 1622              	.LVL113:
 1623              	.L175:
 772:.././hal//stm32f0/stm32f0_hal_lowlevel.c ****           {
 1624              		.loc 1 772 13 discriminator 1 view .LVU528
 1625              	.LBE17:
 828:.././hal//stm32f0/stm32f0_hal_lowlevel.c ****     
 1626              		.loc 1 828 5 is_stmt 1 view .LVU529
 831:.././hal//stm32f0/stm32f0_hal_lowlevel.c ****   }
 1627              		.loc 1 831 5 view .LVU530
 1628 00e4 1021     		movs	r1, #16
 1629 00e6 034A     		ldr	r2, .L188
 1630 00e8 136B     		ldr	r3, [r2, #48]
 1631 00ea 8B43     		bics	r3, r1
 1632 00ec E968     		ldr	r1, [r5, #12]
 1633 00ee 0B43     		orrs	r3, r1
 1634 00f0 1363     		str	r3, [r2, #48]
 1635 00f2 C2E7     		b	.L176
 1636              	.L189:
 1637              		.align	2
 1638              	.L188:
 1639 00f4 00100240 		.word	1073876992
 1640 00f8 00700040 		.word	1073770496
 1641 00fc FFFCFFFF 		.word	-769
 1642 0100 FFFFFFEF 		.word	-268435457
 1643 0104 FFFFFEFF 		.word	-65537
 1644 0108 88130000 		.word	5000
 1645              		.cfi_endproc
 1646              	.LFE43:
 1648              		.section	.text.HAL_GPIO_Init,"ax",%progbits
 1649              		.align	1
 1650              		.global	HAL_GPIO_Init
 1651              		.syntax unified
 1652              		.code	16
 1653              		.thumb_func
 1655              	HAL_GPIO_Init:
 1656              	.LVL114:
 1657              	.LFB44:
 866:.././hal//stm32f0/stm32f0_hal_lowlevel.c **** 
 867:.././hal//stm32f0/stm32f0_hal_lowlevel.c **** 
 868:.././hal//stm32f0/stm32f0_hal_lowlevel.c **** 
 869:.././hal//stm32f0/stm32f0_hal_lowlevel.c **** #define GPIO_MODE             (0x00000003U)
 870:.././hal//stm32f0/stm32f0_hal_lowlevel.c **** #define EXTI_MODE             (0x10000000U)
 871:.././hal//stm32f0/stm32f0_hal_lowlevel.c **** #define GPIO_MODE_IT          (0x00010000U)
 872:.././hal//stm32f0/stm32f0_hal_lowlevel.c **** #define GPIO_MODE_EVT         (0x00020000U)
 873:.././hal//stm32f0/stm32f0_hal_lowlevel.c **** #define RISING_EDGE           (0x00100000U)
 874:.././hal//stm32f0/stm32f0_hal_lowlevel.c **** #define FALLING_EDGE          (0x00200000U)
 875:.././hal//stm32f0/stm32f0_hal_lowlevel.c **** #define GPIO_OUTPUT_TYPE      (0x00000010U)
 876:.././hal//stm32f0/stm32f0_hal_lowlevel.c **** 
 877:.././hal//stm32f0/stm32f0_hal_lowlevel.c **** #define GPIO_NUMBER           (16U)
 878:.././hal//stm32f0/stm32f0_hal_lowlevel.c **** 
 879:.././hal//stm32f0/stm32f0_hal_lowlevel.c **** #define __HAL_RCC_GPIOA_CLK_ENABLE()   do { \
 880:.././hal//stm32f0/stm32f0_hal_lowlevel.c ****                                         __IO uint32_t tmpreg; \
 881:.././hal//stm32f0/stm32f0_hal_lowlevel.c ****                                         SET_BIT(RCC->AHBENR, RCC_AHBENR_GPIOAEN);\
 882:.././hal//stm32f0/stm32f0_hal_lowlevel.c ****                                         /* Delay after an RCC peripheral clock enabling */\
 883:.././hal//stm32f0/stm32f0_hal_lowlevel.c ****                                         tmpreg = READ_BIT(RCC->AHBENR, RCC_AHBENR_GPIOAEN);\
 884:.././hal//stm32f0/stm32f0_hal_lowlevel.c ****                                         UNUSED(tmpreg); \
 885:.././hal//stm32f0/stm32f0_hal_lowlevel.c ****                                       } while(0)
 886:.././hal//stm32f0/stm32f0_hal_lowlevel.c **** #define __HAL_RCC_USART1_CLK_ENABLE()   do { \
 887:.././hal//stm32f0/stm32f0_hal_lowlevel.c ****                                         __IO uint32_t tmpreg; \
 888:.././hal//stm32f0/stm32f0_hal_lowlevel.c ****                                         SET_BIT(RCC->APB2ENR, RCC_APB2ENR_USART1EN);\
 889:.././hal//stm32f0/stm32f0_hal_lowlevel.c ****                                         /* Delay after an RCC peripheral clock enabling */\
 890:.././hal//stm32f0/stm32f0_hal_lowlevel.c ****                                         tmpreg = READ_BIT(RCC->APB2ENR, RCC_APB2ENR_USART1EN);\
 891:.././hal//stm32f0/stm32f0_hal_lowlevel.c ****                                         UNUSED(tmpreg); \
 892:.././hal//stm32f0/stm32f0_hal_lowlevel.c ****                                       } while(0)
 893:.././hal//stm32f0/stm32f0_hal_lowlevel.c **** 
 894:.././hal//stm32f0/stm32f0_hal_lowlevel.c **** /**
 895:.././hal//stm32f0/stm32f0_hal_lowlevel.c ****   * @brief  Initialize the GPIOx peripheral according to the specified parameters in the GPIO_Init.
 896:.././hal//stm32f0/stm32f0_hal_lowlevel.c ****   * @param  GPIOx: where x can be (A..F) to select the GPIO peripheral for STM32F0 family
 897:.././hal//stm32f0/stm32f0_hal_lowlevel.c ****   * @param  GPIO_Init: pointer to a GPIO_InitTypeDef structure that contains
 898:.././hal//stm32f0/stm32f0_hal_lowlevel.c ****   *         the configuration information for the specified GPIO peripheral.
 899:.././hal//stm32f0/stm32f0_hal_lowlevel.c ****   * @retval None
 900:.././hal//stm32f0/stm32f0_hal_lowlevel.c ****   */
 901:.././hal//stm32f0/stm32f0_hal_lowlevel.c **** void HAL_GPIO_Init(GPIO_TypeDef  *GPIOx, GPIO_InitTypeDef *GPIO_Init)
 902:.././hal//stm32f0/stm32f0_hal_lowlevel.c **** { 
 1658              		.loc 1 902 1 view -0
 1659              		.cfi_startproc
 1660              		@ args = 0, pretend = 0, frame = 24
 1661              		@ frame_needed = 0, uses_anonymous_args = 0
 903:.././hal//stm32f0/stm32f0_hal_lowlevel.c ****   uint32_t position = 0x00U;
 1662              		.loc 1 903 3 view .LVU532
 904:.././hal//stm32f0/stm32f0_hal_lowlevel.c ****   uint32_t iocurrent = 0x00U;
 1663              		.loc 1 904 3 view .LVU533
 905:.././hal//stm32f0/stm32f0_hal_lowlevel.c ****   uint32_t temp = 0x00U;
 1664              		.loc 1 905 3 view .LVU534
 906:.././hal//stm32f0/stm32f0_hal_lowlevel.c **** 
 907:.././hal//stm32f0/stm32f0_hal_lowlevel.c ****   /* Check the parameters */
 908:.././hal//stm32f0/stm32f0_hal_lowlevel.c ****   assert_param(IS_GPIO_ALL_INSTANCE(GPIOx));
 1665              		.loc 1 908 3 view .LVU535
 909:.././hal//stm32f0/stm32f0_hal_lowlevel.c ****   assert_param(IS_GPIO_PIN(GPIO_Init->Pin));
 1666              		.loc 1 909 3 view .LVU536
 910:.././hal//stm32f0/stm32f0_hal_lowlevel.c ****   assert_param(IS_GPIO_MODE(GPIO_Init->Mode));
 1667              		.loc 1 910 3 view .LVU537
 911:.././hal//stm32f0/stm32f0_hal_lowlevel.c ****   assert_param(IS_GPIO_PULL(GPIO_Init->Pull)); 
 1668              		.loc 1 911 3 view .LVU538
 912:.././hal//stm32f0/stm32f0_hal_lowlevel.c **** 
 913:.././hal//stm32f0/stm32f0_hal_lowlevel.c ****   /* Configure the port pins */
 914:.././hal//stm32f0/stm32f0_hal_lowlevel.c ****   while (((GPIO_Init->Pin) >> position) != RESET)
 1669              		.loc 1 914 3 view .LVU539
 903:.././hal//stm32f0/stm32f0_hal_lowlevel.c ****   uint32_t iocurrent = 0x00U;
 1670              		.loc 1 903 12 is_stmt 0 view .LVU540
 1671 0000 0023     		movs	r3, #0
 902:.././hal//stm32f0/stm32f0_hal_lowlevel.c ****   uint32_t position = 0x00U;
 1672              		.loc 1 902 1 view .LVU541
 1673 0002 F0B5     		push	{r4, r5, r6, r7, lr}
 1674              	.LCFI5:
 1675              		.cfi_def_cfa_offset 20
 1676              		.cfi_offset 4, -20
 1677              		.cfi_offset 5, -16
 1678              		.cfi_offset 6, -12
 1679              		.cfi_offset 7, -8
 1680              		.cfi_offset 14, -4
 1681 0004 87B0     		sub	sp, sp, #28
 1682              	.LCFI6:
 1683              		.cfi_def_cfa_offset 48
 1684              	.LVL115:
 1685              	.L191:
 1686              		.loc 1 914 41 is_stmt 1 view .LVU542
 1687              		.loc 1 914 21 is_stmt 0 view .LVU543
 1688 0006 0A68     		ldr	r2, [r1]
 1689              		.loc 1 914 28 view .LVU544
 1690 0008 1400     		movs	r4, r2
 1691 000a DC40     		lsrs	r4, r4, r3
 1692              		.loc 1 914 41 view .LVU545
 1693 000c 01D1     		bne	.L206
 915:.././hal//stm32f0/stm32f0_hal_lowlevel.c ****   {
 916:.././hal//stm32f0/stm32f0_hal_lowlevel.c ****     /* Get current io position */
 917:.././hal//stm32f0/stm32f0_hal_lowlevel.c ****     iocurrent = (GPIO_Init->Pin) & (1U << position);
 918:.././hal//stm32f0/stm32f0_hal_lowlevel.c ****     
 919:.././hal//stm32f0/stm32f0_hal_lowlevel.c ****     if(iocurrent)
 920:.././hal//stm32f0/stm32f0_hal_lowlevel.c ****     {
 921:.././hal//stm32f0/stm32f0_hal_lowlevel.c ****       /*--------------------- GPIO Mode Configuration ------------------------*/
 922:.././hal//stm32f0/stm32f0_hal_lowlevel.c ****       /* In case of Alternate function mode selection */
 923:.././hal//stm32f0/stm32f0_hal_lowlevel.c ****       if((GPIO_Init->Mode == GPIO_MODE_AF_PP) || (GPIO_Init->Mode == GPIO_MODE_AF_OD)) 
 924:.././hal//stm32f0/stm32f0_hal_lowlevel.c ****       {
 925:.././hal//stm32f0/stm32f0_hal_lowlevel.c ****         /* Check the Alternate function parameters */
 926:.././hal//stm32f0/stm32f0_hal_lowlevel.c ****         assert_param(IS_GPIO_AF_INSTANCE(GPIOx));
 927:.././hal//stm32f0/stm32f0_hal_lowlevel.c ****         assert_param(IS_GPIO_AF(GPIO_Init->Alternate));
 928:.././hal//stm32f0/stm32f0_hal_lowlevel.c ****         
 929:.././hal//stm32f0/stm32f0_hal_lowlevel.c ****         /* Configure Alternate function mapped with the current IO */ 
 930:.././hal//stm32f0/stm32f0_hal_lowlevel.c ****         temp = GPIOx->AFR[position >> 3];
 931:.././hal//stm32f0/stm32f0_hal_lowlevel.c ****         CLEAR_BIT(temp, 0xFU << ((uint32_t)(position & 0x07U) * 4U)) ;      
 932:.././hal//stm32f0/stm32f0_hal_lowlevel.c ****         SET_BIT(temp, (uint32_t)(GPIO_Init->Alternate) << (((uint32_t)position & 0x07U) * 4U));    
 933:.././hal//stm32f0/stm32f0_hal_lowlevel.c ****         GPIOx->AFR[position >> 3U] = temp;
 934:.././hal//stm32f0/stm32f0_hal_lowlevel.c ****       }
 935:.././hal//stm32f0/stm32f0_hal_lowlevel.c **** 
 936:.././hal//stm32f0/stm32f0_hal_lowlevel.c ****       /* Configure IO Direction mode (Input, Output, Alternate or Analog) */
 937:.././hal//stm32f0/stm32f0_hal_lowlevel.c ****       temp = GPIOx->MODER;
 938:.././hal//stm32f0/stm32f0_hal_lowlevel.c ****       CLEAR_BIT(temp, GPIO_MODER_MODER0 << (position * 2U));   
 939:.././hal//stm32f0/stm32f0_hal_lowlevel.c ****       SET_BIT(temp, (GPIO_Init->Mode & GPIO_MODE) << (position * 2U));
 940:.././hal//stm32f0/stm32f0_hal_lowlevel.c ****       GPIOx->MODER = temp;
 941:.././hal//stm32f0/stm32f0_hal_lowlevel.c **** 
 942:.././hal//stm32f0/stm32f0_hal_lowlevel.c ****       /* In case of Output or Alternate function mode selection */
 943:.././hal//stm32f0/stm32f0_hal_lowlevel.c ****       if ((GPIO_Init->Mode == GPIO_MODE_OUTPUT_PP) || (GPIO_Init->Mode == GPIO_MODE_AF_PP) ||
 944:.././hal//stm32f0/stm32f0_hal_lowlevel.c ****           (GPIO_Init->Mode == GPIO_MODE_OUTPUT_OD) || (GPIO_Init->Mode == GPIO_MODE_AF_OD))
 945:.././hal//stm32f0/stm32f0_hal_lowlevel.c ****       {
 946:.././hal//stm32f0/stm32f0_hal_lowlevel.c ****         /* Check the Speed parameter */
 947:.././hal//stm32f0/stm32f0_hal_lowlevel.c ****         assert_param(IS_GPIO_SPEED(GPIO_Init->Speed));
 948:.././hal//stm32f0/stm32f0_hal_lowlevel.c ****         /* Configure the IO Speed */
 949:.././hal//stm32f0/stm32f0_hal_lowlevel.c ****         temp = GPIOx->OSPEEDR; 
 950:.././hal//stm32f0/stm32f0_hal_lowlevel.c ****         CLEAR_BIT(temp, GPIO_OSPEEDER_OSPEEDR0 << (position * 2U));
 951:.././hal//stm32f0/stm32f0_hal_lowlevel.c ****         SET_BIT(temp, GPIO_Init->Speed << (position * 2U));
 952:.././hal//stm32f0/stm32f0_hal_lowlevel.c ****         GPIOx->OSPEEDR = temp;
 953:.././hal//stm32f0/stm32f0_hal_lowlevel.c **** 
 954:.././hal//stm32f0/stm32f0_hal_lowlevel.c ****         /* Configure the IO Output Type */
 955:.././hal//stm32f0/stm32f0_hal_lowlevel.c ****         temp = GPIOx->OTYPER;
 956:.././hal//stm32f0/stm32f0_hal_lowlevel.c ****         CLEAR_BIT(temp, GPIO_OTYPER_OT_0 << position) ;
 957:.././hal//stm32f0/stm32f0_hal_lowlevel.c ****         SET_BIT(temp, ((GPIO_Init->Mode & GPIO_OUTPUT_TYPE) >> 4U) << position);
 958:.././hal//stm32f0/stm32f0_hal_lowlevel.c ****         GPIOx->OTYPER = temp;
 959:.././hal//stm32f0/stm32f0_hal_lowlevel.c ****       }
 960:.././hal//stm32f0/stm32f0_hal_lowlevel.c **** 
 961:.././hal//stm32f0/stm32f0_hal_lowlevel.c ****       /* Activate the Pull-up or Pull down resistor for the current IO */
 962:.././hal//stm32f0/stm32f0_hal_lowlevel.c ****       temp = GPIOx->PUPDR;
 963:.././hal//stm32f0/stm32f0_hal_lowlevel.c ****       CLEAR_BIT(temp, GPIO_PUPDR_PUPDR0 << (position * 2U));
 964:.././hal//stm32f0/stm32f0_hal_lowlevel.c ****       SET_BIT(temp, (GPIO_Init->Pull) << (position * 2U));
 965:.././hal//stm32f0/stm32f0_hal_lowlevel.c ****       GPIOx->PUPDR = temp;
 966:.././hal//stm32f0/stm32f0_hal_lowlevel.c **** 
 967:.././hal//stm32f0/stm32f0_hal_lowlevel.c ****       /*--------------------- EXTI Mode Configuration ------------------------*/
 968:.././hal//stm32f0/stm32f0_hal_lowlevel.c ****       /* Configure the External Interrupt or event for the current IO */
 969:.././hal//stm32f0/stm32f0_hal_lowlevel.c ****       if((GPIO_Init->Mode & EXTI_MODE) == EXTI_MODE) 
 970:.././hal//stm32f0/stm32f0_hal_lowlevel.c ****       {
 971:.././hal//stm32f0/stm32f0_hal_lowlevel.c ****         /* Enable SYSCFG Clock */
 972:.././hal//stm32f0/stm32f0_hal_lowlevel.c ****         __HAL_RCC_SYSCFG_CLK_ENABLE();
 973:.././hal//stm32f0/stm32f0_hal_lowlevel.c ****   
 974:.././hal//stm32f0/stm32f0_hal_lowlevel.c ****         temp = SYSCFG->EXTICR[position >> 2];
 975:.././hal//stm32f0/stm32f0_hal_lowlevel.c ****         CLEAR_BIT(temp, (0x0FU) << (4U * (position & 0x03U)));
 976:.././hal//stm32f0/stm32f0_hal_lowlevel.c ****         SET_BIT(temp, (GPIO_GET_INDEX(GPIOx)) << (4U * (position & 0x03U)));
 977:.././hal//stm32f0/stm32f0_hal_lowlevel.c ****         SYSCFG->EXTICR[position >> 2] = temp;
 978:.././hal//stm32f0/stm32f0_hal_lowlevel.c ****                   
 979:.././hal//stm32f0/stm32f0_hal_lowlevel.c ****         /* Clear EXTI line configuration */
 980:.././hal//stm32f0/stm32f0_hal_lowlevel.c ****         temp = EXTI->IMR;
 981:.././hal//stm32f0/stm32f0_hal_lowlevel.c ****         CLEAR_BIT(temp, (uint32_t)iocurrent);
 982:.././hal//stm32f0/stm32f0_hal_lowlevel.c ****         if((GPIO_Init->Mode & GPIO_MODE_IT) == GPIO_MODE_IT)
 983:.././hal//stm32f0/stm32f0_hal_lowlevel.c ****         {
 984:.././hal//stm32f0/stm32f0_hal_lowlevel.c ****           SET_BIT(temp, iocurrent); 
 985:.././hal//stm32f0/stm32f0_hal_lowlevel.c ****         }
 986:.././hal//stm32f0/stm32f0_hal_lowlevel.c ****         EXTI->IMR = temp;
 987:.././hal//stm32f0/stm32f0_hal_lowlevel.c **** 
 988:.././hal//stm32f0/stm32f0_hal_lowlevel.c ****         temp = EXTI->EMR;
 989:.././hal//stm32f0/stm32f0_hal_lowlevel.c ****         CLEAR_BIT(temp, (uint32_t)iocurrent);      
 990:.././hal//stm32f0/stm32f0_hal_lowlevel.c ****         if((GPIO_Init->Mode & GPIO_MODE_EVT) == GPIO_MODE_EVT)
 991:.././hal//stm32f0/stm32f0_hal_lowlevel.c ****         { 
 992:.././hal//stm32f0/stm32f0_hal_lowlevel.c ****           SET_BIT(temp, iocurrent); 
 993:.././hal//stm32f0/stm32f0_hal_lowlevel.c ****         }
 994:.././hal//stm32f0/stm32f0_hal_lowlevel.c ****         EXTI->EMR = temp;
 995:.././hal//stm32f0/stm32f0_hal_lowlevel.c ****   
 996:.././hal//stm32f0/stm32f0_hal_lowlevel.c ****         /* Clear Rising Falling edge configuration */
 997:.././hal//stm32f0/stm32f0_hal_lowlevel.c ****         temp = EXTI->RTSR;
 998:.././hal//stm32f0/stm32f0_hal_lowlevel.c ****         CLEAR_BIT(temp, (uint32_t)iocurrent); 
 999:.././hal//stm32f0/stm32f0_hal_lowlevel.c ****         if((GPIO_Init->Mode & RISING_EDGE) == RISING_EDGE)
1000:.././hal//stm32f0/stm32f0_hal_lowlevel.c ****         {
1001:.././hal//stm32f0/stm32f0_hal_lowlevel.c ****           SET_BIT(temp, iocurrent); 
1002:.././hal//stm32f0/stm32f0_hal_lowlevel.c ****         }
1003:.././hal//stm32f0/stm32f0_hal_lowlevel.c ****         EXTI->RTSR = temp;
1004:.././hal//stm32f0/stm32f0_hal_lowlevel.c **** 
1005:.././hal//stm32f0/stm32f0_hal_lowlevel.c ****         temp = EXTI->FTSR;
1006:.././hal//stm32f0/stm32f0_hal_lowlevel.c ****         CLEAR_BIT(temp, (uint32_t)iocurrent); 
1007:.././hal//stm32f0/stm32f0_hal_lowlevel.c ****         if((GPIO_Init->Mode & FALLING_EDGE) == FALLING_EDGE)
1008:.././hal//stm32f0/stm32f0_hal_lowlevel.c ****         {
1009:.././hal//stm32f0/stm32f0_hal_lowlevel.c ****           SET_BIT(temp, iocurrent); 
1010:.././hal//stm32f0/stm32f0_hal_lowlevel.c ****         }
1011:.././hal//stm32f0/stm32f0_hal_lowlevel.c ****         EXTI->FTSR = temp;
1012:.././hal//stm32f0/stm32f0_hal_lowlevel.c ****       }
1013:.././hal//stm32f0/stm32f0_hal_lowlevel.c ****     }
1014:.././hal//stm32f0/stm32f0_hal_lowlevel.c ****     
1015:.././hal//stm32f0/stm32f0_hal_lowlevel.c ****     position++;
1016:.././hal//stm32f0/stm32f0_hal_lowlevel.c ****   } 
1017:.././hal//stm32f0/stm32f0_hal_lowlevel.c **** }
 1694              		.loc 1 1017 1 view .LVU546
 1695 000e 07B0     		add	sp, sp, #28
 1696              		@ sp needed
 1697 0010 F0BD     		pop	{r4, r5, r6, r7, pc}
 1698              	.L206:
 917:.././hal//stm32f0/stm32f0_hal_lowlevel.c ****     
 1699              		.loc 1 917 5 is_stmt 1 view .LVU547
 917:.././hal//stm32f0/stm32f0_hal_lowlevel.c ****     
 1700              		.loc 1 917 40 is_stmt 0 view .LVU548
 1701 0012 0126     		movs	r6, #1
 917:.././hal//stm32f0/stm32f0_hal_lowlevel.c ****     
 1702              		.loc 1 917 15 view .LVU549
 1703 0014 1400     		movs	r4, r2
 917:.././hal//stm32f0/stm32f0_hal_lowlevel.c ****     
 1704              		.loc 1 917 40 view .LVU550
 1705 0016 9E40     		lsls	r6, r6, r3
 917:.././hal//stm32f0/stm32f0_hal_lowlevel.c ****     
 1706              		.loc 1 917 15 view .LVU551
 1707 0018 3440     		ands	r4, r6
 1708 001a 0294     		str	r4, [sp, #8]
 1709              	.LVL116:
 919:.././hal//stm32f0/stm32f0_hal_lowlevel.c ****     {
 1710              		.loc 1 919 5 is_stmt 1 view .LVU552
 919:.././hal//stm32f0/stm32f0_hal_lowlevel.c ****     {
 1711              		.loc 1 919 7 is_stmt 0 view .LVU553
 1712 001c 3242     		tst	r2, r6
 1713 001e 00D1     		bne	.LCB1544
 1714 0020 92E0     		b	.L193	@long jump
 1715              	.LCB1544:
 923:.././hal//stm32f0/stm32f0_hal_lowlevel.c ****       {
 1716              		.loc 1 923 7 is_stmt 1 view .LVU554
 923:.././hal//stm32f0/stm32f0_hal_lowlevel.c ****       {
 1717              		.loc 1 923 20 is_stmt 0 view .LVU555
 1718 0022 4A68     		ldr	r2, [r1, #4]
 923:.././hal//stm32f0/stm32f0_hal_lowlevel.c ****       {
 1719              		.loc 1 923 9 view .LVU556
 1720 0024 1500     		movs	r5, r2
 923:.././hal//stm32f0/stm32f0_hal_lowlevel.c ****       {
 1721              		.loc 1 923 20 view .LVU557
 1722 0026 0192     		str	r2, [sp, #4]
 923:.././hal//stm32f0/stm32f0_hal_lowlevel.c ****       {
 1723              		.loc 1 923 9 view .LVU558
 1724 0028 1022     		movs	r2, #16
 1725 002a 9543     		bics	r5, r2
 1726 002c 0395     		str	r5, [sp, #12]
 1727 002e 022D     		cmp	r5, #2
 1728 0030 0FD1     		bne	.L194
 926:.././hal//stm32f0/stm32f0_hal_lowlevel.c ****         assert_param(IS_GPIO_AF(GPIO_Init->Alternate));
 1729              		.loc 1 926 9 is_stmt 1 view .LVU559
 927:.././hal//stm32f0/stm32f0_hal_lowlevel.c ****         
 1730              		.loc 1 927 9 view .LVU560
 930:.././hal//stm32f0/stm32f0_hal_lowlevel.c ****         CLEAR_BIT(temp, 0xFU << ((uint32_t)(position & 0x07U) * 4U)) ;      
 1731              		.loc 1 930 9 view .LVU561
 931:.././hal//stm32f0/stm32f0_hal_lowlevel.c ****         SET_BIT(temp, (uint32_t)(GPIO_Init->Alternate) << (((uint32_t)position & 0x07U) * 4U));    
 1732              		.loc 1 931 9 is_stmt 0 view .LVU562
 1733 0032 0724     		movs	r4, #7
 1734              	.LVL117:
 931:.././hal//stm32f0/stm32f0_hal_lowlevel.c ****         SET_BIT(temp, (uint32_t)(GPIO_Init->Alternate) << (((uint32_t)position & 0x07U) * 4U));    
 1735              		.loc 1 931 9 view .LVU563
 1736 0034 0F25     		movs	r5, #15
 1737 0036 1C40     		ands	r4, r3
 1738 0038 A400     		lsls	r4, r4, #2
 1739 003a A540     		lsls	r5, r5, r4
 930:.././hal//stm32f0/stm32f0_hal_lowlevel.c ****         CLEAR_BIT(temp, 0xFU << ((uint32_t)(position & 0x07U) * 4U)) ;      
 1740              		.loc 1 930 36 view .LVU564
 1741 003c DA08     		lsrs	r2, r3, #3
 1742 003e 9200     		lsls	r2, r2, #2
 1743 0040 8218     		adds	r2, r0, r2
 930:.././hal//stm32f0/stm32f0_hal_lowlevel.c ****         CLEAR_BIT(temp, 0xFU << ((uint32_t)(position & 0x07U) * 4U)) ;      
 1744              		.loc 1 930 14 view .LVU565
 1745 0042 176A     		ldr	r7, [r2, #32]
 1746              	.LVL118:
 931:.././hal//stm32f0/stm32f0_hal_lowlevel.c ****         SET_BIT(temp, (uint32_t)(GPIO_Init->Alternate) << (((uint32_t)position & 0x07U) * 4U));    
 1747              		.loc 1 931 9 is_stmt 1 view .LVU566
 1748 0044 AF43     		bics	r7, r5
 1749              	.LVL119:
 931:.././hal//stm32f0/stm32f0_hal_lowlevel.c ****         SET_BIT(temp, (uint32_t)(GPIO_Init->Alternate) << (((uint32_t)position & 0x07U) * 4U));    
 1750              		.loc 1 931 9 is_stmt 0 view .LVU567
 1751 0046 BC46     		mov	ip, r7
 1752              	.LVL120:
 932:.././hal//stm32f0/stm32f0_hal_lowlevel.c ****         GPIOx->AFR[position >> 3U] = temp;
 1753              		.loc 1 932 9 is_stmt 1 view .LVU568
 1754 0048 0F69     		ldr	r7, [r1, #16]
 1755              	.LVL121:
 932:.././hal//stm32f0/stm32f0_hal_lowlevel.c ****         GPIOx->AFR[position >> 3U] = temp;
 1756              		.loc 1 932 9 is_stmt 0 view .LVU569
 1757 004a A740     		lsls	r7, r7, r4
 1758 004c 6446     		mov	r4, ip
 1759 004e 2743     		orrs	r7, r4
 1760              	.LVL122:
 933:.././hal//stm32f0/stm32f0_hal_lowlevel.c ****       }
 1761              		.loc 1 933 9 is_stmt 1 view .LVU570
 933:.././hal//stm32f0/stm32f0_hal_lowlevel.c ****       }
 1762              		.loc 1 933 36 is_stmt 0 view .LVU571
 1763 0050 1762     		str	r7, [r2, #32]
 1764              	.LVL123:
 1765              	.L194:
 937:.././hal//stm32f0/stm32f0_hal_lowlevel.c ****       CLEAR_BIT(temp, GPIO_MODER_MODER0 << (position * 2U));   
 1766              		.loc 1 937 7 is_stmt 1 view .LVU572
 938:.././hal//stm32f0/stm32f0_hal_lowlevel.c ****       SET_BIT(temp, (GPIO_Init->Mode & GPIO_MODE) << (position * 2U));
 1767              		.loc 1 938 7 is_stmt 0 view .LVU573
 1768 0052 0322     		movs	r2, #3
 1769 0054 5C00     		lsls	r4, r3, #1
 1770 0056 A240     		lsls	r2, r2, r4
 1771 0058 D543     		mvns	r5, r2
 1772 005a AC46     		mov	ip, r5
 939:.././hal//stm32f0/stm32f0_hal_lowlevel.c ****       GPIOx->MODER = temp;
 1773              		.loc 1 939 7 view .LVU574
 1774 005c 0325     		movs	r5, #3
 937:.././hal//stm32f0/stm32f0_hal_lowlevel.c ****       CLEAR_BIT(temp, GPIO_MODER_MODER0 << (position * 2U));   
 1775              		.loc 1 937 12 view .LVU575
 1776 005e 0768     		ldr	r7, [r0]
 1777              	.LVL124:
 938:.././hal//stm32f0/stm32f0_hal_lowlevel.c ****       SET_BIT(temp, (GPIO_Init->Mode & GPIO_MODE) << (position * 2U));
 1778              		.loc 1 938 7 is_stmt 1 view .LVU576
 1779 0060 9743     		bics	r7, r2
 1780              	.LVL125:
 939:.././hal//stm32f0/stm32f0_hal_lowlevel.c ****       GPIOx->MODER = temp;
 1781              		.loc 1 939 7 view .LVU577
 1782 0062 019A     		ldr	r2, [sp, #4]
 1783 0064 2A40     		ands	r2, r5
 1784 0066 A240     		lsls	r2, r2, r4
 943:.././hal//stm32f0/stm32f0_hal_lowlevel.c ****           (GPIO_Init->Mode == GPIO_MODE_OUTPUT_OD) || (GPIO_Init->Mode == GPIO_MODE_AF_OD))
 1785              		.loc 1 943 10 is_stmt 0 view .LVU578
 1786 0068 039D     		ldr	r5, [sp, #12]
 939:.././hal//stm32f0/stm32f0_hal_lowlevel.c ****       GPIOx->MODER = temp;
 1787              		.loc 1 939 7 view .LVU579
 1788 006a 3A43     		orrs	r2, r7
 1789              	.LVL126:
 940:.././hal//stm32f0/stm32f0_hal_lowlevel.c **** 
 1790              		.loc 1 940 7 is_stmt 1 view .LVU580
 943:.././hal//stm32f0/stm32f0_hal_lowlevel.c ****           (GPIO_Init->Mode == GPIO_MODE_OUTPUT_OD) || (GPIO_Init->Mode == GPIO_MODE_AF_OD))
 1791              		.loc 1 943 10 is_stmt 0 view .LVU581
 1792 006c 013D     		subs	r5, r5, #1
 940:.././hal//stm32f0/stm32f0_hal_lowlevel.c **** 
 1793              		.loc 1 940 20 view .LVU582
 1794 006e 0260     		str	r2, [r0]
 943:.././hal//stm32f0/stm32f0_hal_lowlevel.c ****           (GPIO_Init->Mode == GPIO_MODE_OUTPUT_OD) || (GPIO_Init->Mode == GPIO_MODE_AF_OD))
 1795              		.loc 1 943 7 is_stmt 1 view .LVU583
 943:.././hal//stm32f0/stm32f0_hal_lowlevel.c ****           (GPIO_Init->Mode == GPIO_MODE_OUTPUT_OD) || (GPIO_Init->Mode == GPIO_MODE_AF_OD))
 1796              		.loc 1 943 10 is_stmt 0 view .LVU584
 1797 0070 012D     		cmp	r5, #1
 1798 0072 0DD8     		bhi	.L195
 947:.././hal//stm32f0/stm32f0_hal_lowlevel.c ****         /* Configure the IO Speed */
 1799              		.loc 1 947 9 is_stmt 1 view .LVU585
 949:.././hal//stm32f0/stm32f0_hal_lowlevel.c ****         CLEAR_BIT(temp, GPIO_OSPEEDER_OSPEEDR0 << (position * 2U));
 1800              		.loc 1 949 9 view .LVU586
 950:.././hal//stm32f0/stm32f0_hal_lowlevel.c ****         SET_BIT(temp, GPIO_Init->Speed << (position * 2U));
 1801              		.loc 1 950 9 is_stmt 0 view .LVU587
 1802 0074 6246     		mov	r2, ip
 1803              	.LVL127:
 949:.././hal//stm32f0/stm32f0_hal_lowlevel.c ****         CLEAR_BIT(temp, GPIO_OSPEEDER_OSPEEDR0 << (position * 2U));
 1804              		.loc 1 949 14 view .LVU588
 1805 0076 8568     		ldr	r5, [r0, #8]
 1806              	.LVL128:
 950:.././hal//stm32f0/stm32f0_hal_lowlevel.c ****         SET_BIT(temp, GPIO_Init->Speed << (position * 2U));
 1807              		.loc 1 950 9 is_stmt 1 view .LVU589
 1808 0078 1540     		ands	r5, r2
 1809              	.LVL129:
 951:.././hal//stm32f0/stm32f0_hal_lowlevel.c ****         GPIOx->OSPEEDR = temp;
 1810              		.loc 1 951 9 view .LVU590
 1811 007a CA68     		ldr	r2, [r1, #12]
 1812 007c A240     		lsls	r2, r2, r4
 1813 007e 2A43     		orrs	r2, r5
 1814              	.LVL130:
 952:.././hal//stm32f0/stm32f0_hal_lowlevel.c **** 
 1815              		.loc 1 952 9 view .LVU591
 952:.././hal//stm32f0/stm32f0_hal_lowlevel.c **** 
 1816              		.loc 1 952 24 is_stmt 0 view .LVU592
 1817 0080 8260     		str	r2, [r0, #8]
 955:.././hal//stm32f0/stm32f0_hal_lowlevel.c ****         CLEAR_BIT(temp, GPIO_OTYPER_OT_0 << position) ;
 1818              		.loc 1 955 9 is_stmt 1 view .LVU593
 957:.././hal//stm32f0/stm32f0_hal_lowlevel.c ****         GPIOx->OTYPER = temp;
 1819              		.loc 1 957 9 is_stmt 0 view .LVU594
 1820 0082 019A     		ldr	r2, [sp, #4]
 1821              	.LVL131:
 955:.././hal//stm32f0/stm32f0_hal_lowlevel.c ****         CLEAR_BIT(temp, GPIO_OTYPER_OT_0 << position) ;
 1822              		.loc 1 955 14 view .LVU595
 1823 0084 4568     		ldr	r5, [r0, #4]
 1824              	.LVL132:
 956:.././hal//stm32f0/stm32f0_hal_lowlevel.c ****         SET_BIT(temp, ((GPIO_Init->Mode & GPIO_OUTPUT_TYPE) >> 4U) << position);
 1825              		.loc 1 956 9 is_stmt 1 view .LVU596
 957:.././hal//stm32f0/stm32f0_hal_lowlevel.c ****         GPIOx->OTYPER = temp;
 1826              		.loc 1 957 9 is_stmt 0 view .LVU597
 1827 0086 1209     		lsrs	r2, r2, #4
 1828 0088 9A40     		lsls	r2, r2, r3
 956:.././hal//stm32f0/stm32f0_hal_lowlevel.c ****         SET_BIT(temp, ((GPIO_Init->Mode & GPIO_OUTPUT_TYPE) >> 4U) << position);
 1829              		.loc 1 956 9 view .LVU598
 1830 008a B543     		bics	r5, r6
 1831              	.LVL133:
 957:.././hal//stm32f0/stm32f0_hal_lowlevel.c ****         GPIOx->OTYPER = temp;
 1832              		.loc 1 957 9 is_stmt 1 view .LVU599
 1833 008c 2A43     		orrs	r2, r5
 1834              	.LVL134:
 958:.././hal//stm32f0/stm32f0_hal_lowlevel.c ****       }
 1835              		.loc 1 958 9 view .LVU600
 958:.././hal//stm32f0/stm32f0_hal_lowlevel.c ****       }
 1836              		.loc 1 958 23 is_stmt 0 view .LVU601
 1837 008e 4260     		str	r2, [r0, #4]
 1838              	.LVL135:
 1839              	.L195:
 962:.././hal//stm32f0/stm32f0_hal_lowlevel.c ****       CLEAR_BIT(temp, GPIO_PUPDR_PUPDR0 << (position * 2U));
 1840              		.loc 1 962 7 is_stmt 1 view .LVU602
 963:.././hal//stm32f0/stm32f0_hal_lowlevel.c ****       SET_BIT(temp, (GPIO_Init->Pull) << (position * 2U));
 1841              		.loc 1 963 7 is_stmt 0 view .LVU603
 1842 0090 6246     		mov	r2, ip
 962:.././hal//stm32f0/stm32f0_hal_lowlevel.c ****       CLEAR_BIT(temp, GPIO_PUPDR_PUPDR0 << (position * 2U));
 1843              		.loc 1 962 12 view .LVU604
 1844 0092 C568     		ldr	r5, [r0, #12]
 1845              	.LVL136:
 963:.././hal//stm32f0/stm32f0_hal_lowlevel.c ****       SET_BIT(temp, (GPIO_Init->Pull) << (position * 2U));
 1846              		.loc 1 963 7 is_stmt 1 view .LVU605
 1847 0094 1540     		ands	r5, r2
 1848              	.LVL137:
 964:.././hal//stm32f0/stm32f0_hal_lowlevel.c ****       GPIOx->PUPDR = temp;
 1849              		.loc 1 964 7 view .LVU606
 1850 0096 8A68     		ldr	r2, [r1, #8]
 1851 0098 A240     		lsls	r2, r2, r4
 969:.././hal//stm32f0/stm32f0_hal_lowlevel.c ****       {
 1852              		.loc 1 969 9 is_stmt 0 view .LVU607
 1853 009a 8024     		movs	r4, #128
 964:.././hal//stm32f0/stm32f0_hal_lowlevel.c ****       GPIOx->PUPDR = temp;
 1854              		.loc 1 964 7 view .LVU608
 1855 009c 2A43     		orrs	r2, r5
 1856              	.LVL138:
 965:.././hal//stm32f0/stm32f0_hal_lowlevel.c **** 
 1857              		.loc 1 965 7 is_stmt 1 view .LVU609
 965:.././hal//stm32f0/stm32f0_hal_lowlevel.c **** 
 1858              		.loc 1 965 20 is_stmt 0 view .LVU610
 1859 009e C260     		str	r2, [r0, #12]
 969:.././hal//stm32f0/stm32f0_hal_lowlevel.c ****       {
 1860              		.loc 1 969 7 is_stmt 1 view .LVU611
 969:.././hal//stm32f0/stm32f0_hal_lowlevel.c ****       {
 1861              		.loc 1 969 9 is_stmt 0 view .LVU612
 1862 00a0 019A     		ldr	r2, [sp, #4]
 1863              	.LVL139:
 969:.././hal//stm32f0/stm32f0_hal_lowlevel.c ****       {
 1864              		.loc 1 969 9 view .LVU613
 1865 00a2 6405     		lsls	r4, r4, #21
 1866 00a4 2242     		tst	r2, r4
 1867 00a6 4FD0     		beq	.L193
 972:.././hal//stm32f0/stm32f0_hal_lowlevel.c ****   
 1868              		.loc 1 972 9 is_stmt 1 view .LVU614
 1869              	.LBB18:
 972:.././hal//stm32f0/stm32f0_hal_lowlevel.c ****   
 1870              		.loc 1 972 9 view .LVU615
 972:.././hal//stm32f0/stm32f0_hal_lowlevel.c ****   
 1871              		.loc 1 972 9 view .LVU616
 1872 00a8 0125     		movs	r5, #1
 1873 00aa 284A     		ldr	r2, .L218
 1874              	.LBE18:
 976:.././hal//stm32f0/stm32f0_hal_lowlevel.c ****         SYSCFG->EXTICR[position >> 2] = temp;
 1875              		.loc 1 976 9 is_stmt 0 view .LVU617
 1876 00ac 9027     		movs	r7, #144
 1877              	.LBB19:
 972:.././hal//stm32f0/stm32f0_hal_lowlevel.c ****   
 1878              		.loc 1 972 9 view .LVU618
 1879 00ae 9469     		ldr	r4, [r2, #24]
 1880              	.LBE19:
 976:.././hal//stm32f0/stm32f0_hal_lowlevel.c ****         SYSCFG->EXTICR[position >> 2] = temp;
 1881              		.loc 1 976 9 view .LVU619
 1882 00b0 FF05     		lsls	r7, r7, #23
 1883              	.LBB20:
 972:.././hal//stm32f0/stm32f0_hal_lowlevel.c ****   
 1884              		.loc 1 972 9 view .LVU620
 1885 00b2 2C43     		orrs	r4, r5
 1886 00b4 9461     		str	r4, [r2, #24]
 1887              	.LVL140:
 972:.././hal//stm32f0/stm32f0_hal_lowlevel.c ****   
 1888              		.loc 1 972 9 is_stmt 1 view .LVU621
 1889 00b6 9269     		ldr	r2, [r2, #24]
 1890              	.LBE20:
 974:.././hal//stm32f0/stm32f0_hal_lowlevel.c ****         CLEAR_BIT(temp, (0x0FU) << (4U * (position & 0x03U)));
 1891              		.loc 1 974 40 is_stmt 0 view .LVU622
 1892 00b8 9C08     		lsrs	r4, r3, #2
 1893              	.LBB21:
 972:.././hal//stm32f0/stm32f0_hal_lowlevel.c ****   
 1894              		.loc 1 972 9 view .LVU623
 1895 00ba 2A40     		ands	r2, r5
 1896 00bc 0592     		str	r2, [sp, #20]
 972:.././hal//stm32f0/stm32f0_hal_lowlevel.c ****   
 1897              		.loc 1 972 9 is_stmt 1 view .LVU624
 1898 00be 059A     		ldr	r2, [sp, #20]
 1899              	.LBE21:
 972:.././hal//stm32f0/stm32f0_hal_lowlevel.c ****   
 1900              		.loc 1 972 9 view .LVU625
 974:.././hal//stm32f0/stm32f0_hal_lowlevel.c ****         CLEAR_BIT(temp, (0x0FU) << (4U * (position & 0x03U)));
 1901              		.loc 1 974 9 view .LVU626
 1902 00c0 234A     		ldr	r2, .L218+4
 1903 00c2 A400     		lsls	r4, r4, #2
 1904 00c4 A418     		adds	r4, r4, r2
 975:.././hal//stm32f0/stm32f0_hal_lowlevel.c ****         SET_BIT(temp, (GPIO_GET_INDEX(GPIOx)) << (4U * (position & 0x03U)));
 1905              		.loc 1 975 9 is_stmt 0 view .LVU627
 1906 00c6 0F22     		movs	r2, #15
 1907 00c8 0235     		adds	r5, r5, #2
 1908 00ca 1D40     		ands	r5, r3
 1909 00cc AD00     		lsls	r5, r5, #2
 1910 00ce AA40     		lsls	r2, r2, r5
 974:.././hal//stm32f0/stm32f0_hal_lowlevel.c ****         CLEAR_BIT(temp, (0x0FU) << (4U * (position & 0x03U)));
 1911              		.loc 1 974 14 view .LVU628
 1912 00d0 A668     		ldr	r6, [r4, #8]
 1913              	.LVL141:
 975:.././hal//stm32f0/stm32f0_hal_lowlevel.c ****         SET_BIT(temp, (GPIO_GET_INDEX(GPIOx)) << (4U * (position & 0x03U)));
 1914              		.loc 1 975 9 is_stmt 1 view .LVU629
 1915 00d2 9643     		bics	r6, r2
 1916              	.LVL142:
 976:.././hal//stm32f0/stm32f0_hal_lowlevel.c ****         SYSCFG->EXTICR[position >> 2] = temp;
 1917              		.loc 1 976 9 view .LVU630
 976:.././hal//stm32f0/stm32f0_hal_lowlevel.c ****         SYSCFG->EXTICR[position >> 2] = temp;
 1918              		.loc 1 976 9 is_stmt 0 discriminator 2 view .LVU631
 1919 00d4 0022     		movs	r2, #0
 976:.././hal//stm32f0/stm32f0_hal_lowlevel.c ****         SYSCFG->EXTICR[position >> 2] = temp;
 1920              		.loc 1 976 9 view .LVU632
 1921 00d6 B842     		cmp	r0, r7
 1922 00d8 0CD0     		beq	.L197
 976:.././hal//stm32f0/stm32f0_hal_lowlevel.c ****         SYSCFG->EXTICR[position >> 2] = temp;
 1923              		.loc 1 976 9 discriminator 1 view .LVU633
 1924 00da 1E4F     		ldr	r7, .L218+8
 976:.././hal//stm32f0/stm32f0_hal_lowlevel.c ****         SYSCFG->EXTICR[position >> 2] = temp;
 1925              		.loc 1 976 9 discriminator 4 view .LVU634
 1926 00dc 0132     		adds	r2, r2, #1
 976:.././hal//stm32f0/stm32f0_hal_lowlevel.c ****         SYSCFG->EXTICR[position >> 2] = temp;
 1927              		.loc 1 976 9 discriminator 1 view .LVU635
 1928 00de B842     		cmp	r0, r7
 1929 00e0 08D0     		beq	.L197
 976:.././hal//stm32f0/stm32f0_hal_lowlevel.c ****         SYSCFG->EXTICR[position >> 2] = temp;
 1930              		.loc 1 976 9 discriminator 3 view .LVU636
 1931 00e2 1D4F     		ldr	r7, .L218+12
 976:.././hal//stm32f0/stm32f0_hal_lowlevel.c ****         SYSCFG->EXTICR[position >> 2] = temp;
 1932              		.loc 1 976 9 discriminator 6 view .LVU637
 1933 00e4 0132     		adds	r2, r2, #1
 976:.././hal//stm32f0/stm32f0_hal_lowlevel.c ****         SYSCFG->EXTICR[position >> 2] = temp;
 1934              		.loc 1 976 9 discriminator 3 view .LVU638
 1935 00e6 B842     		cmp	r0, r7
 1936 00e8 04D0     		beq	.L197
 976:.././hal//stm32f0/stm32f0_hal_lowlevel.c ****         SYSCFG->EXTICR[position >> 2] = temp;
 1937              		.loc 1 976 9 discriminator 5 view .LVU639
 1938 00ea 1C4F     		ldr	r7, .L218+16
 976:.././hal//stm32f0/stm32f0_hal_lowlevel.c ****         SYSCFG->EXTICR[position >> 2] = temp;
 1939              		.loc 1 976 9 discriminator 8 view .LVU640
 1940 00ec 0332     		adds	r2, r2, #3
 976:.././hal//stm32f0/stm32f0_hal_lowlevel.c ****         SYSCFG->EXTICR[position >> 2] = temp;
 1941              		.loc 1 976 9 discriminator 5 view .LVU641
 1942 00ee B842     		cmp	r0, r7
 1943 00f0 00D1     		bne	.L197
 976:.././hal//stm32f0/stm32f0_hal_lowlevel.c ****         SYSCFG->EXTICR[position >> 2] = temp;
 1944              		.loc 1 976 9 discriminator 7 view .LVU642
 1945 00f2 023A     		subs	r2, r2, #2
 1946              	.L197:
 976:.././hal//stm32f0/stm32f0_hal_lowlevel.c ****         SYSCFG->EXTICR[position >> 2] = temp;
 1947              		.loc 1 976 9 discriminator 16 view .LVU643
 1948 00f4 AA40     		lsls	r2, r2, r5
 1949 00f6 3243     		orrs	r2, r6
 1950              	.LVL143:
 977:.././hal//stm32f0/stm32f0_hal_lowlevel.c ****                   
 1951              		.loc 1 977 9 is_stmt 1 view .LVU644
 977:.././hal//stm32f0/stm32f0_hal_lowlevel.c ****                   
 1952              		.loc 1 977 39 is_stmt 0 view .LVU645
 1953 00f8 A260     		str	r2, [r4, #8]
 980:.././hal//stm32f0/stm32f0_hal_lowlevel.c ****         CLEAR_BIT(temp, (uint32_t)iocurrent);
 1954              		.loc 1 980 9 is_stmt 1 view .LVU646
 980:.././hal//stm32f0/stm32f0_hal_lowlevel.c ****         CLEAR_BIT(temp, (uint32_t)iocurrent);
 1955              		.loc 1 980 14 is_stmt 0 view .LVU647
 1956 00fa 194A     		ldr	r2, .L218+20
 1957              	.LVL144:
 981:.././hal//stm32f0/stm32f0_hal_lowlevel.c ****         if((GPIO_Init->Mode & GPIO_MODE_IT) == GPIO_MODE_IT)
 1958              		.loc 1 981 9 view .LVU648
 1959 00fc 029C     		ldr	r4, [sp, #8]
 1960              	.LVL145:
 980:.././hal//stm32f0/stm32f0_hal_lowlevel.c ****         CLEAR_BIT(temp, (uint32_t)iocurrent);
 1961              		.loc 1 980 14 view .LVU649
 1962 00fe 1668     		ldr	r6, [r2]
 1963              	.LVL146:
 981:.././hal//stm32f0/stm32f0_hal_lowlevel.c ****         if((GPIO_Init->Mode & GPIO_MODE_IT) == GPIO_MODE_IT)
 1964              		.loc 1 981 9 is_stmt 1 view .LVU650
 984:.././hal//stm32f0/stm32f0_hal_lowlevel.c ****         }
 1965              		.loc 1 984 11 is_stmt 0 view .LVU651
 1966 0100 029D     		ldr	r5, [sp, #8]
 982:.././hal//stm32f0/stm32f0_hal_lowlevel.c ****         {
 1967              		.loc 1 982 11 view .LVU652
 1968 0102 019F     		ldr	r7, [sp, #4]
 981:.././hal//stm32f0/stm32f0_hal_lowlevel.c ****         if((GPIO_Init->Mode & GPIO_MODE_IT) == GPIO_MODE_IT)
 1969              		.loc 1 981 9 view .LVU653
 1970 0104 E443     		mvns	r4, r4
 1971              	.LVL147:
 982:.././hal//stm32f0/stm32f0_hal_lowlevel.c ****         {
 1972              		.loc 1 982 9 is_stmt 1 view .LVU654
 984:.././hal//stm32f0/stm32f0_hal_lowlevel.c ****         }
 1973              		.loc 1 984 11 is_stmt 0 view .LVU655
 1974 0106 3543     		orrs	r5, r6
 982:.././hal//stm32f0/stm32f0_hal_lowlevel.c ****         {
 1975              		.loc 1 982 11 view .LVU656
 1976 0108 FF03     		lsls	r7, r7, #15
 1977 010a 01D4     		bmi	.L199
 981:.././hal//stm32f0/stm32f0_hal_lowlevel.c ****         if((GPIO_Init->Mode & GPIO_MODE_IT) == GPIO_MODE_IT)
 1978              		.loc 1 981 9 view .LVU657
 1979 010c 3500     		movs	r5, r6
 1980 010e 2540     		ands	r5, r4
 1981              	.LVL148:
 1982              	.L199:
 986:.././hal//stm32f0/stm32f0_hal_lowlevel.c **** 
 1983              		.loc 1 986 9 is_stmt 1 view .LVU658
 986:.././hal//stm32f0/stm32f0_hal_lowlevel.c **** 
 1984              		.loc 1 986 19 is_stmt 0 view .LVU659
 1985 0110 1560     		str	r5, [r2]
 988:.././hal//stm32f0/stm32f0_hal_lowlevel.c ****         CLEAR_BIT(temp, (uint32_t)iocurrent);      
 1986              		.loc 1 988 9 is_stmt 1 view .LVU660
 988:.././hal//stm32f0/stm32f0_hal_lowlevel.c ****         CLEAR_BIT(temp, (uint32_t)iocurrent);      
 1987              		.loc 1 988 14 is_stmt 0 view .LVU661
 1988 0112 5668     		ldr	r6, [r2, #4]
 1989              	.LVL149:
 989:.././hal//stm32f0/stm32f0_hal_lowlevel.c ****         if((GPIO_Init->Mode & GPIO_MODE_EVT) == GPIO_MODE_EVT)
 1990              		.loc 1 989 9 is_stmt 1 view .LVU662
 990:.././hal//stm32f0/stm32f0_hal_lowlevel.c ****         { 
 1991              		.loc 1 990 9 view .LVU663
 992:.././hal//stm32f0/stm32f0_hal_lowlevel.c ****         }
 1992              		.loc 1 992 11 is_stmt 0 view .LVU664
 1993 0114 029D     		ldr	r5, [sp, #8]
 990:.././hal//stm32f0/stm32f0_hal_lowlevel.c ****         { 
 1994              		.loc 1 990 11 view .LVU665
 1995 0116 019F     		ldr	r7, [sp, #4]
 992:.././hal//stm32f0/stm32f0_hal_lowlevel.c ****         }
 1996              		.loc 1 992 11 view .LVU666
 1997 0118 3543     		orrs	r5, r6
 990:.././hal//stm32f0/stm32f0_hal_lowlevel.c ****         { 
 1998              		.loc 1 990 11 view .LVU667
 1999 011a BF03     		lsls	r7, r7, #14
 2000 011c 01D4     		bmi	.L201
 989:.././hal//stm32f0/stm32f0_hal_lowlevel.c ****         if((GPIO_Init->Mode & GPIO_MODE_EVT) == GPIO_MODE_EVT)
 2001              		.loc 1 989 9 view .LVU668
 2002 011e 3500     		movs	r5, r6
 2003 0120 2540     		ands	r5, r4
 2004              	.LVL150:
 2005              	.L201:
 994:.././hal//stm32f0/stm32f0_hal_lowlevel.c ****   
 2006              		.loc 1 994 9 is_stmt 1 view .LVU669
 994:.././hal//stm32f0/stm32f0_hal_lowlevel.c ****   
 2007              		.loc 1 994 19 is_stmt 0 view .LVU670
 2008 0122 5560     		str	r5, [r2, #4]
 997:.././hal//stm32f0/stm32f0_hal_lowlevel.c ****         CLEAR_BIT(temp, (uint32_t)iocurrent); 
 2009              		.loc 1 997 9 is_stmt 1 view .LVU671
 997:.././hal//stm32f0/stm32f0_hal_lowlevel.c ****         CLEAR_BIT(temp, (uint32_t)iocurrent); 
 2010              		.loc 1 997 14 is_stmt 0 view .LVU672
 2011 0124 9668     		ldr	r6, [r2, #8]
 2012              	.LVL151:
 998:.././hal//stm32f0/stm32f0_hal_lowlevel.c ****         if((GPIO_Init->Mode & RISING_EDGE) == RISING_EDGE)
 2013              		.loc 1 998 9 is_stmt 1 view .LVU673
 999:.././hal//stm32f0/stm32f0_hal_lowlevel.c ****         {
 2014              		.loc 1 999 9 view .LVU674
1001:.././hal//stm32f0/stm32f0_hal_lowlevel.c ****         }
 2015              		.loc 1 1001 11 is_stmt 0 view .LVU675
 2016 0126 029D     		ldr	r5, [sp, #8]
 999:.././hal//stm32f0/stm32f0_hal_lowlevel.c ****         {
 2017              		.loc 1 999 11 view .LVU676
 2018 0128 019F     		ldr	r7, [sp, #4]
1001:.././hal//stm32f0/stm32f0_hal_lowlevel.c ****         }
 2019              		.loc 1 1001 11 view .LVU677
 2020 012a 3543     		orrs	r5, r6
 999:.././hal//stm32f0/stm32f0_hal_lowlevel.c ****         {
 2021              		.loc 1 999 11 view .LVU678
 2022 012c FF02     		lsls	r7, r7, #11
 2023 012e 01D4     		bmi	.L203
 998:.././hal//stm32f0/stm32f0_hal_lowlevel.c ****         if((GPIO_Init->Mode & RISING_EDGE) == RISING_EDGE)
 2024              		.loc 1 998 9 view .LVU679
 2025 0130 3500     		movs	r5, r6
 2026 0132 2540     		ands	r5, r4
 2027              	.LVL152:
 2028              	.L203:
1003:.././hal//stm32f0/stm32f0_hal_lowlevel.c **** 
 2029              		.loc 1 1003 9 is_stmt 1 view .LVU680
1003:.././hal//stm32f0/stm32f0_hal_lowlevel.c **** 
 2030              		.loc 1 1003 20 is_stmt 0 view .LVU681
 2031 0134 9560     		str	r5, [r2, #8]
1005:.././hal//stm32f0/stm32f0_hal_lowlevel.c ****         CLEAR_BIT(temp, (uint32_t)iocurrent); 
 2032              		.loc 1 1005 9 is_stmt 1 view .LVU682
1005:.././hal//stm32f0/stm32f0_hal_lowlevel.c ****         CLEAR_BIT(temp, (uint32_t)iocurrent); 
 2033              		.loc 1 1005 14 is_stmt 0 view .LVU683
 2034 0136 D568     		ldr	r5, [r2, #12]
 2035              	.LVL153:
1006:.././hal//stm32f0/stm32f0_hal_lowlevel.c ****         if((GPIO_Init->Mode & FALLING_EDGE) == FALLING_EDGE)
 2036              		.loc 1 1006 9 is_stmt 1 view .LVU684
1007:.././hal//stm32f0/stm32f0_hal_lowlevel.c ****         {
 2037              		.loc 1 1007 9 view .LVU685
1009:.././hal//stm32f0/stm32f0_hal_lowlevel.c ****         }
 2038              		.loc 1 1009 11 is_stmt 0 view .LVU686
 2039 0138 029E     		ldr	r6, [sp, #8]
1007:.././hal//stm32f0/stm32f0_hal_lowlevel.c ****         {
 2040              		.loc 1 1007 11 view .LVU687
 2041 013a 019F     		ldr	r7, [sp, #4]
1009:.././hal//stm32f0/stm32f0_hal_lowlevel.c ****         }
 2042              		.loc 1 1009 11 view .LVU688
 2043 013c 2E43     		orrs	r6, r5
1007:.././hal//stm32f0/stm32f0_hal_lowlevel.c ****         {
 2044              		.loc 1 1007 11 view .LVU689
 2045 013e BF02     		lsls	r7, r7, #10
 2046 0140 01D4     		bmi	.L205
1006:.././hal//stm32f0/stm32f0_hal_lowlevel.c ****         if((GPIO_Init->Mode & FALLING_EDGE) == FALLING_EDGE)
 2047              		.loc 1 1006 9 view .LVU690
 2048 0142 2540     		ands	r5, r4
 2049              	.LVL154:
1006:.././hal//stm32f0/stm32f0_hal_lowlevel.c ****         if((GPIO_Init->Mode & FALLING_EDGE) == FALLING_EDGE)
 2050              		.loc 1 1006 9 view .LVU691
 2051 0144 2E00     		movs	r6, r5
 2052              	.LVL155:
 2053              	.L205:
1011:.././hal//stm32f0/stm32f0_hal_lowlevel.c ****       }
 2054              		.loc 1 1011 9 is_stmt 1 view .LVU692
1011:.././hal//stm32f0/stm32f0_hal_lowlevel.c ****       }
 2055              		.loc 1 1011 20 is_stmt 0 view .LVU693
 2056 0146 D660     		str	r6, [r2, #12]
 2057              	.LVL156:
 2058              	.L193:
1015:.././hal//stm32f0/stm32f0_hal_lowlevel.c ****   } 
 2059              		.loc 1 1015 5 is_stmt 1 view .LVU694
1015:.././hal//stm32f0/stm32f0_hal_lowlevel.c ****   } 
 2060              		.loc 1 1015 13 is_stmt 0 view .LVU695
 2061 0148 0133     		adds	r3, r3, #1
 2062              	.LVL157:
1015:.././hal//stm32f0/stm32f0_hal_lowlevel.c ****   } 
 2063              		.loc 1 1015 13 view .LVU696
 2064 014a 5CE7     		b	.L191
 2065              	.L219:
 2066              		.align	2
 2067              	.L218:
 2068 014c 00100240 		.word	1073876992
 2069 0150 00000140 		.word	1073807360
 2070 0154 00040048 		.word	1207960576
 2071 0158 00080048 		.word	1207961600
 2072 015c 000C0048 		.word	1207962624
 2073 0160 00040140 		.word	1073808384
 2074              		.cfi_endproc
 2075              	.LFE44:
 2077              		.section	.text.HAL_GPIO_WritePin,"ax",%progbits
 2078              		.align	1
 2079              		.global	HAL_GPIO_WritePin
 2080              		.syntax unified
 2081              		.code	16
 2082              		.thumb_func
 2084              	HAL_GPIO_WritePin:
 2085              	.LVL158:
 2086              	.LFB45:
1018:.././hal//stm32f0/stm32f0_hal_lowlevel.c **** 
1019:.././hal//stm32f0/stm32f0_hal_lowlevel.c **** /**
1020:.././hal//stm32f0/stm32f0_hal_lowlevel.c ****   * @brief  Set or clear the selected data port bit.
1021:.././hal//stm32f0/stm32f0_hal_lowlevel.c ****   * @note   This function uses GPIOx_BSRR and GPIOx_BRR registers to allow atomic read/modify
1022:.././hal//stm32f0/stm32f0_hal_lowlevel.c ****   *         accesses. In this way, there is no risk of an IRQ occurring between
1023:.././hal//stm32f0/stm32f0_hal_lowlevel.c ****   *         the read and the modify access.
1024:.././hal//stm32f0/stm32f0_hal_lowlevel.c ****   *
1025:.././hal//stm32f0/stm32f0_hal_lowlevel.c ****   * @param  GPIOx: where x can be (A..H) to select the GPIO peripheral for STM32F0 family
1026:.././hal//stm32f0/stm32f0_hal_lowlevel.c ****   * @param  GPIO_Pin: specifies the port bit to be written.
1027:.././hal//stm32f0/stm32f0_hal_lowlevel.c ****   *          This parameter can be one of GPIO_PIN_x where x can be (0..15).
1028:.././hal//stm32f0/stm32f0_hal_lowlevel.c ****   * @param  PinState: specifies the value to be written to the selected bit.
1029:.././hal//stm32f0/stm32f0_hal_lowlevel.c ****   *          This parameter can be one of the GPIO_PinState enum values:
1030:.././hal//stm32f0/stm32f0_hal_lowlevel.c ****   *            @arg GPIO_PIN_RESET: to clear the port pin
1031:.././hal//stm32f0/stm32f0_hal_lowlevel.c ****   *            @arg GPIO_PIN_SET: to set the port pin
1032:.././hal//stm32f0/stm32f0_hal_lowlevel.c ****   * @retval None
1033:.././hal//stm32f0/stm32f0_hal_lowlevel.c ****   */
1034:.././hal//stm32f0/stm32f0_hal_lowlevel.c **** void HAL_GPIO_WritePin(GPIO_TypeDef* GPIOx, uint16_t GPIO_Pin, GPIO_PinState PinState)
1035:.././hal//stm32f0/stm32f0_hal_lowlevel.c **** {
 2087              		.loc 1 1035 1 is_stmt 1 view -0
 2088              		.cfi_startproc
 2089              		@ args = 0, pretend = 0, frame = 0
 2090              		@ frame_needed = 0, uses_anonymous_args = 0
 2091              		@ link register save eliminated.
1036:.././hal//stm32f0/stm32f0_hal_lowlevel.c ****   /* Check the parameters */
1037:.././hal//stm32f0/stm32f0_hal_lowlevel.c ****   assert_param(IS_GPIO_PIN(GPIO_Pin));
 2092              		.loc 1 1037 3 view .LVU698
1038:.././hal//stm32f0/stm32f0_hal_lowlevel.c ****   assert_param(IS_GPIO_PIN_ACTION(PinState));
 2093              		.loc 1 1038 3 view .LVU699
1039:.././hal//stm32f0/stm32f0_hal_lowlevel.c **** 
1040:.././hal//stm32f0/stm32f0_hal_lowlevel.c ****   if (PinState != GPIO_PIN_RESET)
 2094              		.loc 1 1040 3 view .LVU700
 2095              		.loc 1 1040 6 is_stmt 0 view .LVU701
 2096 0000 002A     		cmp	r2, #0
 2097 0002 01D0     		beq	.L221
1041:.././hal//stm32f0/stm32f0_hal_lowlevel.c ****   {
1042:.././hal//stm32f0/stm32f0_hal_lowlevel.c ****     GPIOx->BSRR = (uint32_t)GPIO_Pin;
 2098              		.loc 1 1042 5 is_stmt 1 view .LVU702
 2099              		.loc 1 1042 17 is_stmt 0 view .LVU703
 2100 0004 8161     		str	r1, [r0, #24]
 2101              	.L220:
1043:.././hal//stm32f0/stm32f0_hal_lowlevel.c ****   }
1044:.././hal//stm32f0/stm32f0_hal_lowlevel.c ****   else
1045:.././hal//stm32f0/stm32f0_hal_lowlevel.c ****   {
1046:.././hal//stm32f0/stm32f0_hal_lowlevel.c ****     GPIOx->BRR = (uint32_t)GPIO_Pin;
1047:.././hal//stm32f0/stm32f0_hal_lowlevel.c ****   }
1048:.././hal//stm32f0/stm32f0_hal_lowlevel.c **** }										  
 2102              		.loc 1 1048 1 view .LVU704
 2103              		@ sp needed
 2104 0006 7047     		bx	lr
 2105              	.L221:
1046:.././hal//stm32f0/stm32f0_hal_lowlevel.c ****   }
 2106              		.loc 1 1046 5 is_stmt 1 view .LVU705
1046:.././hal//stm32f0/stm32f0_hal_lowlevel.c ****   }
 2107              		.loc 1 1046 16 is_stmt 0 view .LVU706
 2108 0008 8162     		str	r1, [r0, #40]
 2109              		.loc 1 1048 1 view .LVU707
 2110 000a FCE7     		b	.L220
 2111              		.cfi_endproc
 2112              	.LFE45:
 2114              		.section	.text.UART_WaitOnFlagUntilTimeout,"ax",%progbits
 2115              		.align	1
 2116              		.global	UART_WaitOnFlagUntilTimeout
 2117              		.syntax unified
 2118              		.code	16
 2119              		.thumb_func
 2121              	UART_WaitOnFlagUntilTimeout:
 2122              	.LVL159:
 2123              	.LFB46:
1049:.././hal//stm32f0/stm32f0_hal_lowlevel.c **** 
1050:.././hal//stm32f0/stm32f0_hal_lowlevel.c **** /**
1051:.././hal//stm32f0/stm32f0_hal_lowlevel.c ****   * @brief  Handle UART Communication Timeout.
1052:.././hal//stm32f0/stm32f0_hal_lowlevel.c ****   * @param  huart UART handle.
1053:.././hal//stm32f0/stm32f0_hal_lowlevel.c ****   * @param  Flag Specifies the UART flag to check
1054:.././hal//stm32f0/stm32f0_hal_lowlevel.c ****   * @param  Status Flag status (SET or RESET)
1055:.././hal//stm32f0/stm32f0_hal_lowlevel.c ****   * @param  Tickstart Tick start value
1056:.././hal//stm32f0/stm32f0_hal_lowlevel.c ****   * @param  Timeout Timeout duration
1057:.././hal//stm32f0/stm32f0_hal_lowlevel.c ****   * @retval HAL status
1058:.././hal//stm32f0/stm32f0_hal_lowlevel.c ****   */
1059:.././hal//stm32f0/stm32f0_hal_lowlevel.c **** HAL_StatusTypeDef UART_WaitOnFlagUntilTimeout(UART_HandleTypeDef *huart, uint32_t Flag, FlagStatus 
1060:.././hal//stm32f0/stm32f0_hal_lowlevel.c **** {
 2124              		.loc 1 1060 1 is_stmt 1 view -0
 2125              		.cfi_startproc
 2126              		@ args = 4, pretend = 0, frame = 8
 2127              		@ frame_needed = 0, uses_anonymous_args = 0
 2128              		.loc 1 1060 1 is_stmt 0 view .LVU709
 2129 0000 F7B5     		push	{r0, r1, r2, r4, r5, r6, r7, lr}
 2130              	.LCFI7:
 2131              		.cfi_def_cfa_offset 32
 2132              		.cfi_offset 0, -32
 2133              		.cfi_offset 1, -28
 2134              		.cfi_offset 2, -24
 2135              		.cfi_offset 4, -20
 2136              		.cfi_offset 5, -16
 2137              		.cfi_offset 6, -12
 2138              		.cfi_offset 7, -8
 2139              		.cfi_offset 14, -4
 2140 0002 0400     		movs	r4, r0
 2141 0004 0E00     		movs	r6, r1
 2142 0006 1700     		movs	r7, r2
 2143 0008 0193     		str	r3, [sp, #4]
1061:.././hal//stm32f0/stm32f0_hal_lowlevel.c ****   /* Wait until flag is set */
1062:.././hal//stm32f0/stm32f0_hal_lowlevel.c ****   while((__HAL_UART_GET_FLAG(huart, Flag) ? SET : RESET) == Status)
 2144              		.loc 1 1062 3 is_stmt 1 view .LVU710
 2145              	.LVL160:
 2146              	.L224:
 2147              		.loc 1 1062 10 is_stmt 0 view .LVU711
 2148 000a 2568     		ldr	r5, [r4]
 2149              	.L225:
 2150              		.loc 1 1062 58 is_stmt 1 view .LVU712
 2151              		.loc 1 1062 10 is_stmt 0 view .LVU713
 2152 000c EB69     		ldr	r3, [r5, #28]
 2153 000e 3340     		ands	r3, r6
 2154              		.loc 1 1062 49 view .LVU714
 2155 0010 9B1B     		subs	r3, r3, r6
 2156 0012 5A42     		rsbs	r2, r3, #0
 2157 0014 5341     		adcs	r3, r3, r2
 2158              		.loc 1 1062 58 view .LVU715
 2159 0016 BB42     		cmp	r3, r7
 2160 0018 01D0     		beq	.L229
1063:.././hal//stm32f0/stm32f0_hal_lowlevel.c ****   {
1064:.././hal//stm32f0/stm32f0_hal_lowlevel.c ****     /* Check for the Timeout */
1065:.././hal//stm32f0/stm32f0_hal_lowlevel.c ****     if(Timeout != HAL_MAX_DELAY)
1066:.././hal//stm32f0/stm32f0_hal_lowlevel.c ****     {
1067:.././hal//stm32f0/stm32f0_hal_lowlevel.c ****       if((Timeout == 0U) || ((HAL_GetTick()-Tickstart) > Timeout))
1068:.././hal//stm32f0/stm32f0_hal_lowlevel.c ****       {
1069:.././hal//stm32f0/stm32f0_hal_lowlevel.c ****         /* Disable TXE, RXNE, PE and ERR (Frame error, noise error, overrun error) interrupts for t
1070:.././hal//stm32f0/stm32f0_hal_lowlevel.c ****         CLEAR_BIT(huart->Instance->CR1, (USART_CR1_RXNEIE | USART_CR1_PEIE | USART_CR1_TXEIE));
1071:.././hal//stm32f0/stm32f0_hal_lowlevel.c ****         CLEAR_BIT(huart->Instance->CR3, USART_CR3_EIE);
1072:.././hal//stm32f0/stm32f0_hal_lowlevel.c **** 
1073:.././hal//stm32f0/stm32f0_hal_lowlevel.c ****         huart->gState  = HAL_UART_STATE_READY;
1074:.././hal//stm32f0/stm32f0_hal_lowlevel.c ****         huart->RxState = HAL_UART_STATE_READY;
1075:.././hal//stm32f0/stm32f0_hal_lowlevel.c **** 
1076:.././hal//stm32f0/stm32f0_hal_lowlevel.c ****         /* Process Unlocked */
1077:.././hal//stm32f0/stm32f0_hal_lowlevel.c ****         __HAL_UNLOCK(huart);
1078:.././hal//stm32f0/stm32f0_hal_lowlevel.c ****         return HAL_TIMEOUT;
1079:.././hal//stm32f0/stm32f0_hal_lowlevel.c ****       }
1080:.././hal//stm32f0/stm32f0_hal_lowlevel.c ****     }
1081:.././hal//stm32f0/stm32f0_hal_lowlevel.c ****   }
1082:.././hal//stm32f0/stm32f0_hal_lowlevel.c ****   return HAL_OK;
 2161              		.loc 1 1082 10 view .LVU716
 2162 001a 0020     		movs	r0, #0
 2163 001c 17E0     		b	.L227
 2164              	.L229:
1065:.././hal//stm32f0/stm32f0_hal_lowlevel.c ****     {
 2165              		.loc 1 1065 5 is_stmt 1 view .LVU717
1065:.././hal//stm32f0/stm32f0_hal_lowlevel.c ****     {
 2166              		.loc 1 1065 7 is_stmt 0 view .LVU718
 2167 001e 089B     		ldr	r3, [sp, #32]
 2168 0020 0133     		adds	r3, r3, #1
 2169 0022 F3D0     		beq	.L225
1067:.././hal//stm32f0/stm32f0_hal_lowlevel.c ****       {
 2170              		.loc 1 1067 7 is_stmt 1 view .LVU719
1067:.././hal//stm32f0/stm32f0_hal_lowlevel.c ****       {
 2171              		.loc 1 1067 9 is_stmt 0 view .LVU720
 2172 0024 089B     		ldr	r3, [sp, #32]
 2173 0026 002B     		cmp	r3, #0
 2174 0028 12D1     		bne	.L226
 2175              	.L228:
1070:.././hal//stm32f0/stm32f0_hal_lowlevel.c ****         CLEAR_BIT(huart->Instance->CR3, USART_CR3_EIE);
 2176              		.loc 1 1070 9 is_stmt 1 view .LVU721
 2177 002a 2B68     		ldr	r3, [r5]
 2178 002c 0C4A     		ldr	r2, .L233
1078:.././hal//stm32f0/stm32f0_hal_lowlevel.c ****       }
 2179              		.loc 1 1078 16 is_stmt 0 view .LVU722
 2180 002e 0320     		movs	r0, #3
1070:.././hal//stm32f0/stm32f0_hal_lowlevel.c ****         CLEAR_BIT(huart->Instance->CR3, USART_CR3_EIE);
 2181              		.loc 1 1070 9 view .LVU723
 2182 0030 1340     		ands	r3, r2
 2183 0032 2B60     		str	r3, [r5]
1071:.././hal//stm32f0/stm32f0_hal_lowlevel.c **** 
 2184              		.loc 1 1071 9 is_stmt 1 view .LVU724
 2185 0034 AB68     		ldr	r3, [r5, #8]
 2186 0036 A332     		adds	r2, r2, #163
 2187 0038 FF32     		adds	r2, r2, #255
 2188 003a 9343     		bics	r3, r2
1073:.././hal//stm32f0/stm32f0_hal_lowlevel.c ****         huart->RxState = HAL_UART_STATE_READY;
 2189              		.loc 1 1073 24 is_stmt 0 view .LVU725
 2190 003c 2200     		movs	r2, r4
1071:.././hal//stm32f0/stm32f0_hal_lowlevel.c **** 
 2191              		.loc 1 1071 9 view .LVU726
 2192 003e AB60     		str	r3, [r5, #8]
1073:.././hal//stm32f0/stm32f0_hal_lowlevel.c ****         huart->RxState = HAL_UART_STATE_READY;
 2193              		.loc 1 1073 9 is_stmt 1 view .LVU727
1073:.././hal//stm32f0/stm32f0_hal_lowlevel.c ****         huart->RxState = HAL_UART_STATE_READY;
 2194              		.loc 1 1073 24 is_stmt 0 view .LVU728
 2195 0040 2023     		movs	r3, #32
 2196 0042 6932     		adds	r2, r2, #105
 2197 0044 1370     		strb	r3, [r2]
1074:.././hal//stm32f0/stm32f0_hal_lowlevel.c **** 
 2198              		.loc 1 1074 9 is_stmt 1 view .LVU729
1074:.././hal//stm32f0/stm32f0_hal_lowlevel.c **** 
 2199              		.loc 1 1074 24 is_stmt 0 view .LVU730
 2200 0046 5370     		strb	r3, [r2, #1]
1077:.././hal//stm32f0/stm32f0_hal_lowlevel.c ****         return HAL_TIMEOUT;
 2201              		.loc 1 1077 9 is_stmt 1 view .LVU731
1077:.././hal//stm32f0/stm32f0_hal_lowlevel.c ****         return HAL_TIMEOUT;
 2202              		.loc 1 1077 9 view .LVU732
 2203 0048 0023     		movs	r3, #0
 2204 004a 6834     		adds	r4, r4, #104
 2205              	.LVL161:
1077:.././hal//stm32f0/stm32f0_hal_lowlevel.c ****         return HAL_TIMEOUT;
 2206              		.loc 1 1077 9 is_stmt 0 view .LVU733
 2207 004c 2370     		strb	r3, [r4]
1077:.././hal//stm32f0/stm32f0_hal_lowlevel.c ****         return HAL_TIMEOUT;
 2208              		.loc 1 1077 9 is_stmt 1 view .LVU734
1078:.././hal//stm32f0/stm32f0_hal_lowlevel.c ****       }
 2209              		.loc 1 1078 9 view .LVU735
 2210              	.LVL162:
 2211              	.L227:
1083:.././hal//stm32f0/stm32f0_hal_lowlevel.c **** }
 2212              		.loc 1 1083 1 is_stmt 0 view .LVU736
 2213              		@ sp needed
 2214              	.LVL163:
 2215              	.LVL164:
 2216              		.loc 1 1083 1 view .LVU737
 2217 004e FEBD     		pop	{r1, r2, r3, r4, r5, r6, r7, pc}
 2218              	.LVL165:
 2219              	.L226:
1067:.././hal//stm32f0/stm32f0_hal_lowlevel.c ****       {
 2220              		.loc 1 1067 31 discriminator 1 view .LVU738
 2221 0050 FFF7FEFF 		bl	HAL_GetTick
 2222              	.LVL166:
1067:.././hal//stm32f0/stm32f0_hal_lowlevel.c ****       {
 2223              		.loc 1 1067 44 discriminator 1 view .LVU739
 2224 0054 019B     		ldr	r3, [sp, #4]
 2225 0056 C01A     		subs	r0, r0, r3
1067:.././hal//stm32f0/stm32f0_hal_lowlevel.c ****       {
 2226              		.loc 1 1067 26 discriminator 1 view .LVU740
 2227 0058 089B     		ldr	r3, [sp, #32]
 2228 005a 9842     		cmp	r0, r3
 2229 005c D5D9     		bls	.L224
 2230 005e E4E7     		b	.L228
 2231              	.L234:
 2232              		.align	2
 2233              	.L233:
 2234 0060 5FFEFFFF 		.word	-417
 2235              		.cfi_endproc
 2236              	.LFE46:
 2238              		.section	.text.UART_CheckIdleState,"ax",%progbits
 2239              		.align	1
 2240              		.global	UART_CheckIdleState
 2241              		.syntax unified
 2242              		.code	16
 2243              		.thumb_func
 2245              	UART_CheckIdleState:
 2246              	.LVL167:
 2247              	.LFB47:
1084:.././hal//stm32f0/stm32f0_hal_lowlevel.c **** 
1085:.././hal//stm32f0/stm32f0_hal_lowlevel.c **** /**
1086:.././hal//stm32f0/stm32f0_hal_lowlevel.c ****   * @brief Check the UART Idle State.
1087:.././hal//stm32f0/stm32f0_hal_lowlevel.c ****   * @param huart UART handle.
1088:.././hal//stm32f0/stm32f0_hal_lowlevel.c ****   * @retval HAL status
1089:.././hal//stm32f0/stm32f0_hal_lowlevel.c ****   */
1090:.././hal//stm32f0/stm32f0_hal_lowlevel.c **** HAL_StatusTypeDef UART_CheckIdleState(UART_HandleTypeDef *huart)
1091:.././hal//stm32f0/stm32f0_hal_lowlevel.c **** {
 2248              		.loc 1 1091 1 is_stmt 1 view -0
 2249              		.cfi_startproc
 2250              		@ args = 0, pretend = 0, frame = 0
 2251              		@ frame_needed = 0, uses_anonymous_args = 0
 2252              		@ link register save eliminated.
1092:.././hal//stm32f0/stm32f0_hal_lowlevel.c **** #if !defined(STM32F030x6) && !defined(STM32F030x8)&& !defined(STM32F070xB)&& !defined(STM32F070x6)&
1093:.././hal//stm32f0/stm32f0_hal_lowlevel.c ****   uint32_t tickstart = 0U;
1094:.././hal//stm32f0/stm32f0_hal_lowlevel.c **** #endif /* !defined(STM32F030x6) && !defined(STM32F030x8)&& !defined(STM32F070xB)&& !defined(STM32F0
1095:.././hal//stm32f0/stm32f0_hal_lowlevel.c **** 
1096:.././hal//stm32f0/stm32f0_hal_lowlevel.c ****   /* Initialize the UART ErrorCode */
1097:.././hal//stm32f0/stm32f0_hal_lowlevel.c ****   huart->ErrorCode = HAL_UART_ERROR_NONE;
 2253              		.loc 1 1097 3 view .LVU742
1091:.././hal//stm32f0/stm32f0_hal_lowlevel.c **** #if !defined(STM32F030x6) && !defined(STM32F030x8)&& !defined(STM32F070xB)&& !defined(STM32F070x6)&
 2254              		.loc 1 1091 1 is_stmt 0 view .LVU743
 2255 0000 0300     		movs	r3, r0
1098:.././hal//stm32f0/stm32f0_hal_lowlevel.c **** 
1099:.././hal//stm32f0/stm32f0_hal_lowlevel.c **** #if !defined(STM32F030x6) && !defined(STM32F030x8)&& !defined(STM32F070xB)&& !defined(STM32F070x6)&
1100:.././hal//stm32f0/stm32f0_hal_lowlevel.c ****   /* Init tickstart for timeout managment*/
1101:.././hal//stm32f0/stm32f0_hal_lowlevel.c ****   tickstart = HAL_GetTick();
1102:.././hal//stm32f0/stm32f0_hal_lowlevel.c **** 
1103:.././hal//stm32f0/stm32f0_hal_lowlevel.c ****   /* TEACK and REACK bits in ISR are checked only when available (not available on all F0 devices).
1104:.././hal//stm32f0/stm32f0_hal_lowlevel.c ****      Bits are defined for some specific devices, and are available only for UART instances supporti
1105:.././hal//stm32f0/stm32f0_hal_lowlevel.c ****   */
1106:.././hal//stm32f0/stm32f0_hal_lowlevel.c ****   if (IS_UART_WAKEUP_FROMSTOP_INSTANCE(huart->Instance))
1107:.././hal//stm32f0/stm32f0_hal_lowlevel.c ****   {
1108:.././hal//stm32f0/stm32f0_hal_lowlevel.c ****     /* Check if the Transmitter is enabled */
1109:.././hal//stm32f0/stm32f0_hal_lowlevel.c ****     if((huart->Instance->CR1 & USART_CR1_TE) == USART_CR1_TE)
1110:.././hal//stm32f0/stm32f0_hal_lowlevel.c ****     {
1111:.././hal//stm32f0/stm32f0_hal_lowlevel.c ****       /* Wait until TEACK flag is set */
1112:.././hal//stm32f0/stm32f0_hal_lowlevel.c ****       if(UART_WaitOnFlagUntilTimeout(huart, USART_ISR_TEACK, RESET, tickstart, HAL_UART_TIMEOUT_VAL
1113:.././hal//stm32f0/stm32f0_hal_lowlevel.c ****       {
1114:.././hal//stm32f0/stm32f0_hal_lowlevel.c ****         /* Timeout occurred */
1115:.././hal//stm32f0/stm32f0_hal_lowlevel.c ****         return HAL_TIMEOUT;
1116:.././hal//stm32f0/stm32f0_hal_lowlevel.c ****       }
1117:.././hal//stm32f0/stm32f0_hal_lowlevel.c ****     }
1118:.././hal//stm32f0/stm32f0_hal_lowlevel.c **** 
1119:.././hal//stm32f0/stm32f0_hal_lowlevel.c ****     /* Check if the Receiver is enabled */
1120:.././hal//stm32f0/stm32f0_hal_lowlevel.c ****     if((huart->Instance->CR1 & USART_CR1_RE) == USART_CR1_RE)
1121:.././hal//stm32f0/stm32f0_hal_lowlevel.c ****     {
1122:.././hal//stm32f0/stm32f0_hal_lowlevel.c ****       /* Wait until REACK flag is set */
1123:.././hal//stm32f0/stm32f0_hal_lowlevel.c ****       if(UART_WaitOnFlagUntilTimeout(huart, USART_ISR_REACK, RESET, tickstart, HAL_UART_TIMEOUT_VAL
1124:.././hal//stm32f0/stm32f0_hal_lowlevel.c ****       {
1125:.././hal//stm32f0/stm32f0_hal_lowlevel.c ****         /* Timeout occurred */
1126:.././hal//stm32f0/stm32f0_hal_lowlevel.c ****         return HAL_TIMEOUT;
1127:.././hal//stm32f0/stm32f0_hal_lowlevel.c ****       }
1128:.././hal//stm32f0/stm32f0_hal_lowlevel.c ****     }
1129:.././hal//stm32f0/stm32f0_hal_lowlevel.c ****   }
1130:.././hal//stm32f0/stm32f0_hal_lowlevel.c **** #endif /* !defined(STM32F030x6) && !defined(STM32F030x8)&& !defined(STM32F070xB)&& !defined(STM32F0
1131:.././hal//stm32f0/stm32f0_hal_lowlevel.c **** 
1132:.././hal//stm32f0/stm32f0_hal_lowlevel.c ****   /* Initialize the UART State */
1133:.././hal//stm32f0/stm32f0_hal_lowlevel.c ****   huart->gState  = HAL_UART_STATE_READY;
1134:.././hal//stm32f0/stm32f0_hal_lowlevel.c ****   huart->RxState = HAL_UART_STATE_READY;
1135:.././hal//stm32f0/stm32f0_hal_lowlevel.c **** 
1136:.././hal//stm32f0/stm32f0_hal_lowlevel.c ****   /* Process Unlocked */
1137:.././hal//stm32f0/stm32f0_hal_lowlevel.c ****   __HAL_UNLOCK(huart);
1138:.././hal//stm32f0/stm32f0_hal_lowlevel.c **** 
1139:.././hal//stm32f0/stm32f0_hal_lowlevel.c ****   return HAL_OK;
1140:.././hal//stm32f0/stm32f0_hal_lowlevel.c **** }
 2256              		.loc 1 1140 1 view .LVU744
 2257              		@ sp needed
1097:.././hal//stm32f0/stm32f0_hal_lowlevel.c **** 
 2258              		.loc 1 1097 20 view .LVU745
 2259 0002 0020     		movs	r0, #0
 2260              	.LVL168:
1133:.././hal//stm32f0/stm32f0_hal_lowlevel.c ****   huart->RxState = HAL_UART_STATE_READY;
 2261              		.loc 1 1133 18 view .LVU746
 2262 0004 1900     		movs	r1, r3
 2263 0006 2022     		movs	r2, #32
1097:.././hal//stm32f0/stm32f0_hal_lowlevel.c **** 
 2264              		.loc 1 1097 20 view .LVU747
 2265 0008 D866     		str	r0, [r3, #108]
1133:.././hal//stm32f0/stm32f0_hal_lowlevel.c ****   huart->RxState = HAL_UART_STATE_READY;
 2266              		.loc 1 1133 3 is_stmt 1 view .LVU748
1133:.././hal//stm32f0/stm32f0_hal_lowlevel.c ****   huart->RxState = HAL_UART_STATE_READY;
 2267              		.loc 1 1133 18 is_stmt 0 view .LVU749
 2268 000a 6931     		adds	r1, r1, #105
1137:.././hal//stm32f0/stm32f0_hal_lowlevel.c **** 
 2269              		.loc 1 1137 3 view .LVU750
 2270 000c 6833     		adds	r3, r3, #104
 2271              	.LVL169:
1133:.././hal//stm32f0/stm32f0_hal_lowlevel.c ****   huart->RxState = HAL_UART_STATE_READY;
 2272              		.loc 1 1133 18 view .LVU751
 2273 000e 0A70     		strb	r2, [r1]
1134:.././hal//stm32f0/stm32f0_hal_lowlevel.c **** 
 2274              		.loc 1 1134 3 is_stmt 1 view .LVU752
1134:.././hal//stm32f0/stm32f0_hal_lowlevel.c **** 
 2275              		.loc 1 1134 18 is_stmt 0 view .LVU753
 2276 0010 4A70     		strb	r2, [r1, #1]
1137:.././hal//stm32f0/stm32f0_hal_lowlevel.c **** 
 2277              		.loc 1 1137 3 is_stmt 1 view .LVU754
1137:.././hal//stm32f0/stm32f0_hal_lowlevel.c **** 
 2278              		.loc 1 1137 3 view .LVU755
 2279 0012 1870     		strb	r0, [r3]
1137:.././hal//stm32f0/stm32f0_hal_lowlevel.c **** 
 2280              		.loc 1 1137 3 view .LVU756
1139:.././hal//stm32f0/stm32f0_hal_lowlevel.c **** }
 2281              		.loc 1 1139 3 view .LVU757
 2282              		.loc 1 1140 1 is_stmt 0 view .LVU758
 2283 0014 7047     		bx	lr
 2284              		.cfi_endproc
 2285              	.LFE47:
 2287              		.section	.text.UART_SetConfig,"ax",%progbits
 2288              		.align	1
 2289              		.global	UART_SetConfig
 2290              		.syntax unified
 2291              		.code	16
 2292              		.thumb_func
 2294              	UART_SetConfig:
 2295              	.LVL170:
 2296              	.LFB48:
1141:.././hal//stm32f0/stm32f0_hal_lowlevel.c **** 
1142:.././hal//stm32f0/stm32f0_hal_lowlevel.c **** HAL_StatusTypeDef UART_SetConfig(UART_HandleTypeDef *huart)
1143:.././hal//stm32f0/stm32f0_hal_lowlevel.c **** {
 2297              		.loc 1 1143 1 is_stmt 1 view -0
 2298              		.cfi_startproc
 2299              		@ args = 0, pretend = 0, frame = 0
 2300              		@ frame_needed = 0, uses_anonymous_args = 0
1144:.././hal//stm32f0/stm32f0_hal_lowlevel.c ****   uint32_t tmpreg                     = 0x00000000U;
 2301              		.loc 1 1144 3 view .LVU760
1145:.././hal//stm32f0/stm32f0_hal_lowlevel.c ****   UART_ClockSourceTypeDef clocksource = UART_CLOCKSOURCE_UNDEFINED;
 2302              		.loc 1 1145 3 view .LVU761
1146:.././hal//stm32f0/stm32f0_hal_lowlevel.c ****   uint16_t brrtemp                    = 0x0000U;
 2303              		.loc 1 1146 3 view .LVU762
1147:.././hal//stm32f0/stm32f0_hal_lowlevel.c ****   uint16_t usartdiv                   = 0x0000U;
 2304              		.loc 1 1147 3 view .LVU763
1148:.././hal//stm32f0/stm32f0_hal_lowlevel.c ****   HAL_StatusTypeDef ret               = HAL_OK;
 2305              		.loc 1 1148 3 view .LVU764
1149:.././hal//stm32f0/stm32f0_hal_lowlevel.c **** 
1150:.././hal//stm32f0/stm32f0_hal_lowlevel.c ****   /* Check the parameters */
1151:.././hal//stm32f0/stm32f0_hal_lowlevel.c ****   assert_param(IS_UART_BAUDRATE(huart->Init.BaudRate));
 2306              		.loc 1 1151 3 view .LVU765
1152:.././hal//stm32f0/stm32f0_hal_lowlevel.c ****   assert_param(IS_UART_WORD_LENGTH(huart->Init.WordLength));
 2307              		.loc 1 1152 3 view .LVU766
1153:.././hal//stm32f0/stm32f0_hal_lowlevel.c ****   assert_param(IS_UART_STOPBITS(huart->Init.StopBits));
 2308              		.loc 1 1153 3 view .LVU767
1154:.././hal//stm32f0/stm32f0_hal_lowlevel.c ****   assert_param(IS_UART_PARITY(huart->Init.Parity));
 2309              		.loc 1 1154 3 view .LVU768
1155:.././hal//stm32f0/stm32f0_hal_lowlevel.c ****   assert_param(IS_UART_MODE(huart->Init.Mode));
 2310              		.loc 1 1155 3 view .LVU769
1156:.././hal//stm32f0/stm32f0_hal_lowlevel.c ****   assert_param(IS_UART_HARDWARE_FLOW_CONTROL(huart->Init.HwFlowCtl));
 2311              		.loc 1 1156 3 view .LVU770
1157:.././hal//stm32f0/stm32f0_hal_lowlevel.c ****   assert_param(IS_UART_ONE_BIT_SAMPLE(huart->Init.OneBitSampling));
 2312              		.loc 1 1157 3 view .LVU771
1158:.././hal//stm32f0/stm32f0_hal_lowlevel.c ****   assert_param(IS_UART_OVERSAMPLING(huart->Init.OverSampling));
 2313              		.loc 1 1158 3 view .LVU772
1159:.././hal//stm32f0/stm32f0_hal_lowlevel.c **** 
1160:.././hal//stm32f0/stm32f0_hal_lowlevel.c **** 
1161:.././hal//stm32f0/stm32f0_hal_lowlevel.c ****   /*-------------------------- USART CR1 Configuration -----------------------*/
1162:.././hal//stm32f0/stm32f0_hal_lowlevel.c ****   /* Clear M, PCE, PS, TE, RE and OVER8 bits and configure
1163:.././hal//stm32f0/stm32f0_hal_lowlevel.c ****    *  the UART Word Length, Parity, Mode and oversampling:
1164:.././hal//stm32f0/stm32f0_hal_lowlevel.c ****    *  set the M bits according to huart->Init.WordLength value
1165:.././hal//stm32f0/stm32f0_hal_lowlevel.c ****    *  set PCE and PS bits according to huart->Init.Parity value
1166:.././hal//stm32f0/stm32f0_hal_lowlevel.c ****    *  set TE and RE bits according to huart->Init.Mode value
1167:.././hal//stm32f0/stm32f0_hal_lowlevel.c ****    *  set OVER8 bit according to huart->Init.OverSampling value */
1168:.././hal//stm32f0/stm32f0_hal_lowlevel.c ****   tmpreg = (uint32_t)huart->Init.WordLength | huart->Init.Parity | huart->Init.Mode | huart->Init.O
 2314              		.loc 1 1168 3 view .LVU773
1143:.././hal//stm32f0/stm32f0_hal_lowlevel.c ****   uint32_t tmpreg                     = 0x00000000U;
 2315              		.loc 1 1143 1 is_stmt 0 view .LVU774
 2316 0000 0300     		movs	r3, r0
 2317 0002 70B5     		push	{r4, r5, r6, lr}
 2318              	.LCFI8:
 2319              		.cfi_def_cfa_offset 16
 2320              		.cfi_offset 4, -16
 2321              		.cfi_offset 5, -12
 2322              		.cfi_offset 6, -8
 2323              		.cfi_offset 14, -4
 2324              		.loc 1 1168 45 view .LVU775
 2325 0004 9A68     		ldr	r2, [r3, #8]
 2326 0006 1D69     		ldr	r5, [r3, #16]
1169:.././hal//stm32f0/stm32f0_hal_lowlevel.c ****   MODIFY_REG(huart->Instance->CR1, UART_CR1_FIELDS, tmpreg);
 2327              		.loc 1 1169 3 view .LVU776
 2328 0008 0468     		ldr	r4, [r0]
1168:.././hal//stm32f0/stm32f0_hal_lowlevel.c ****   MODIFY_REG(huart->Instance->CR1, UART_CR1_FIELDS, tmpreg);
 2329              		.loc 1 1168 45 view .LVU777
 2330 000a 2A43     		orrs	r2, r5
1168:.././hal//stm32f0/stm32f0_hal_lowlevel.c ****   MODIFY_REG(huart->Instance->CR1, UART_CR1_FIELDS, tmpreg);
 2331              		.loc 1 1168 66 view .LVU778
 2332 000c 5D69     		ldr	r5, [r3, #20]
1168:.././hal//stm32f0/stm32f0_hal_lowlevel.c ****   MODIFY_REG(huart->Instance->CR1, UART_CR1_FIELDS, tmpreg);
 2333              		.loc 1 1168 98 view .LVU779
 2334 000e C169     		ldr	r1, [r0, #28]
 2335              	.LVL171:
 2336              		.loc 1 1169 3 is_stmt 1 view .LVU780
1168:.././hal//stm32f0/stm32f0_hal_lowlevel.c ****   MODIFY_REG(huart->Instance->CR1, UART_CR1_FIELDS, tmpreg);
 2337              		.loc 1 1168 66 is_stmt 0 view .LVU781
 2338 0010 2A43     		orrs	r2, r5
 2339              		.loc 1 1169 3 view .LVU782
 2340 0012 2068     		ldr	r0, [r4]
 2341              	.LVL172:
 2342              		.loc 1 1169 3 view .LVU783
 2343 0014 334D     		ldr	r5, .L256
 2344              	.LVL173:
1168:.././hal//stm32f0/stm32f0_hal_lowlevel.c ****   MODIFY_REG(huart->Instance->CR1, UART_CR1_FIELDS, tmpreg);
 2345              		.loc 1 1168 10 view .LVU784
 2346 0016 0A43     		orrs	r2, r1
 2347              		.loc 1 1169 3 view .LVU785
 2348 0018 2840     		ands	r0, r5
 2349 001a 0243     		orrs	r2, r0
 2350 001c 2260     		str	r2, [r4]
1170:.././hal//stm32f0/stm32f0_hal_lowlevel.c **** 
1171:.././hal//stm32f0/stm32f0_hal_lowlevel.c ****   /*-------------------------- USART CR2 Configuration -----------------------*/
1172:.././hal//stm32f0/stm32f0_hal_lowlevel.c ****   /* Configure the UART Stop Bits: Set STOP[13:12] bits according
1173:.././hal//stm32f0/stm32f0_hal_lowlevel.c ****    * to huart->Init.StopBits value */
1174:.././hal//stm32f0/stm32f0_hal_lowlevel.c ****   MODIFY_REG(huart->Instance->CR2, USART_CR2_STOP, huart->Init.StopBits);
 2351              		.loc 1 1174 3 is_stmt 1 view .LVU786
 2352 001e 6268     		ldr	r2, [r4, #4]
 2353 0020 3148     		ldr	r0, .L256+4
1175:.././hal//stm32f0/stm32f0_hal_lowlevel.c **** 
1176:.././hal//stm32f0/stm32f0_hal_lowlevel.c ****   /*-------------------------- USART CR3 Configuration -----------------------*/
1177:.././hal//stm32f0/stm32f0_hal_lowlevel.c ****   /* Configure
1178:.././hal//stm32f0/stm32f0_hal_lowlevel.c ****    * - UART HardWare Flow Control: set CTSE and RTSE bits according
1179:.././hal//stm32f0/stm32f0_hal_lowlevel.c ****    *   to huart->Init.HwFlowCtl value
1180:.././hal//stm32f0/stm32f0_hal_lowlevel.c ****    * - one-bit sampling method versus three samples' majority rule according
1181:.././hal//stm32f0/stm32f0_hal_lowlevel.c ****    *   to huart->Init.OneBitSampling */
1182:.././hal//stm32f0/stm32f0_hal_lowlevel.c ****   tmpreg = (uint32_t)huart->Init.HwFlowCtl | huart->Init.OneBitSampling ;
 2354              		.loc 1 1182 10 is_stmt 0 view .LVU787
 2355 0022 1D6A     		ldr	r5, [r3, #32]
1174:.././hal//stm32f0/stm32f0_hal_lowlevel.c **** 
 2356              		.loc 1 1174 3 view .LVU788
 2357 0024 0240     		ands	r2, r0
 2358 0026 D868     		ldr	r0, [r3, #12]
 2359 0028 0243     		orrs	r2, r0
 2360 002a 6260     		str	r2, [r4, #4]
 2361              		.loc 1 1182 3 is_stmt 1 view .LVU789
 2362              	.LVL174:
1183:.././hal//stm32f0/stm32f0_hal_lowlevel.c ****   MODIFY_REG(huart->Instance->CR3, (USART_CR3_RTSE | USART_CR3_CTSE | USART_CR3_ONEBIT), tmpreg);
 2363              		.loc 1 1183 3 view .LVU790
1182:.././hal//stm32f0/stm32f0_hal_lowlevel.c ****   MODIFY_REG(huart->Instance->CR3, (USART_CR3_RTSE | USART_CR3_CTSE | USART_CR3_ONEBIT), tmpreg);
 2364              		.loc 1 1182 10 is_stmt 0 view .LVU791
 2365 002c 9A69     		ldr	r2, [r3, #24]
 2366              		.loc 1 1183 3 view .LVU792
 2367 002e A068     		ldr	r0, [r4, #8]
1182:.././hal//stm32f0/stm32f0_hal_lowlevel.c ****   MODIFY_REG(huart->Instance->CR3, (USART_CR3_RTSE | USART_CR3_CTSE | USART_CR3_ONEBIT), tmpreg);
 2368              		.loc 1 1182 10 view .LVU793
 2369 0030 2A43     		orrs	r2, r5
 2370              		.loc 1 1183 3 view .LVU794
 2371 0032 2E4D     		ldr	r5, .L256+8
 2372 0034 2840     		ands	r0, r5
 2373 0036 0243     		orrs	r2, r0
1184:.././hal//stm32f0/stm32f0_hal_lowlevel.c **** 
1185:.././hal//stm32f0/stm32f0_hal_lowlevel.c ****   /*-------------------------- USART BRR Configuration -----------------------*/
1186:.././hal//stm32f0/stm32f0_hal_lowlevel.c ****   UART_GETCLOCKSOURCE(huart, clocksource);
 2374              		.loc 1 1186 3 view .LVU795
 2375 0038 0320     		movs	r0, #3
 2376 003a 8025     		movs	r5, #128
1183:.././hal//stm32f0/stm32f0_hal_lowlevel.c **** 
 2377              		.loc 1 1183 3 view .LVU796
 2378 003c A260     		str	r2, [r4, #8]
 2379              		.loc 1 1186 3 is_stmt 1 view .LVU797
 2380              		.loc 1 1186 3 view .LVU798
 2381 003e 2C4A     		ldr	r2, .L256+12
 2382 0040 2D02     		lsls	r5, r5, #8
 2383 0042 126B     		ldr	r2, [r2, #48]
 2384 0044 0240     		ands	r2, r0
 2385 0046 013A     		subs	r2, r2, #1
 2386 0048 022A     		cmp	r2, #2
 2387 004a 37D8     		bhi	.L237
 2388 004c 2948     		ldr	r0, .L256+16
 2389 004e 805C     		ldrb	r0, [r0, r2]
 2390              	.LVL175:
 2391              		.loc 1 1186 3 discriminator 10 view .LVU799
1187:.././hal//stm32f0/stm32f0_hal_lowlevel.c ****   
1188:.././hal//stm32f0/stm32f0_hal_lowlevel.c ****   /* Check UART Over Sampling to set Baud Rate Register */
1189:.././hal//stm32f0/stm32f0_hal_lowlevel.c ****   if (huart->Init.OverSampling == UART_OVERSAMPLING_8)
 2392              		.loc 1 1189 3 view .LVU800
 2393              		.loc 1 1189 6 is_stmt 0 view .LVU801
 2394 0050 A942     		cmp	r1, r5
 2395 0052 14D1     		bne	.L238
1190:.././hal//stm32f0/stm32f0_hal_lowlevel.c ****   {
1191:.././hal//stm32f0/stm32f0_hal_lowlevel.c ****     switch (clocksource)
 2396              		.loc 1 1191 5 is_stmt 1 view .LVU802
 2397 0054 0828     		cmp	r0, #8
 2398 0056 0FD8     		bhi	.L251
 2399 0058 FFF7FEFF 		bl	__gnu_thumb1_case_uqi
 2400              	.L241:
 2401 005c 32       		.byte	(.L242-.L241)/2
 2402 005d 0E       		.byte	(.L251-.L241)/2
 2403 005e 05       		.byte	(.L243-.L241)/2
 2404 005f 0E       		.byte	(.L251-.L241)/2
 2405 0060 32       		.byte	(.L242-.L241)/2
 2406 0061 0E       		.byte	(.L251-.L241)/2
 2407 0062 0E       		.byte	(.L251-.L241)/2
 2408 0063 0E       		.byte	(.L251-.L241)/2
 2409 0064 09       		.byte	(.L240-.L241)/2
 2410 0065 00       		.p2align 1
 2411              	.L243:
1192:.././hal//stm32f0/stm32f0_hal_lowlevel.c ****     {
1193:.././hal//stm32f0/stm32f0_hal_lowlevel.c ****       case UART_CLOCKSOURCE_PCLK1:
1194:.././hal//stm32f0/stm32f0_hal_lowlevel.c ****         usartdiv = (uint16_t)(UART_DIV_SAMPLING8(HAL_RCC_GetPCLK1Freq(), huart->Init.BaudRate));
1195:.././hal//stm32f0/stm32f0_hal_lowlevel.c ****         break;
1196:.././hal//stm32f0/stm32f0_hal_lowlevel.c ****       case UART_CLOCKSOURCE_HSI:
1197:.././hal//stm32f0/stm32f0_hal_lowlevel.c ****         usartdiv = (uint16_t)(UART_DIV_SAMPLING8(HSI_VALUE, huart->Init.BaudRate));
 2412              		.loc 1 1197 9 view .LVU803
 2413              		.loc 1 1197 31 is_stmt 0 view .LVU804
 2414 0066 5968     		ldr	r1, [r3, #4]
 2415 0068 234B     		ldr	r3, .L256+20
 2416              	.LVL176:
 2417              		.loc 1 1197 31 view .LVU805
 2418 006a 4808     		lsrs	r0, r1, #1
 2419              	.LVL177:
 2420              		.loc 1 1197 31 view .LVU806
 2421 006c 2CE0     		b	.L254
 2422              	.LVL178:
 2423              	.L240:
1198:.././hal//stm32f0/stm32f0_hal_lowlevel.c ****         break;
1199:.././hal//stm32f0/stm32f0_hal_lowlevel.c ****       case UART_CLOCKSOURCE_SYSCLK:
1200:.././hal//stm32f0/stm32f0_hal_lowlevel.c ****         usartdiv = (uint16_t)(UART_DIV_SAMPLING8(HAL_RCC_GetSysClockFreq(), huart->Init.BaudRate));
1201:.././hal//stm32f0/stm32f0_hal_lowlevel.c ****         break;
1202:.././hal//stm32f0/stm32f0_hal_lowlevel.c ****       case UART_CLOCKSOURCE_LSE:
1203:.././hal//stm32f0/stm32f0_hal_lowlevel.c ****         usartdiv = (uint16_t)(UART_DIV_SAMPLING8(LSE_VALUE, huart->Init.BaudRate));
 2424              		.loc 1 1203 9 is_stmt 1 view .LVU807
 2425              		.loc 1 1203 31 is_stmt 0 view .LVU808
 2426 006e 5968     		ldr	r1, [r3, #4]
 2427 0070 8023     		movs	r3, #128
 2428              	.LVL179:
 2429              		.loc 1 1203 31 view .LVU809
 2430 0072 4808     		lsrs	r0, r1, #1
 2431              	.LVL180:
 2432              		.loc 1 1203 31 view .LVU810
 2433 0074 5B02     		lsls	r3, r3, #9
 2434 0076 27E0     		b	.L254
 2435              	.LVL181:
 2436              	.L251:
1191:.././hal//stm32f0/stm32f0_hal_lowlevel.c ****     {
 2437              		.loc 1 1191 5 view .LVU811
 2438 0078 0120     		movs	r0, #1
 2439              	.LVL182:
1191:.././hal//stm32f0/stm32f0_hal_lowlevel.c ****     {
 2440              		.loc 1 1191 5 view .LVU812
 2441 007a 0023     		movs	r3, #0
 2442              	.LVL183:
1191:.././hal//stm32f0/stm32f0_hal_lowlevel.c ****     {
 2443              		.loc 1 1191 5 view .LVU813
 2444 007c 29E0     		b	.L239
 2445              	.LVL184:
 2446              	.L238:
1204:.././hal//stm32f0/stm32f0_hal_lowlevel.c ****         break;
1205:.././hal//stm32f0/stm32f0_hal_lowlevel.c ****       case UART_CLOCKSOURCE_UNDEFINED:
1206:.././hal//stm32f0/stm32f0_hal_lowlevel.c ****       default:
1207:.././hal//stm32f0/stm32f0_hal_lowlevel.c ****         ret = HAL_ERROR;
1208:.././hal//stm32f0/stm32f0_hal_lowlevel.c ****         break;
1209:.././hal//stm32f0/stm32f0_hal_lowlevel.c ****     }
1210:.././hal//stm32f0/stm32f0_hal_lowlevel.c **** 
1211:.././hal//stm32f0/stm32f0_hal_lowlevel.c ****     brrtemp = usartdiv & 0xFFF0U;
1212:.././hal//stm32f0/stm32f0_hal_lowlevel.c ****     brrtemp |= (uint16_t)((usartdiv & (uint16_t)0x000FU) >> 1U);
1213:.././hal//stm32f0/stm32f0_hal_lowlevel.c ****     huart->Instance->BRR = brrtemp;
1214:.././hal//stm32f0/stm32f0_hal_lowlevel.c ****   }
1215:.././hal//stm32f0/stm32f0_hal_lowlevel.c ****   else
1216:.././hal//stm32f0/stm32f0_hal_lowlevel.c ****   {
1217:.././hal//stm32f0/stm32f0_hal_lowlevel.c ****     switch (clocksource)
 2447              		.loc 1 1217 5 is_stmt 1 view .LVU814
 2448 007e 0828     		cmp	r0, #8
 2449 0080 1AD8     		bhi	.L252
 2450 0082 FFF7FEFF 		bl	__gnu_thumb1_case_uqi
 2451              	.L246:
 2452 0086 0F       		.byte	(.L247-.L246)/2
 2453 0087 19       		.byte	(.L252-.L246)/2
 2454 0088 05       		.byte	(.L248-.L246)/2
 2455 0089 19       		.byte	(.L252-.L246)/2
 2456 008a 0F       		.byte	(.L247-.L246)/2
 2457 008b 19       		.byte	(.L252-.L246)/2
 2458 008c 19       		.byte	(.L252-.L246)/2
 2459 008d 19       		.byte	(.L252-.L246)/2
 2460 008e 14       		.byte	(.L245-.L246)/2
 2461 008f 00       		.p2align 1
 2462              	.L248:
1218:.././hal//stm32f0/stm32f0_hal_lowlevel.c ****     {
1219:.././hal//stm32f0/stm32f0_hal_lowlevel.c ****       case UART_CLOCKSOURCE_PCLK1:
1220:.././hal//stm32f0/stm32f0_hal_lowlevel.c ****         huart->Instance->BRR = (uint16_t)(UART_DIV_SAMPLING16(HAL_RCC_GetPCLK1Freq(), huart->Init.B
1221:.././hal//stm32f0/stm32f0_hal_lowlevel.c ****         break;
1222:.././hal//stm32f0/stm32f0_hal_lowlevel.c ****       case UART_CLOCKSOURCE_HSI:
1223:.././hal//stm32f0/stm32f0_hal_lowlevel.c ****         huart->Instance->BRR = (uint16_t)(UART_DIV_SAMPLING16(HSI_VALUE, huart->Init.BaudRate));
 2463              		.loc 1 1223 9 view .LVU815
 2464              		.loc 1 1223 43 is_stmt 0 view .LVU816
 2465 0090 5968     		ldr	r1, [r3, #4]
 2466 0092 1A4B     		ldr	r3, .L256+24
 2467              	.LVL185:
 2468              		.loc 1 1223 43 view .LVU817
 2469 0094 4808     		lsrs	r0, r1, #1
 2470              	.LVL186:
 2471              	.L255:
 2472              		.loc 1 1223 43 view .LVU818
 2473 0096 C018     		adds	r0, r0, r3
 2474 0098 FFF7FEFF 		bl	__aeabi_uidiv
 2475              	.LVL187:
 2476              		.loc 1 1223 43 view .LVU819
 2477 009c 80B2     		uxth	r0, r0
 2478              		.loc 1 1223 30 view .LVU820
 2479 009e E060     		str	r0, [r4, #12]
1224:.././hal//stm32f0/stm32f0_hal_lowlevel.c ****         break;
 2480              		.loc 1 1224 9 is_stmt 1 view .LVU821
1148:.././hal//stm32f0/stm32f0_hal_lowlevel.c **** 
 2481              		.loc 1 1148 21 is_stmt 0 view .LVU822
 2482 00a0 0020     		movs	r0, #0
 2483 00a2 1DE0     		b	.L253
 2484              	.LVL188:
 2485              	.L247:
1225:.././hal//stm32f0/stm32f0_hal_lowlevel.c ****       case UART_CLOCKSOURCE_SYSCLK:
1226:.././hal//stm32f0/stm32f0_hal_lowlevel.c ****         huart->Instance->BRR = (uint16_t)(UART_DIV_SAMPLING16(HAL_RCC_GetSysClockFreq(), huart->Ini
 2486              		.loc 1 1226 9 is_stmt 1 view .LVU823
 2487              		.loc 1 1226 43 is_stmt 0 discriminator 1 view .LVU824
 2488 00a4 5968     		ldr	r1, [r3, #4]
 2489 00a6 E123     		movs	r3, #225
 2490              	.LVL189:
 2491              		.loc 1 1226 43 discriminator 1 view .LVU825
 2492 00a8 4808     		lsrs	r0, r1, #1
 2493 00aa DB03     		lsls	r3, r3, #15
 2494 00ac F3E7     		b	.L255
 2495              	.LVL190:
 2496              	.L245:
1227:.././hal//stm32f0/stm32f0_hal_lowlevel.c ****         break;
1228:.././hal//stm32f0/stm32f0_hal_lowlevel.c ****       case UART_CLOCKSOURCE_LSE:
1229:.././hal//stm32f0/stm32f0_hal_lowlevel.c ****         huart->Instance->BRR = (uint16_t)(UART_DIV_SAMPLING16(LSE_VALUE, huart->Init.BaudRate));
 2497              		.loc 1 1229 9 is_stmt 1 view .LVU826
 2498              		.loc 1 1229 43 is_stmt 0 view .LVU827
 2499 00ae 5968     		ldr	r1, [r3, #4]
 2500 00b0 8023     		movs	r3, #128
 2501              	.LVL191:
 2502              		.loc 1 1229 43 view .LVU828
 2503 00b2 4808     		lsrs	r0, r1, #1
 2504              	.LVL192:
 2505              		.loc 1 1229 43 view .LVU829
 2506 00b4 1B02     		lsls	r3, r3, #8
 2507 00b6 EEE7     		b	.L255
 2508              	.LVL193:
 2509              	.L252:
1217:.././hal//stm32f0/stm32f0_hal_lowlevel.c ****     {
 2510              		.loc 1 1217 5 view .LVU830
 2511 00b8 0120     		movs	r0, #1
 2512              	.LVL194:
1230:.././hal//stm32f0/stm32f0_hal_lowlevel.c ****         break;
1231:.././hal//stm32f0/stm32f0_hal_lowlevel.c ****       case UART_CLOCKSOURCE_UNDEFINED:
1232:.././hal//stm32f0/stm32f0_hal_lowlevel.c ****       default:
1233:.././hal//stm32f0/stm32f0_hal_lowlevel.c ****         ret = HAL_ERROR;
1234:.././hal//stm32f0/stm32f0_hal_lowlevel.c ****         break;
1235:.././hal//stm32f0/stm32f0_hal_lowlevel.c ****     }
1236:.././hal//stm32f0/stm32f0_hal_lowlevel.c ****   }
1237:.././hal//stm32f0/stm32f0_hal_lowlevel.c **** 
1238:.././hal//stm32f0/stm32f0_hal_lowlevel.c ****   return ret;
 2513              		.loc 1 1238 3 is_stmt 1 view .LVU831
 2514              		.loc 1 1238 10 is_stmt 0 view .LVU832
 2515 00ba 11E0     		b	.L253
 2516              	.LVL195:
 2517              	.L237:
1186:.././hal//stm32f0/stm32f0_hal_lowlevel.c ****   
 2518              		.loc 1 1186 3 is_stmt 1 discriminator 10 view .LVU833
1189:.././hal//stm32f0/stm32f0_hal_lowlevel.c ****   {
 2519              		.loc 1 1189 3 view .LVU834
1189:.././hal//stm32f0/stm32f0_hal_lowlevel.c ****   {
 2520              		.loc 1 1189 6 is_stmt 0 view .LVU835
 2521 00bc A942     		cmp	r1, r5
 2522 00be F1D1     		bne	.L247
 2523              	.LVL196:
 2524              	.L242:
1194:.././hal//stm32f0/stm32f0_hal_lowlevel.c ****         break;
 2525              		.loc 1 1194 9 is_stmt 1 view .LVU836
1194:.././hal//stm32f0/stm32f0_hal_lowlevel.c ****         break;
 2526              		.loc 1 1194 31 is_stmt 0 discriminator 1 view .LVU837
 2527 00c0 5968     		ldr	r1, [r3, #4]
 2528 00c2 E123     		movs	r3, #225
 2529              	.LVL197:
1194:.././hal//stm32f0/stm32f0_hal_lowlevel.c ****         break;
 2530              		.loc 1 1194 31 discriminator 1 view .LVU838
 2531 00c4 4808     		lsrs	r0, r1, #1
 2532 00c6 1B04     		lsls	r3, r3, #16
 2533              	.L254:
1203:.././hal//stm32f0/stm32f0_hal_lowlevel.c ****         break;
 2534              		.loc 1 1203 31 view .LVU839
 2535 00c8 C018     		adds	r0, r0, r3
 2536 00ca FFF7FEFF 		bl	__aeabi_uidiv
 2537              	.LVL198:
1203:.././hal//stm32f0/stm32f0_hal_lowlevel.c ****         break;
 2538              		.loc 1 1203 18 view .LVU840
 2539 00ce 83B2     		uxth	r3, r0
 2540              	.LVL199:
1204:.././hal//stm32f0/stm32f0_hal_lowlevel.c ****       case UART_CLOCKSOURCE_UNDEFINED:
 2541              		.loc 1 1204 9 is_stmt 1 view .LVU841
1148:.././hal//stm32f0/stm32f0_hal_lowlevel.c **** 
 2542              		.loc 1 1148 21 is_stmt 0 view .LVU842
 2543 00d0 0020     		movs	r0, #0
 2544              	.LVL200:
 2545              	.L239:
1211:.././hal//stm32f0/stm32f0_hal_lowlevel.c ****     brrtemp |= (uint16_t)((usartdiv & (uint16_t)0x000FU) >> 1U);
 2546              		.loc 1 1211 5 is_stmt 1 view .LVU843
1211:.././hal//stm32f0/stm32f0_hal_lowlevel.c ****     brrtemp |= (uint16_t)((usartdiv & (uint16_t)0x000FU) >> 1U);
 2547              		.loc 1 1211 13 is_stmt 0 view .LVU844
 2548 00d2 1900     		movs	r1, r3
 2549 00d4 0F22     		movs	r2, #15
1212:.././hal//stm32f0/stm32f0_hal_lowlevel.c ****     huart->Instance->BRR = brrtemp;
 2550              		.loc 1 1212 16 view .LVU845
 2551 00d6 1B07     		lsls	r3, r3, #28
 2552              	.LVL201:
1211:.././hal//stm32f0/stm32f0_hal_lowlevel.c ****     brrtemp |= (uint16_t)((usartdiv & (uint16_t)0x000FU) >> 1U);
 2553              		.loc 1 1211 13 view .LVU846
 2554 00d8 9143     		bics	r1, r2
 2555              	.LVL202:
1212:.././hal//stm32f0/stm32f0_hal_lowlevel.c ****     huart->Instance->BRR = brrtemp;
 2556              		.loc 1 1212 5 is_stmt 1 view .LVU847
1213:.././hal//stm32f0/stm32f0_hal_lowlevel.c ****   }
 2557              		.loc 1 1213 5 view .LVU848
1212:.././hal//stm32f0/stm32f0_hal_lowlevel.c ****     huart->Instance->BRR = brrtemp;
 2558              		.loc 1 1212 16 is_stmt 0 view .LVU849
 2559 00da 5B0F     		lsrs	r3, r3, #29
1213:.././hal//stm32f0/stm32f0_hal_lowlevel.c ****   }
 2560              		.loc 1 1213 26 view .LVU850
 2561 00dc 0B43     		orrs	r3, r1
 2562 00de E360     		str	r3, [r4, #12]
 2563              	.LVL203:
 2564              	.L253:
1239:.././hal//stm32f0/stm32f0_hal_lowlevel.c **** 
1240:.././hal//stm32f0/stm32f0_hal_lowlevel.c **** }
 2565              		.loc 1 1240 1 view .LVU851
 2566              		@ sp needed
 2567 00e0 70BD     		pop	{r4, r5, r6, pc}
 2568              	.L257:
 2569 00e2 C046     		.align	2
 2570              	.L256:
 2571 00e4 F369FFFF 		.word	-38413
 2572 00e8 FFCFFFFF 		.word	-12289
 2573 00ec FFF4FFFF 		.word	-2817
 2574 00f0 00100240 		.word	1073876992
 2575 00f4 00000000 		.word	.LANCHOR2
 2576 00f8 0048E801 		.word	32000000
 2577 00fc 0024F400 		.word	16000000
 2578              		.cfi_endproc
 2579              	.LFE48:
 2581              		.section	.text.HAL_UART_Init,"ax",%progbits
 2582              		.align	1
 2583              		.global	HAL_UART_Init
 2584              		.syntax unified
 2585              		.code	16
 2586              		.thumb_func
 2588              	HAL_UART_Init:
 2589              	.LVL204:
 2590              	.LFB49:
1241:.././hal//stm32f0/stm32f0_hal_lowlevel.c **** 
1242:.././hal//stm32f0/stm32f0_hal_lowlevel.c **** /**
1243:.././hal//stm32f0/stm32f0_hal_lowlevel.c ****   * @brief Initialize the UART mode according to the specified
1244:.././hal//stm32f0/stm32f0_hal_lowlevel.c ****   *        parameters in the UART_InitTypeDef and initialize the associated handle.
1245:.././hal//stm32f0/stm32f0_hal_lowlevel.c ****   * @param huart: UART handle.
1246:.././hal//stm32f0/stm32f0_hal_lowlevel.c ****   * @retval HAL status
1247:.././hal//stm32f0/stm32f0_hal_lowlevel.c ****   */
1248:.././hal//stm32f0/stm32f0_hal_lowlevel.c **** HAL_StatusTypeDef HAL_UART_Init(UART_HandleTypeDef *huart)
1249:.././hal//stm32f0/stm32f0_hal_lowlevel.c **** {
 2591              		.loc 1 1249 1 is_stmt 1 view -0
 2592              		.cfi_startproc
 2593              		@ args = 0, pretend = 0, frame = 0
 2594              		@ frame_needed = 0, uses_anonymous_args = 0
1250:.././hal//stm32f0/stm32f0_hal_lowlevel.c ****   /* Check the UART handle allocation */
1251:.././hal//stm32f0/stm32f0_hal_lowlevel.c ****   if(huart == NULL)
 2595              		.loc 1 1251 3 view .LVU853
1249:.././hal//stm32f0/stm32f0_hal_lowlevel.c ****   /* Check the UART handle allocation */
 2596              		.loc 1 1249 1 is_stmt 0 view .LVU854
 2597 0000 F8B5     		push	{r3, r4, r5, r6, r7, lr}
 2598              	.LCFI9:
 2599              		.cfi_def_cfa_offset 24
 2600              		.cfi_offset 3, -24
 2601              		.cfi_offset 4, -20
 2602              		.cfi_offset 5, -16
 2603              		.cfi_offset 6, -12
 2604              		.cfi_offset 7, -8
 2605              		.cfi_offset 14, -4
1249:.././hal//stm32f0/stm32f0_hal_lowlevel.c ****   /* Check the UART handle allocation */
 2606              		.loc 1 1249 1 view .LVU855
 2607 0002 041E     		subs	r4, r0, #0
 2608              		.loc 1 1251 5 view .LVU856
 2609 0004 01D1     		bne	.L259
 2610              	.LVL205:
 2611              	.L262:
1252:.././hal//stm32f0/stm32f0_hal_lowlevel.c ****   {
1253:.././hal//stm32f0/stm32f0_hal_lowlevel.c ****     return HAL_ERROR;
 2612              		.loc 1 1253 12 view .LVU857
 2613 0006 0120     		movs	r0, #1
 2614              	.LVL206:
 2615              	.L260:
1254:.././hal//stm32f0/stm32f0_hal_lowlevel.c ****   }
1255:.././hal//stm32f0/stm32f0_hal_lowlevel.c **** 
1256:.././hal//stm32f0/stm32f0_hal_lowlevel.c ****   if(huart->Init.HwFlowCtl != UART_HWCONTROL_NONE)
1257:.././hal//stm32f0/stm32f0_hal_lowlevel.c ****   {
1258:.././hal//stm32f0/stm32f0_hal_lowlevel.c ****     /* Check the parameters */
1259:.././hal//stm32f0/stm32f0_hal_lowlevel.c ****     assert_param(IS_UART_HWFLOW_INSTANCE(huart->Instance));
1260:.././hal//stm32f0/stm32f0_hal_lowlevel.c ****   }
1261:.././hal//stm32f0/stm32f0_hal_lowlevel.c ****   else
1262:.././hal//stm32f0/stm32f0_hal_lowlevel.c ****   {
1263:.././hal//stm32f0/stm32f0_hal_lowlevel.c ****     /* Check the parameters */
1264:.././hal//stm32f0/stm32f0_hal_lowlevel.c ****     assert_param(IS_UART_INSTANCE(huart->Instance));
1265:.././hal//stm32f0/stm32f0_hal_lowlevel.c ****   }
1266:.././hal//stm32f0/stm32f0_hal_lowlevel.c **** 
1267:.././hal//stm32f0/stm32f0_hal_lowlevel.c ****   if(huart->gState == HAL_UART_STATE_RESET)
1268:.././hal//stm32f0/stm32f0_hal_lowlevel.c ****   {
1269:.././hal//stm32f0/stm32f0_hal_lowlevel.c ****     /* Allocate lock resource and initialize it */
1270:.././hal//stm32f0/stm32f0_hal_lowlevel.c ****     huart->Lock = HAL_UNLOCKED;
1271:.././hal//stm32f0/stm32f0_hal_lowlevel.c **** 
1272:.././hal//stm32f0/stm32f0_hal_lowlevel.c ****     /* Init the low level hardware : GPIO, CLOCK */
1273:.././hal//stm32f0/stm32f0_hal_lowlevel.c ****     //HAL_UART_MspInit(huart);
1274:.././hal//stm32f0/stm32f0_hal_lowlevel.c ****   }
1275:.././hal//stm32f0/stm32f0_hal_lowlevel.c **** 
1276:.././hal//stm32f0/stm32f0_hal_lowlevel.c ****   huart->gState = HAL_UART_STATE_BUSY;
1277:.././hal//stm32f0/stm32f0_hal_lowlevel.c **** 
1278:.././hal//stm32f0/stm32f0_hal_lowlevel.c ****   /* Disable the Peripheral */
1279:.././hal//stm32f0/stm32f0_hal_lowlevel.c ****   __HAL_UART_DISABLE(huart);
1280:.././hal//stm32f0/stm32f0_hal_lowlevel.c **** 
1281:.././hal//stm32f0/stm32f0_hal_lowlevel.c ****   /* Set the UART Communication parameters */
1282:.././hal//stm32f0/stm32f0_hal_lowlevel.c ****   if (UART_SetConfig(huart) == HAL_ERROR)
1283:.././hal//stm32f0/stm32f0_hal_lowlevel.c ****   {
1284:.././hal//stm32f0/stm32f0_hal_lowlevel.c ****     return HAL_ERROR;
1285:.././hal//stm32f0/stm32f0_hal_lowlevel.c ****   }
1286:.././hal//stm32f0/stm32f0_hal_lowlevel.c **** 
1287:.././hal//stm32f0/stm32f0_hal_lowlevel.c ****   if (huart->AdvancedInit.AdvFeatureInit != UART_ADVFEATURE_NO_INIT)
1288:.././hal//stm32f0/stm32f0_hal_lowlevel.c ****   {
1289:.././hal//stm32f0/stm32f0_hal_lowlevel.c ****     //UART_AdvFeatureConfig(huart);
1290:.././hal//stm32f0/stm32f0_hal_lowlevel.c ****   }
1291:.././hal//stm32f0/stm32f0_hal_lowlevel.c **** 
1292:.././hal//stm32f0/stm32f0_hal_lowlevel.c ****   /* In asynchronous mode, the following bits must be kept cleared:
1293:.././hal//stm32f0/stm32f0_hal_lowlevel.c ****   - LINEN (if LIN is supported) and CLKEN bits in the USART_CR2 register,
1294:.././hal//stm32f0/stm32f0_hal_lowlevel.c ****   - SCEN (if Smartcard is supported), HDSEL and IREN (if IrDA is supported)  bits in the USART_CR3 
1295:.././hal//stm32f0/stm32f0_hal_lowlevel.c **** #if defined (USART_CR2_LINEN)
1296:.././hal//stm32f0/stm32f0_hal_lowlevel.c ****   CLEAR_BIT(huart->Instance->CR2, (USART_CR2_LINEN | USART_CR2_CLKEN));
1297:.././hal//stm32f0/stm32f0_hal_lowlevel.c **** #else
1298:.././hal//stm32f0/stm32f0_hal_lowlevel.c ****   CLEAR_BIT(huart->Instance->CR2, USART_CR2_CLKEN);
1299:.././hal//stm32f0/stm32f0_hal_lowlevel.c **** #endif
1300:.././hal//stm32f0/stm32f0_hal_lowlevel.c **** #if defined (USART_CR3_SCEN)
1301:.././hal//stm32f0/stm32f0_hal_lowlevel.c **** #if defined (USART_CR3_IREN)
1302:.././hal//stm32f0/stm32f0_hal_lowlevel.c ****   CLEAR_BIT(huart->Instance->CR3, (USART_CR3_SCEN | USART_CR3_HDSEL | USART_CR3_IREN));
1303:.././hal//stm32f0/stm32f0_hal_lowlevel.c **** #else
1304:.././hal//stm32f0/stm32f0_hal_lowlevel.c ****   CLEAR_BIT(huart->Instance->CR3, (USART_CR3_SCEN | USART_CR3_HDSEL));
1305:.././hal//stm32f0/stm32f0_hal_lowlevel.c **** #endif
1306:.././hal//stm32f0/stm32f0_hal_lowlevel.c **** #else
1307:.././hal//stm32f0/stm32f0_hal_lowlevel.c **** #if defined (USART_CR3_IREN)
1308:.././hal//stm32f0/stm32f0_hal_lowlevel.c ****   CLEAR_BIT(huart->Instance->CR3, (USART_CR3_HDSEL | USART_CR3_IREN));
1309:.././hal//stm32f0/stm32f0_hal_lowlevel.c **** #else
1310:.././hal//stm32f0/stm32f0_hal_lowlevel.c ****   CLEAR_BIT(huart->Instance->CR3, USART_CR3_HDSEL);
1311:.././hal//stm32f0/stm32f0_hal_lowlevel.c **** #endif
1312:.././hal//stm32f0/stm32f0_hal_lowlevel.c **** #endif
1313:.././hal//stm32f0/stm32f0_hal_lowlevel.c **** 
1314:.././hal//stm32f0/stm32f0_hal_lowlevel.c ****   /* Enable the Peripheral */
1315:.././hal//stm32f0/stm32f0_hal_lowlevel.c ****   __HAL_UART_ENABLE(huart);
1316:.././hal//stm32f0/stm32f0_hal_lowlevel.c **** 
1317:.././hal//stm32f0/stm32f0_hal_lowlevel.c ****   /* TEACK and/or REACK to check before moving huart->gState and huart->RxState to Ready */
1318:.././hal//stm32f0/stm32f0_hal_lowlevel.c ****   return (UART_CheckIdleState(huart));
1319:.././hal//stm32f0/stm32f0_hal_lowlevel.c **** }
 2616              		.loc 1 1319 1 view .LVU858
 2617              		@ sp needed
 2618 0008 F8BD     		pop	{r3, r4, r5, r6, r7, pc}
 2619              	.LVL207:
 2620              	.L259:
1256:.././hal//stm32f0/stm32f0_hal_lowlevel.c ****   {
 2621              		.loc 1 1256 3 is_stmt 1 view .LVU859
1259:.././hal//stm32f0/stm32f0_hal_lowlevel.c ****   }
 2622              		.loc 1 1259 5 view .LVU860
1264:.././hal//stm32f0/stm32f0_hal_lowlevel.c ****   }
 2623              		.loc 1 1264 5 view .LVU861
1267:.././hal//stm32f0/stm32f0_hal_lowlevel.c ****   {
 2624              		.loc 1 1267 3 view .LVU862
1267:.././hal//stm32f0/stm32f0_hal_lowlevel.c ****   {
 2625              		.loc 1 1267 11 is_stmt 0 view .LVU863
 2626 000a 0700     		movs	r7, r0
 2627 000c 6937     		adds	r7, r7, #105
 2628 000e 3B78     		ldrb	r3, [r7]
 2629 0010 DAB2     		uxtb	r2, r3
1267:.././hal//stm32f0/stm32f0_hal_lowlevel.c ****   {
 2630              		.loc 1 1267 5 view .LVU864
 2631 0012 002B     		cmp	r3, #0
 2632 0014 02D1     		bne	.L261
1270:.././hal//stm32f0/stm32f0_hal_lowlevel.c **** 
 2633              		.loc 1 1270 5 is_stmt 1 view .LVU865
1270:.././hal//stm32f0/stm32f0_hal_lowlevel.c **** 
 2634              		.loc 1 1270 17 is_stmt 0 view .LVU866
 2635 0016 0300     		movs	r3, r0
 2636 0018 6833     		adds	r3, r3, #104
 2637 001a 1A70     		strb	r2, [r3]
 2638              	.L261:
1276:.././hal//stm32f0/stm32f0_hal_lowlevel.c **** 
 2639              		.loc 1 1276 3 is_stmt 1 view .LVU867
1276:.././hal//stm32f0/stm32f0_hal_lowlevel.c **** 
 2640              		.loc 1 1276 17 is_stmt 0 view .LVU868
 2641 001c 2423     		movs	r3, #36
1279:.././hal//stm32f0/stm32f0_hal_lowlevel.c **** 
 2642              		.loc 1 1279 3 view .LVU869
 2643 001e 0126     		movs	r6, #1
1276:.././hal//stm32f0/stm32f0_hal_lowlevel.c **** 
 2644              		.loc 1 1276 17 view .LVU870
 2645 0020 3B70     		strb	r3, [r7]
1279:.././hal//stm32f0/stm32f0_hal_lowlevel.c **** 
 2646              		.loc 1 1279 3 is_stmt 1 view .LVU871
 2647 0022 2568     		ldr	r5, [r4]
1282:.././hal//stm32f0/stm32f0_hal_lowlevel.c ****   {
 2648              		.loc 1 1282 7 is_stmt 0 view .LVU872
 2649 0024 2000     		movs	r0, r4
 2650              	.LVL208:
1279:.././hal//stm32f0/stm32f0_hal_lowlevel.c **** 
 2651              		.loc 1 1279 3 view .LVU873
 2652 0026 2B68     		ldr	r3, [r5]
 2653 0028 B343     		bics	r3, r6
 2654 002a 2B60     		str	r3, [r5]
1282:.././hal//stm32f0/stm32f0_hal_lowlevel.c ****   {
 2655              		.loc 1 1282 3 is_stmt 1 view .LVU874
1282:.././hal//stm32f0/stm32f0_hal_lowlevel.c ****   {
 2656              		.loc 1 1282 7 is_stmt 0 view .LVU875
 2657 002c FFF7FEFF 		bl	UART_SetConfig
 2658              	.LVL209:
1282:.././hal//stm32f0/stm32f0_hal_lowlevel.c ****   {
 2659              		.loc 1 1282 6 discriminator 1 view .LVU876
 2660 0030 B042     		cmp	r0, r6
 2661 0032 E8D0     		beq	.L262
1287:.././hal//stm32f0/stm32f0_hal_lowlevel.c ****   {
 2662              		.loc 1 1287 3 is_stmt 1 view .LVU877
1290:.././hal//stm32f0/stm32f0_hal_lowlevel.c **** 
 2663              		.loc 1 1290 3 view .LVU878
1298:.././hal//stm32f0/stm32f0_hal_lowlevel.c **** #endif
 2664              		.loc 1 1298 3 view .LVU879
 2665 0034 6B68     		ldr	r3, [r5, #4]
 2666 0036 0A4A     		ldr	r2, .L266
 2667              	.LBB22:
 2668              	.LBB23:
1134:.././hal//stm32f0/stm32f0_hal_lowlevel.c **** 
 2669              		.loc 1 1134 18 is_stmt 0 view .LVU880
 2670 0038 2100     		movs	r1, r4
 2671              	.LBE23:
 2672              	.LBE22:
1298:.././hal//stm32f0/stm32f0_hal_lowlevel.c **** #endif
 2673              		.loc 1 1298 3 view .LVU881
 2674 003a 1340     		ands	r3, r2
1310:.././hal//stm32f0/stm32f0_hal_lowlevel.c **** #endif
 2675              		.loc 1 1310 3 view .LVU882
 2676 003c 0822     		movs	r2, #8
1298:.././hal//stm32f0/stm32f0_hal_lowlevel.c **** #endif
 2677              		.loc 1 1298 3 view .LVU883
 2678 003e 6B60     		str	r3, [r5, #4]
1310:.././hal//stm32f0/stm32f0_hal_lowlevel.c **** #endif
 2679              		.loc 1 1310 3 is_stmt 1 view .LVU884
 2680 0040 AB68     		ldr	r3, [r5, #8]
 2681              	.LBB28:
 2682              	.LBB24:
1134:.././hal//stm32f0/stm32f0_hal_lowlevel.c **** 
 2683              		.loc 1 1134 18 is_stmt 0 view .LVU885
 2684 0042 6A31     		adds	r1, r1, #106
 2685              	.LBE24:
 2686              	.LBE28:
1310:.././hal//stm32f0/stm32f0_hal_lowlevel.c **** #endif
 2687              		.loc 1 1310 3 view .LVU886
 2688 0044 9343     		bics	r3, r2
 2689 0046 AB60     		str	r3, [r5, #8]
1315:.././hal//stm32f0/stm32f0_hal_lowlevel.c **** 
 2690              		.loc 1 1315 3 is_stmt 1 view .LVU887
 2691 0048 2B68     		ldr	r3, [r5]
 2692              	.LBB29:
 2693              	.LBB25:
1133:.././hal//stm32f0/stm32f0_hal_lowlevel.c ****   huart->RxState = HAL_UART_STATE_READY;
 2694              		.loc 1 1133 18 is_stmt 0 view .LVU888
 2695 004a 1832     		adds	r2, r2, #24
 2696              	.LBE25:
 2697              	.LBE29:
1315:.././hal//stm32f0/stm32f0_hal_lowlevel.c **** 
 2698              		.loc 1 1315 3 view .LVU889
 2699 004c 1E43     		orrs	r6, r3
 2700              	.LBB30:
 2701              	.LBB26:
1097:.././hal//stm32f0/stm32f0_hal_lowlevel.c **** 
 2702              		.loc 1 1097 20 view .LVU890
 2703 004e 0023     		movs	r3, #0
 2704              	.LBE26:
 2705              	.LBE30:
1315:.././hal//stm32f0/stm32f0_hal_lowlevel.c **** 
 2706              		.loc 1 1315 3 view .LVU891
 2707 0050 2E60     		str	r6, [r5]
1318:.././hal//stm32f0/stm32f0_hal_lowlevel.c **** }
 2708              		.loc 1 1318 3 is_stmt 1 view .LVU892
 2709              	.LVL210:
 2710              	.LBB31:
 2711              	.LBI22:
1090:.././hal//stm32f0/stm32f0_hal_lowlevel.c **** {
 2712              		.loc 1 1090 19 view .LVU893
 2713              	.LBB27:
1097:.././hal//stm32f0/stm32f0_hal_lowlevel.c **** 
 2714              		.loc 1 1097 3 view .LVU894
1137:.././hal//stm32f0/stm32f0_hal_lowlevel.c **** 
 2715              		.loc 1 1137 3 is_stmt 0 view .LVU895
 2716 0052 6834     		adds	r4, r4, #104
 2717              	.LVL211:
1097:.././hal//stm32f0/stm32f0_hal_lowlevel.c **** 
 2718              		.loc 1 1097 20 view .LVU896
 2719 0054 6360     		str	r3, [r4, #4]
1133:.././hal//stm32f0/stm32f0_hal_lowlevel.c ****   huart->RxState = HAL_UART_STATE_READY;
 2720              		.loc 1 1133 3 is_stmt 1 view .LVU897
1133:.././hal//stm32f0/stm32f0_hal_lowlevel.c ****   huart->RxState = HAL_UART_STATE_READY;
 2721              		.loc 1 1133 18 is_stmt 0 view .LVU898
 2722 0056 3A70     		strb	r2, [r7]
1134:.././hal//stm32f0/stm32f0_hal_lowlevel.c **** 
 2723              		.loc 1 1134 3 is_stmt 1 view .LVU899
1134:.././hal//stm32f0/stm32f0_hal_lowlevel.c **** 
 2724              		.loc 1 1134 18 is_stmt 0 view .LVU900
 2725 0058 0A70     		strb	r2, [r1]
1137:.././hal//stm32f0/stm32f0_hal_lowlevel.c **** 
 2726              		.loc 1 1137 3 is_stmt 1 view .LVU901
1137:.././hal//stm32f0/stm32f0_hal_lowlevel.c **** 
 2727              		.loc 1 1137 3 view .LVU902
 2728 005a 2370     		strb	r3, [r4]
1137:.././hal//stm32f0/stm32f0_hal_lowlevel.c **** 
 2729              		.loc 1 1137 3 view .LVU903
1139:.././hal//stm32f0/stm32f0_hal_lowlevel.c **** }
 2730              		.loc 1 1139 3 view .LVU904
 2731              	.LVL212:
1139:.././hal//stm32f0/stm32f0_hal_lowlevel.c **** }
 2732              		.loc 1 1139 3 is_stmt 0 view .LVU905
 2733              	.LBE27:
 2734              	.LBE31:
1318:.././hal//stm32f0/stm32f0_hal_lowlevel.c **** }
 2735              		.loc 1 1318 11 view .LVU906
 2736 005c D4E7     		b	.L260
 2737              	.L267:
 2738 005e C046     		.align	2
 2739              	.L266:
 2740 0060 FFF7FFFF 		.word	-2049
 2741              		.cfi_endproc
 2742              	.LFE49:
 2744              		.section	.text.HAL_UART_Receive,"ax",%progbits
 2745              		.align	1
 2746              		.global	HAL_UART_Receive
 2747              		.syntax unified
 2748              		.code	16
 2749              		.thumb_func
 2751              	HAL_UART_Receive:
 2752              	.LVL213:
 2753              	.LFB50:
1320:.././hal//stm32f0/stm32f0_hal_lowlevel.c **** 
1321:.././hal//stm32f0/stm32f0_hal_lowlevel.c **** /**
1322:.././hal//stm32f0/stm32f0_hal_lowlevel.c ****   * @brief Receive an amount of data in blocking mode.
1323:.././hal//stm32f0/stm32f0_hal_lowlevel.c ****   * @param huart: UART handle.
1324:.././hal//stm32f0/stm32f0_hal_lowlevel.c ****   * @param pData: pointer to data buffer.
1325:.././hal//stm32f0/stm32f0_hal_lowlevel.c ****   * @param Size: amount of data to be received.
1326:.././hal//stm32f0/stm32f0_hal_lowlevel.c ****   * @param Timeout: Timeout duration.
1327:.././hal//stm32f0/stm32f0_hal_lowlevel.c ****   * @note   When UART parity is not enabled (PCE = 0), and Word Length is configured to 9 bits (M1-
1328:.././hal//stm32f0/stm32f0_hal_lowlevel.c ****   *         address of user data buffer for storing data to be received, should be aligned on a hal
1329:.././hal//stm32f0/stm32f0_hal_lowlevel.c ****   *         (as received data will be handled using u16 pointer cast). Depending on compilation cha
1330:.././hal//stm32f0/stm32f0_hal_lowlevel.c ****   *         use of specific alignment compilation directives or pragmas might be required to ensure
1331:.././hal//stm32f0/stm32f0_hal_lowlevel.c ****   * @retval HAL status
1332:.././hal//stm32f0/stm32f0_hal_lowlevel.c ****   */
1333:.././hal//stm32f0/stm32f0_hal_lowlevel.c **** HAL_StatusTypeDef HAL_UART_Receive(UART_HandleTypeDef *huart, uint8_t *pData, uint16_t Size, uint32
1334:.././hal//stm32f0/stm32f0_hal_lowlevel.c **** {
 2754              		.loc 1 1334 1 is_stmt 1 view -0
 2755              		.cfi_startproc
 2756              		@ args = 0, pretend = 0, frame = 8
 2757              		@ frame_needed = 0, uses_anonymous_args = 0
1335:.././hal//stm32f0/stm32f0_hal_lowlevel.c ****   uint16_t* tmp;
 2758              		.loc 1 1335 3 view .LVU908
1336:.././hal//stm32f0/stm32f0_hal_lowlevel.c ****   uint16_t uhMask;
 2759              		.loc 1 1336 3 view .LVU909
1337:.././hal//stm32f0/stm32f0_hal_lowlevel.c ****   uint32_t tickstart = 0;
 2760              		.loc 1 1337 3 view .LVU910
1338:.././hal//stm32f0/stm32f0_hal_lowlevel.c **** 
1339:.././hal//stm32f0/stm32f0_hal_lowlevel.c ****   /* Check that a Rx process is not already ongoing */
1340:.././hal//stm32f0/stm32f0_hal_lowlevel.c ****   if(huart->RxState == HAL_UART_STATE_READY)
 2761              		.loc 1 1340 3 view .LVU911
1334:.././hal//stm32f0/stm32f0_hal_lowlevel.c ****   uint16_t* tmp;
 2762              		.loc 1 1334 1 is_stmt 0 view .LVU912
 2763 0000 F0B5     		push	{r4, r5, r6, r7, lr}
 2764              	.LCFI10:
 2765              		.cfi_def_cfa_offset 20
 2766              		.cfi_offset 4, -20
 2767              		.cfi_offset 5, -16
 2768              		.cfi_offset 6, -12
 2769              		.cfi_offset 7, -8
 2770              		.cfi_offset 14, -4
 2771 0002 85B0     		sub	sp, sp, #20
 2772              	.LCFI11:
 2773              		.cfi_def_cfa_offset 40
1334:.././hal//stm32f0/stm32f0_hal_lowlevel.c ****   uint16_t* tmp;
 2774              		.loc 1 1334 1 view .LVU913
 2775 0004 0393     		str	r3, [sp, #12]
 2776              		.loc 1 1340 11 view .LVU914
 2777 0006 0300     		movs	r3, r0
 2778              	.LVL214:
 2779              		.loc 1 1340 11 view .LVU915
 2780 0008 6A33     		adds	r3, r3, #106
1334:.././hal//stm32f0/stm32f0_hal_lowlevel.c ****   uint16_t* tmp;
 2781              		.loc 1 1334 1 view .LVU916
 2782 000a 1600     		movs	r6, r2
 2783              		.loc 1 1340 11 view .LVU917
 2784 000c 1A78     		ldrb	r2, [r3]
 2785              	.LVL215:
1334:.././hal//stm32f0/stm32f0_hal_lowlevel.c ****   uint16_t* tmp;
 2786              		.loc 1 1334 1 view .LVU918
 2787 000e 0400     		movs	r4, r0
 2788 0010 0D00     		movs	r5, r1
1341:.././hal//stm32f0/stm32f0_hal_lowlevel.c ****   {
1342:.././hal//stm32f0/stm32f0_hal_lowlevel.c ****     if((pData == NULL ) || (Size == 0U))
1343:.././hal//stm32f0/stm32f0_hal_lowlevel.c ****     {
1344:.././hal//stm32f0/stm32f0_hal_lowlevel.c ****       return  HAL_ERROR;
1345:.././hal//stm32f0/stm32f0_hal_lowlevel.c ****     }
1346:.././hal//stm32f0/stm32f0_hal_lowlevel.c **** 
1347:.././hal//stm32f0/stm32f0_hal_lowlevel.c ****     /* In case of 9bits/No Parity transfer, pData buffer provided as input paramter 
1348:.././hal//stm32f0/stm32f0_hal_lowlevel.c ****        should be aligned on a u16 frontier, as data to be received from RDR will be 
1349:.././hal//stm32f0/stm32f0_hal_lowlevel.c ****        handled through a u16 cast. */
1350:.././hal//stm32f0/stm32f0_hal_lowlevel.c ****     if ((huart->Init.WordLength == UART_WORDLENGTH_9B) && (huart->Init.Parity == UART_PARITY_NONE))
1351:.././hal//stm32f0/stm32f0_hal_lowlevel.c ****     {
1352:.././hal//stm32f0/stm32f0_hal_lowlevel.c ****       if((((uint32_t)pData)&1U) != 0U)
1353:.././hal//stm32f0/stm32f0_hal_lowlevel.c ****       {
1354:.././hal//stm32f0/stm32f0_hal_lowlevel.c ****         return  HAL_ERROR;
1355:.././hal//stm32f0/stm32f0_hal_lowlevel.c ****       }
1356:.././hal//stm32f0/stm32f0_hal_lowlevel.c ****     }
1357:.././hal//stm32f0/stm32f0_hal_lowlevel.c **** 
1358:.././hal//stm32f0/stm32f0_hal_lowlevel.c ****     /* Process Locked */
1359:.././hal//stm32f0/stm32f0_hal_lowlevel.c ****     __HAL_LOCK(huart);
 2789              		.loc 1 1359 5 discriminator 1 view .LVU919
 2790 0012 0220     		movs	r0, #2
 2791              	.LVL216:
1340:.././hal//stm32f0/stm32f0_hal_lowlevel.c ****   {
 2792              		.loc 1 1340 5 view .LVU920
 2793 0014 202A     		cmp	r2, #32
 2794 0016 3BD1     		bne	.L269
1342:.././hal//stm32f0/stm32f0_hal_lowlevel.c ****     {
 2795              		.loc 1 1342 5 is_stmt 1 view .LVU921
1344:.././hal//stm32f0/stm32f0_hal_lowlevel.c ****     }
 2796              		.loc 1 1344 15 is_stmt 0 view .LVU922
 2797 0018 0138     		subs	r0, r0, #1
1342:.././hal//stm32f0/stm32f0_hal_lowlevel.c ****     {
 2798              		.loc 1 1342 7 view .LVU923
 2799 001a 0029     		cmp	r1, #0
 2800 001c 38D0     		beq	.L269
1342:.././hal//stm32f0/stm32f0_hal_lowlevel.c ****     {
 2801              		.loc 1 1342 25 discriminator 1 view .LVU924
 2802 001e 002E     		cmp	r6, #0
 2803 0020 36D0     		beq	.L269
1350:.././hal//stm32f0/stm32f0_hal_lowlevel.c ****     {
 2804              		.loc 1 1350 5 is_stmt 1 view .LVU925
1350:.././hal//stm32f0/stm32f0_hal_lowlevel.c ****     {
 2805              		.loc 1 1350 8 is_stmt 0 view .LVU926
 2806 0022 8022     		movs	r2, #128
 2807 0024 A168     		ldr	r1, [r4, #8]
 2808              	.LVL217:
1350:.././hal//stm32f0/stm32f0_hal_lowlevel.c ****     {
 2809              		.loc 1 1350 8 view .LVU927
 2810 0026 5201     		lsls	r2, r2, #5
 2811 0028 9142     		cmp	r1, r2
 2812 002a 04D1     		bne	.L270
1350:.././hal//stm32f0/stm32f0_hal_lowlevel.c ****     {
 2813              		.loc 1 1350 56 discriminator 1 view .LVU928
 2814 002c 2269     		ldr	r2, [r4, #16]
 2815 002e 002A     		cmp	r2, #0
 2816 0030 01D1     		bne	.L270
1352:.././hal//stm32f0/stm32f0_hal_lowlevel.c ****       {
 2817              		.loc 1 1352 7 is_stmt 1 view .LVU929
1352:.././hal//stm32f0/stm32f0_hal_lowlevel.c ****       {
 2818              		.loc 1 1352 9 is_stmt 0 view .LVU930
 2819 0032 0542     		tst	r5, r0
 2820 0034 2CD1     		bne	.L269
 2821              	.L270:
 2822              		.loc 1 1359 5 is_stmt 1 view .LVU931
 2823              		.loc 1 1359 5 view .LVU932
 2824 0036 2200     		movs	r2, r4
 2825 0038 6832     		adds	r2, r2, #104
 2826 003a 1178     		ldrb	r1, [r2]
 2827              		.loc 1 1359 5 is_stmt 0 discriminator 1 view .LVU933
 2828 003c 0220     		movs	r0, #2
 2829              		.loc 1 1359 5 view .LVU934
 2830 003e 0129     		cmp	r1, #1
 2831 0040 26D0     		beq	.L269
 2832              		.loc 1 1359 5 is_stmt 1 discriminator 2 view .LVU935
 2833 0042 0121     		movs	r1, #1
 2834 0044 1170     		strb	r1, [r2]
 2835              		.loc 1 1359 5 view .LVU936
1360:.././hal//stm32f0/stm32f0_hal_lowlevel.c **** 
1361:.././hal//stm32f0/stm32f0_hal_lowlevel.c ****     huart->ErrorCode = HAL_UART_ERROR_NONE;
 2836              		.loc 1 1361 5 view .LVU937
 2837              		.loc 1 1361 22 is_stmt 0 view .LVU938
 2838 0046 0022     		movs	r2, #0
 2839 0048 E266     		str	r2, [r4, #108]
1362:.././hal//stm32f0/stm32f0_hal_lowlevel.c ****     huart->RxState = HAL_UART_STATE_BUSY_RX;
 2840              		.loc 1 1362 5 is_stmt 1 view .LVU939
 2841              		.loc 1 1362 20 is_stmt 0 view .LVU940
 2842 004a 2232     		adds	r2, r2, #34
 2843 004c 1A70     		strb	r2, [r3]
1363:.././hal//stm32f0/stm32f0_hal_lowlevel.c **** 
1364:.././hal//stm32f0/stm32f0_hal_lowlevel.c ****     /* Init tickstart for timeout managment*/
1365:.././hal//stm32f0/stm32f0_hal_lowlevel.c ****     tickstart = HAL_GetTick();
 2844              		.loc 1 1365 5 is_stmt 1 view .LVU941
 2845              		.loc 1 1365 17 is_stmt 0 view .LVU942
 2846 004e FFF7FEFF 		bl	HAL_GetTick
 2847              	.LVL218:
1366:.././hal//stm32f0/stm32f0_hal_lowlevel.c **** 
1367:.././hal//stm32f0/stm32f0_hal_lowlevel.c ****     huart->RxXferSize = Size;
 2848              		.loc 1 1367 23 view .LVU943
 2849 0052 2300     		movs	r3, r4
1368:.././hal//stm32f0/stm32f0_hal_lowlevel.c ****     huart->RxXferCount = Size;
1369:.././hal//stm32f0/stm32f0_hal_lowlevel.c **** 
1370:.././hal//stm32f0/stm32f0_hal_lowlevel.c ****     /* Computation of UART mask to apply to RDR register */
1371:.././hal//stm32f0/stm32f0_hal_lowlevel.c ****     UART_MASK_COMPUTATION(huart);
 2850              		.loc 1 1371 5 view .LVU944
 2851 0054 8021     		movs	r1, #128
 2852 0056 A268     		ldr	r2, [r4, #8]
1367:.././hal//stm32f0/stm32f0_hal_lowlevel.c ****     huart->RxXferCount = Size;
 2853              		.loc 1 1367 23 view .LVU945
 2854 0058 5833     		adds	r3, r3, #88
 2855 005a 1E80     		strh	r6, [r3]
1368:.././hal//stm32f0/stm32f0_hal_lowlevel.c ****     huart->RxXferCount = Size;
 2856              		.loc 1 1368 24 view .LVU946
 2857 005c 5E80     		strh	r6, [r3, #2]
1365:.././hal//stm32f0/stm32f0_hal_lowlevel.c **** 
 2858              		.loc 1 1365 17 view .LVU947
 2859 005e 0290     		str	r0, [sp, #8]
 2860              	.LVL219:
1367:.././hal//stm32f0/stm32f0_hal_lowlevel.c ****     huart->RxXferCount = Size;
 2861              		.loc 1 1367 5 is_stmt 1 view .LVU948
1368:.././hal//stm32f0/stm32f0_hal_lowlevel.c ****     huart->RxXferCount = Size;
 2862              		.loc 1 1368 5 view .LVU949
 2863              		.loc 1 1371 5 view .LVU950
 2864              		.loc 1 1371 5 view .LVU951
 2865 0060 4901     		lsls	r1, r1, #5
 2866 0062 0433     		adds	r3, r3, #4
 2867 0064 8A42     		cmp	r2, r1
 2868 0066 17D1     		bne	.L271
 2869              		.loc 1 1371 5 discriminator 1 view .LVU952
 2870 0068 2269     		ldr	r2, [r4, #16]
 2871 006a 002A     		cmp	r2, #0
 2872 006c 12D1     		bne	.L272
 2873              		.loc 1 1371 5 discriminator 3 view .LVU953
 2874 006e 1E4A     		ldr	r2, .L288
 2875              	.L287:
 2876              		.loc 1 1371 5 is_stmt 0 discriminator 8 view .LVU954
 2877 0070 1A80     		strh	r2, [r3]
 2878              	.L273:
 2879              		.loc 1 1371 5 is_stmt 1 discriminator 10 view .LVU955
1372:.././hal//stm32f0/stm32f0_hal_lowlevel.c ****     uhMask = huart->Mask;
 2880              		.loc 1 1372 5 view .LVU956
1373:.././hal//stm32f0/stm32f0_hal_lowlevel.c **** 
1374:.././hal//stm32f0/stm32f0_hal_lowlevel.c ****     /* as long as data have to be received */
1375:.././hal//stm32f0/stm32f0_hal_lowlevel.c ****     while(huart->RxXferCount > 0U)
1376:.././hal//stm32f0/stm32f0_hal_lowlevel.c ****     {
1377:.././hal//stm32f0/stm32f0_hal_lowlevel.c ****       huart->RxXferCount--;
1378:.././hal//stm32f0/stm32f0_hal_lowlevel.c ****       if(UART_WaitOnFlagUntilTimeout(huart, UART_FLAG_RXNE, RESET, tickstart, Timeout) != HAL_OK)
1379:.././hal//stm32f0/stm32f0_hal_lowlevel.c ****       {
1380:.././hal//stm32f0/stm32f0_hal_lowlevel.c ****         return HAL_TIMEOUT;
1381:.././hal//stm32f0/stm32f0_hal_lowlevel.c ****       }
1382:.././hal//stm32f0/stm32f0_hal_lowlevel.c ****       if ((huart->Init.WordLength == UART_WORDLENGTH_9B) && (huart->Init.Parity == UART_PARITY_NONE
 2881              		.loc 1 1382 10 is_stmt 0 view .LVU957
 2882 0072 8027     		movs	r7, #128
1372:.././hal//stm32f0/stm32f0_hal_lowlevel.c ****     uhMask = huart->Mask;
 2883              		.loc 1 1372 12 view .LVU958
 2884 0074 1E88     		ldrh	r6, [r3]
 2885              	.LVL220:
1375:.././hal//stm32f0/stm32f0_hal_lowlevel.c ****     {
 2886              		.loc 1 1375 5 is_stmt 1 view .LVU959
 2887              		.loc 1 1382 10 is_stmt 0 view .LVU960
 2888 0076 7F01     		lsls	r7, r7, #5
 2889              	.LVL221:
 2890              	.L274:
1375:.././hal//stm32f0/stm32f0_hal_lowlevel.c ****     {
 2891              		.loc 1 1375 30 is_stmt 1 view .LVU961
1375:.././hal//stm32f0/stm32f0_hal_lowlevel.c ****     {
 2892              		.loc 1 1375 16 is_stmt 0 view .LVU962
 2893 0078 2200     		movs	r2, r4
 2894 007a 5A32     		adds	r2, r2, #90
 2895 007c 1388     		ldrh	r3, [r2]
 2896 007e 98B2     		uxth	r0, r3
1375:.././hal//stm32f0/stm32f0_hal_lowlevel.c ****     {
 2897              		.loc 1 1375 30 view .LVU963
 2898 0080 002B     		cmp	r3, #0
 2899 0082 10D1     		bne	.L277
1383:.././hal//stm32f0/stm32f0_hal_lowlevel.c ****       {
1384:.././hal//stm32f0/stm32f0_hal_lowlevel.c ****         tmp = (uint16_t*) pData ;
1385:.././hal//stm32f0/stm32f0_hal_lowlevel.c ****         *tmp = (uint16_t)(huart->Instance->RDR & uhMask);
1386:.././hal//stm32f0/stm32f0_hal_lowlevel.c ****         pData +=2U;
1387:.././hal//stm32f0/stm32f0_hal_lowlevel.c ****       }
1388:.././hal//stm32f0/stm32f0_hal_lowlevel.c ****       else
1389:.././hal//stm32f0/stm32f0_hal_lowlevel.c ****       {
1390:.././hal//stm32f0/stm32f0_hal_lowlevel.c ****         *pData++ = (uint8_t)(huart->Instance->RDR & (uint8_t)uhMask);
1391:.././hal//stm32f0/stm32f0_hal_lowlevel.c ****       }
1392:.././hal//stm32f0/stm32f0_hal_lowlevel.c ****     }
1393:.././hal//stm32f0/stm32f0_hal_lowlevel.c **** 
1394:.././hal//stm32f0/stm32f0_hal_lowlevel.c ****     /* At end of Rx process, restore huart->RxState to Ready */
1395:.././hal//stm32f0/stm32f0_hal_lowlevel.c ****     huart->RxState = HAL_UART_STATE_READY;
 2900              		.loc 1 1395 5 is_stmt 1 view .LVU964
 2901              		.loc 1 1395 20 is_stmt 0 view .LVU965
 2902 0084 2300     		movs	r3, r4
 2903 0086 2022     		movs	r2, #32
 2904 0088 6A33     		adds	r3, r3, #106
1396:.././hal//stm32f0/stm32f0_hal_lowlevel.c **** 
1397:.././hal//stm32f0/stm32f0_hal_lowlevel.c ****     /* Process Unlocked */
1398:.././hal//stm32f0/stm32f0_hal_lowlevel.c ****     __HAL_UNLOCK(huart);
 2905              		.loc 1 1398 5 view .LVU966
 2906 008a 6834     		adds	r4, r4, #104
 2907              	.LVL222:
1395:.././hal//stm32f0/stm32f0_hal_lowlevel.c **** 
 2908              		.loc 1 1395 20 view .LVU967
 2909 008c 1A70     		strb	r2, [r3]
 2910              		.loc 1 1398 5 is_stmt 1 view .LVU968
 2911              		.loc 1 1398 5 view .LVU969
 2912 008e 2070     		strb	r0, [r4]
 2913              		.loc 1 1398 5 view .LVU970
1399:.././hal//stm32f0/stm32f0_hal_lowlevel.c **** 
1400:.././hal//stm32f0/stm32f0_hal_lowlevel.c ****     return HAL_OK;
 2914              		.loc 1 1400 5 view .LVU971
 2915              	.LVL223:
 2916              	.L269:
1401:.././hal//stm32f0/stm32f0_hal_lowlevel.c ****   }
1402:.././hal//stm32f0/stm32f0_hal_lowlevel.c ****   else
1403:.././hal//stm32f0/stm32f0_hal_lowlevel.c ****   {
1404:.././hal//stm32f0/stm32f0_hal_lowlevel.c ****     return HAL_BUSY;
1405:.././hal//stm32f0/stm32f0_hal_lowlevel.c ****   }
1406:.././hal//stm32f0/stm32f0_hal_lowlevel.c **** }
 2917              		.loc 1 1406 1 is_stmt 0 view .LVU972
 2918 0090 05B0     		add	sp, sp, #20
 2919              		@ sp needed
 2920              	.LVL224:
 2921              		.loc 1 1406 1 view .LVU973
 2922 0092 F0BD     		pop	{r4, r5, r6, r7, pc}
 2923              	.LVL225:
 2924              	.L272:
1371:.././hal//stm32f0/stm32f0_hal_lowlevel.c ****     uhMask = huart->Mask;
 2925              		.loc 1 1371 5 is_stmt 1 discriminator 4 view .LVU974
 2926 0094 FF22     		movs	r2, #255
 2927 0096 EBE7     		b	.L287
 2928              	.L271:
1371:.././hal//stm32f0/stm32f0_hal_lowlevel.c ****     uhMask = huart->Mask;
 2929              		.loc 1 1371 5 discriminator 2 view .LVU975
 2930 0098 002A     		cmp	r2, #0
 2931 009a EAD1     		bne	.L273
1371:.././hal//stm32f0/stm32f0_hal_lowlevel.c ****     uhMask = huart->Mask;
 2932              		.loc 1 1371 5 discriminator 5 view .LVU976
 2933 009c 2269     		ldr	r2, [r4, #16]
 2934 009e 002A     		cmp	r2, #0
 2935 00a0 F8D0     		beq	.L272
1371:.././hal//stm32f0/stm32f0_hal_lowlevel.c ****     uhMask = huart->Mask;
 2936              		.loc 1 1371 5 discriminator 8 view .LVU977
 2937 00a2 7F22     		movs	r2, #127
 2938 00a4 E4E7     		b	.L287
 2939              	.LVL226:
 2940              	.L277:
1377:.././hal//stm32f0/stm32f0_hal_lowlevel.c ****       if(UART_WaitOnFlagUntilTimeout(huart, UART_FLAG_RXNE, RESET, tickstart, Timeout) != HAL_OK)
 2941              		.loc 1 1377 7 view .LVU978
1377:.././hal//stm32f0/stm32f0_hal_lowlevel.c ****       if(UART_WaitOnFlagUntilTimeout(huart, UART_FLAG_RXNE, RESET, tickstart, Timeout) != HAL_OK)
 2942              		.loc 1 1377 12 is_stmt 0 view .LVU979
 2943 00a6 1388     		ldrh	r3, [r2]
1378:.././hal//stm32f0/stm32f0_hal_lowlevel.c ****       {
 2944              		.loc 1 1378 10 view .LVU980
 2945 00a8 2021     		movs	r1, #32
1377:.././hal//stm32f0/stm32f0_hal_lowlevel.c ****       if(UART_WaitOnFlagUntilTimeout(huart, UART_FLAG_RXNE, RESET, tickstart, Timeout) != HAL_OK)
 2946              		.loc 1 1377 25 view .LVU981
 2947 00aa 013B     		subs	r3, r3, #1
 2948 00ac 9BB2     		uxth	r3, r3
 2949 00ae 1380     		strh	r3, [r2]
1378:.././hal//stm32f0/stm32f0_hal_lowlevel.c ****       {
 2950              		.loc 1 1378 7 is_stmt 1 view .LVU982
1378:.././hal//stm32f0/stm32f0_hal_lowlevel.c ****       {
 2951              		.loc 1 1378 10 is_stmt 0 view .LVU983
 2952 00b0 039B     		ldr	r3, [sp, #12]
 2953 00b2 0022     		movs	r2, #0
 2954 00b4 0093     		str	r3, [sp]
 2955 00b6 2000     		movs	r0, r4
 2956 00b8 029B     		ldr	r3, [sp, #8]
 2957 00ba FFF7FEFF 		bl	UART_WaitOnFlagUntilTimeout
 2958              	.LVL227:
1378:.././hal//stm32f0/stm32f0_hal_lowlevel.c ****       {
 2959              		.loc 1 1378 9 discriminator 1 view .LVU984
 2960 00be 0028     		cmp	r0, #0
 2961 00c0 10D1     		bne	.L283
1382:.././hal//stm32f0/stm32f0_hal_lowlevel.c ****       {
 2962              		.loc 1 1382 7 is_stmt 1 view .LVU985
1382:.././hal//stm32f0/stm32f0_hal_lowlevel.c ****       {
 2963              		.loc 1 1382 10 is_stmt 0 view .LVU986
 2964 00c2 A268     		ldr	r2, [r4, #8]
1385:.././hal//stm32f0/stm32f0_hal_lowlevel.c ****         pData +=2U;
 2965              		.loc 1 1385 32 view .LVU987
 2966 00c4 2368     		ldr	r3, [r4]
1382:.././hal//stm32f0/stm32f0_hal_lowlevel.c ****       {
 2967              		.loc 1 1382 10 view .LVU988
 2968 00c6 BA42     		cmp	r2, r7
 2969 00c8 07D1     		bne	.L275
1382:.././hal//stm32f0/stm32f0_hal_lowlevel.c ****       {
 2970              		.loc 1 1382 58 discriminator 1 view .LVU989
 2971 00ca 2269     		ldr	r2, [r4, #16]
 2972 00cc 002A     		cmp	r2, #0
 2973 00ce 04D1     		bne	.L275
1384:.././hal//stm32f0/stm32f0_hal_lowlevel.c ****         *tmp = (uint16_t)(huart->Instance->RDR & uhMask);
 2974              		.loc 1 1384 9 is_stmt 1 view .LVU990
 2975              	.LVL228:
1385:.././hal//stm32f0/stm32f0_hal_lowlevel.c ****         pData +=2U;
 2976              		.loc 1 1385 9 view .LVU991
1385:.././hal//stm32f0/stm32f0_hal_lowlevel.c ****         pData +=2U;
 2977              		.loc 1 1385 42 is_stmt 0 view .LVU992
 2978 00d0 9B8C     		ldrh	r3, [r3, #36]
1385:.././hal//stm32f0/stm32f0_hal_lowlevel.c ****         pData +=2U;
 2979              		.loc 1 1385 16 view .LVU993
 2980 00d2 3340     		ands	r3, r6
1385:.././hal//stm32f0/stm32f0_hal_lowlevel.c ****         pData +=2U;
 2981              		.loc 1 1385 14 view .LVU994
 2982 00d4 2B80     		strh	r3, [r5]
1386:.././hal//stm32f0/stm32f0_hal_lowlevel.c ****       }
 2983              		.loc 1 1386 9 is_stmt 1 view .LVU995
1386:.././hal//stm32f0/stm32f0_hal_lowlevel.c ****       }
 2984              		.loc 1 1386 15 is_stmt 0 view .LVU996
 2985 00d6 0235     		adds	r5, r5, #2
 2986              	.LVL229:
1386:.././hal//stm32f0/stm32f0_hal_lowlevel.c ****       }
 2987              		.loc 1 1386 15 view .LVU997
 2988 00d8 CEE7     		b	.L274
 2989              	.LVL230:
 2990              	.L275:
1390:.././hal//stm32f0/stm32f0_hal_lowlevel.c ****       }
 2991              		.loc 1 1390 9 is_stmt 1 view .LVU998
1390:.././hal//stm32f0/stm32f0_hal_lowlevel.c ****       }
 2992              		.loc 1 1390 45 is_stmt 0 view .LVU999
 2993 00da 9B8C     		ldrh	r3, [r3, #36]
1390:.././hal//stm32f0/stm32f0_hal_lowlevel.c ****       }
 2994              		.loc 1 1390 20 view .LVU1000
 2995 00dc 3340     		ands	r3, r6
1390:.././hal//stm32f0/stm32f0_hal_lowlevel.c ****       }
 2996              		.loc 1 1390 18 view .LVU1001
 2997 00de 2B70     		strb	r3, [r5]
1390:.././hal//stm32f0/stm32f0_hal_lowlevel.c ****       }
 2998              		.loc 1 1390 15 view .LVU1002
 2999 00e0 0135     		adds	r5, r5, #1
 3000              	.LVL231:
1390:.././hal//stm32f0/stm32f0_hal_lowlevel.c ****       }
 3001              		.loc 1 1390 15 view .LVU1003
 3002 00e2 C9E7     		b	.L274
 3003              	.L283:
1380:.././hal//stm32f0/stm32f0_hal_lowlevel.c ****       }
 3004              		.loc 1 1380 16 view .LVU1004
 3005 00e4 0320     		movs	r0, #3
 3006 00e6 D3E7     		b	.L269
 3007              	.L289:
 3008              		.align	2
 3009              	.L288:
 3010 00e8 FF010000 		.word	511
 3011              		.cfi_endproc
 3012              	.LFE50:
 3014              		.section	.text.HAL_UART_Transmit,"ax",%progbits
 3015              		.align	1
 3016              		.global	HAL_UART_Transmit
 3017              		.syntax unified
 3018              		.code	16
 3019              		.thumb_func
 3021              	HAL_UART_Transmit:
 3022              	.LVL232:
 3023              	.LFB51:
1407:.././hal//stm32f0/stm32f0_hal_lowlevel.c **** 
1408:.././hal//stm32f0/stm32f0_hal_lowlevel.c **** /**
1409:.././hal//stm32f0/stm32f0_hal_lowlevel.c ****   * @brief Send an amount of data in blocking mode.
1410:.././hal//stm32f0/stm32f0_hal_lowlevel.c ****   * @param huart: UART handle.
1411:.././hal//stm32f0/stm32f0_hal_lowlevel.c ****   * @param pData: Pointer to data buffer.
1412:.././hal//stm32f0/stm32f0_hal_lowlevel.c ****   * @param Size: Amount of data to be sent.
1413:.././hal//stm32f0/stm32f0_hal_lowlevel.c ****   * @param Timeout: Timeout duration.
1414:.././hal//stm32f0/stm32f0_hal_lowlevel.c ****   * @note   When UART parity is not enabled (PCE = 0), and Word Length is configured to 9 bits (M1-
1415:.././hal//stm32f0/stm32f0_hal_lowlevel.c ****   *         address of user data buffer containing data to be sent, should be aligned on a half wor
1416:.././hal//stm32f0/stm32f0_hal_lowlevel.c ****   *         (as sent data will be handled using u16 pointer cast). Depending on compilation chain,
1417:.././hal//stm32f0/stm32f0_hal_lowlevel.c ****   *         use of specific alignment compilation directives or pragmas might be required to ensure
1418:.././hal//stm32f0/stm32f0_hal_lowlevel.c ****   * @retval HAL status
1419:.././hal//stm32f0/stm32f0_hal_lowlevel.c ****   */
1420:.././hal//stm32f0/stm32f0_hal_lowlevel.c **** HAL_StatusTypeDef HAL_UART_Transmit(UART_HandleTypeDef *huart, uint8_t *pData, uint16_t Size, uint3
1421:.././hal//stm32f0/stm32f0_hal_lowlevel.c **** {
 3024              		.loc 1 1421 1 is_stmt 1 view -0
 3025              		.cfi_startproc
 3026              		@ args = 0, pretend = 0, frame = 8
 3027              		@ frame_needed = 0, uses_anonymous_args = 0
1422:.././hal//stm32f0/stm32f0_hal_lowlevel.c ****   uint16_t* tmp;
 3028              		.loc 1 1422 3 view .LVU1006
1423:.././hal//stm32f0/stm32f0_hal_lowlevel.c ****   uint32_t tickstart = 0U;
 3029              		.loc 1 1423 3 view .LVU1007
1424:.././hal//stm32f0/stm32f0_hal_lowlevel.c **** 
1425:.././hal//stm32f0/stm32f0_hal_lowlevel.c ****   /* Check that a Tx process is not already ongoing */
1426:.././hal//stm32f0/stm32f0_hal_lowlevel.c ****   if(huart->gState == HAL_UART_STATE_READY)
 3030              		.loc 1 1426 3 view .LVU1008
1421:.././hal//stm32f0/stm32f0_hal_lowlevel.c ****   uint16_t* tmp;
 3031              		.loc 1 1421 1 is_stmt 0 view .LVU1009
 3032 0000 F0B5     		push	{r4, r5, r6, r7, lr}
 3033              	.LCFI12:
 3034              		.cfi_def_cfa_offset 20
 3035              		.cfi_offset 4, -20
 3036              		.cfi_offset 5, -16
 3037              		.cfi_offset 6, -12
 3038              		.cfi_offset 7, -8
 3039              		.cfi_offset 14, -4
 3040              		.loc 1 1426 11 view .LVU1010
 3041 0002 0700     		movs	r7, r0
1421:.././hal//stm32f0/stm32f0_hal_lowlevel.c ****   uint16_t* tmp;
 3042              		.loc 1 1421 1 view .LVU1011
 3043 0004 85B0     		sub	sp, sp, #20
 3044              	.LCFI13:
 3045              		.cfi_def_cfa_offset 40
1421:.././hal//stm32f0/stm32f0_hal_lowlevel.c ****   uint16_t* tmp;
 3046              		.loc 1 1421 1 view .LVU1012
 3047 0006 0393     		str	r3, [sp, #12]
 3048              		.loc 1 1426 11 view .LVU1013
 3049 0008 6937     		adds	r7, r7, #105
 3050 000a 3B78     		ldrb	r3, [r7]
 3051              	.LVL233:
1421:.././hal//stm32f0/stm32f0_hal_lowlevel.c ****   uint16_t* tmp;
 3052              		.loc 1 1421 1 view .LVU1014
 3053 000c 0400     		movs	r4, r0
 3054 000e 0D00     		movs	r5, r1
 3055 0010 1600     		movs	r6, r2
1427:.././hal//stm32f0/stm32f0_hal_lowlevel.c ****   {
1428:.././hal//stm32f0/stm32f0_hal_lowlevel.c ****     if((pData == NULL ) || (Size == 0U))
1429:.././hal//stm32f0/stm32f0_hal_lowlevel.c ****     {
1430:.././hal//stm32f0/stm32f0_hal_lowlevel.c ****       return  HAL_ERROR;
1431:.././hal//stm32f0/stm32f0_hal_lowlevel.c ****     }
1432:.././hal//stm32f0/stm32f0_hal_lowlevel.c **** 
1433:.././hal//stm32f0/stm32f0_hal_lowlevel.c ****     /* In case of 9bits/No Parity transfer, pData buffer provided as input paramter 
1434:.././hal//stm32f0/stm32f0_hal_lowlevel.c ****        should be aligned on a u16 frontier, as data to be filled into TDR will be 
1435:.././hal//stm32f0/stm32f0_hal_lowlevel.c ****        handled through a u16 cast. */
1436:.././hal//stm32f0/stm32f0_hal_lowlevel.c ****     if ((huart->Init.WordLength == UART_WORDLENGTH_9B) && (huart->Init.Parity == UART_PARITY_NONE))
1437:.././hal//stm32f0/stm32f0_hal_lowlevel.c ****     {
1438:.././hal//stm32f0/stm32f0_hal_lowlevel.c ****       if((((uint32_t)pData)&1U) != 0U)
1439:.././hal//stm32f0/stm32f0_hal_lowlevel.c ****       {
1440:.././hal//stm32f0/stm32f0_hal_lowlevel.c ****         return  HAL_ERROR;
1441:.././hal//stm32f0/stm32f0_hal_lowlevel.c ****       }
1442:.././hal//stm32f0/stm32f0_hal_lowlevel.c ****     }
1443:.././hal//stm32f0/stm32f0_hal_lowlevel.c **** 
1444:.././hal//stm32f0/stm32f0_hal_lowlevel.c ****     /* Process Locked */
1445:.././hal//stm32f0/stm32f0_hal_lowlevel.c ****     __HAL_LOCK(huart);
 3056              		.loc 1 1445 5 discriminator 1 view .LVU1015
 3057 0012 0220     		movs	r0, #2
 3058              	.LVL234:
1426:.././hal//stm32f0/stm32f0_hal_lowlevel.c ****   {
 3059              		.loc 1 1426 5 view .LVU1016
 3060 0014 202B     		cmp	r3, #32
 3061 0016 46D1     		bne	.L291
1428:.././hal//stm32f0/stm32f0_hal_lowlevel.c ****     {
 3062              		.loc 1 1428 5 is_stmt 1 view .LVU1017
1430:.././hal//stm32f0/stm32f0_hal_lowlevel.c ****     }
 3063              		.loc 1 1430 15 is_stmt 0 view .LVU1018
 3064 0018 0138     		subs	r0, r0, #1
1428:.././hal//stm32f0/stm32f0_hal_lowlevel.c ****     {
 3065              		.loc 1 1428 7 view .LVU1019
 3066 001a 0029     		cmp	r1, #0
 3067 001c 43D0     		beq	.L291
1428:.././hal//stm32f0/stm32f0_hal_lowlevel.c ****     {
 3068              		.loc 1 1428 25 discriminator 1 view .LVU1020
 3069 001e 002A     		cmp	r2, #0
 3070 0020 41D0     		beq	.L291
1436:.././hal//stm32f0/stm32f0_hal_lowlevel.c ****     {
 3071              		.loc 1 1436 5 is_stmt 1 view .LVU1021
1436:.././hal//stm32f0/stm32f0_hal_lowlevel.c ****     {
 3072              		.loc 1 1436 8 is_stmt 0 view .LVU1022
 3073 0022 8023     		movs	r3, #128
 3074 0024 A268     		ldr	r2, [r4, #8]
 3075              	.LVL235:
1436:.././hal//stm32f0/stm32f0_hal_lowlevel.c ****     {
 3076              		.loc 1 1436 8 view .LVU1023
 3077 0026 5B01     		lsls	r3, r3, #5
 3078 0028 9A42     		cmp	r2, r3
 3079 002a 04D1     		bne	.L292
1436:.././hal//stm32f0/stm32f0_hal_lowlevel.c ****     {
 3080              		.loc 1 1436 56 discriminator 1 view .LVU1024
 3081 002c 2369     		ldr	r3, [r4, #16]
 3082 002e 002B     		cmp	r3, #0
 3083 0030 01D1     		bne	.L292
1438:.././hal//stm32f0/stm32f0_hal_lowlevel.c ****       {
 3084              		.loc 1 1438 7 is_stmt 1 view .LVU1025
1438:.././hal//stm32f0/stm32f0_hal_lowlevel.c ****       {
 3085              		.loc 1 1438 9 is_stmt 0 view .LVU1026
 3086 0032 0142     		tst	r1, r0
 3087 0034 37D1     		bne	.L291
 3088              	.L292:
 3089              		.loc 1 1445 5 is_stmt 1 view .LVU1027
 3090              		.loc 1 1445 5 view .LVU1028
 3091 0036 2300     		movs	r3, r4
 3092 0038 6833     		adds	r3, r3, #104
 3093 003a 1A78     		ldrb	r2, [r3]
 3094              		.loc 1 1445 5 is_stmt 0 discriminator 1 view .LVU1029
 3095 003c 0220     		movs	r0, #2
 3096              		.loc 1 1445 5 view .LVU1030
 3097 003e 012A     		cmp	r2, #1
 3098 0040 31D0     		beq	.L291
 3099              		.loc 1 1445 5 is_stmt 1 discriminator 2 view .LVU1031
 3100 0042 0122     		movs	r2, #1
 3101 0044 1A70     		strb	r2, [r3]
 3102              		.loc 1 1445 5 view .LVU1032
1446:.././hal//stm32f0/stm32f0_hal_lowlevel.c **** 
1447:.././hal//stm32f0/stm32f0_hal_lowlevel.c ****     huart->ErrorCode = HAL_UART_ERROR_NONE;
 3103              		.loc 1 1447 5 view .LVU1033
 3104              		.loc 1 1447 22 is_stmt 0 view .LVU1034
 3105 0046 0023     		movs	r3, #0
 3106 0048 E366     		str	r3, [r4, #108]
1448:.././hal//stm32f0/stm32f0_hal_lowlevel.c ****     huart->gState = HAL_UART_STATE_BUSY_TX;
 3107              		.loc 1 1448 5 is_stmt 1 view .LVU1035
 3108              		.loc 1 1448 19 is_stmt 0 view .LVU1036
 3109 004a 2133     		adds	r3, r3, #33
 3110 004c 3B70     		strb	r3, [r7]
1449:.././hal//stm32f0/stm32f0_hal_lowlevel.c **** 
1450:.././hal//stm32f0/stm32f0_hal_lowlevel.c ****     /* Init tickstart for timeout managment*/
1451:.././hal//stm32f0/stm32f0_hal_lowlevel.c ****     tickstart = HAL_GetTick();
 3111              		.loc 1 1451 5 is_stmt 1 view .LVU1037
 3112              		.loc 1 1451 17 is_stmt 0 view .LVU1038
 3113 004e FFF7FEFF 		bl	HAL_GetTick
 3114              	.LVL236:
1452:.././hal//stm32f0/stm32f0_hal_lowlevel.c **** 
1453:.././hal//stm32f0/stm32f0_hal_lowlevel.c ****     huart->TxXferSize = Size;
 3115              		.loc 1 1453 23 view .LVU1039
 3116 0052 2300     		movs	r3, r4
 3117 0054 5033     		adds	r3, r3, #80
 3118 0056 1E80     		strh	r6, [r3]
1454:.././hal//stm32f0/stm32f0_hal_lowlevel.c ****     huart->TxXferCount = Size;
 3119              		.loc 1 1454 24 view .LVU1040
 3120 0058 5E80     		strh	r6, [r3, #2]
1455:.././hal//stm32f0/stm32f0_hal_lowlevel.c ****     while(huart->TxXferCount > 0)
1456:.././hal//stm32f0/stm32f0_hal_lowlevel.c ****     {
1457:.././hal//stm32f0/stm32f0_hal_lowlevel.c ****       huart->TxXferCount--;
1458:.././hal//stm32f0/stm32f0_hal_lowlevel.c ****       if(UART_WaitOnFlagUntilTimeout(huart, UART_FLAG_TXE, RESET, tickstart, Timeout) != HAL_OK)
1459:.././hal//stm32f0/stm32f0_hal_lowlevel.c ****       {
1460:.././hal//stm32f0/stm32f0_hal_lowlevel.c ****         return HAL_TIMEOUT;
1461:.././hal//stm32f0/stm32f0_hal_lowlevel.c ****       }
1462:.././hal//stm32f0/stm32f0_hal_lowlevel.c ****       if ((huart->Init.WordLength == UART_WORDLENGTH_9B) && (huart->Init.Parity == UART_PARITY_NONE
 3121              		.loc 1 1462 10 view .LVU1041
 3122 005a 8026     		movs	r6, #128
 3123              	.LVL237:
1451:.././hal//stm32f0/stm32f0_hal_lowlevel.c **** 
 3124              		.loc 1 1451 17 view .LVU1042
 3125 005c 0290     		str	r0, [sp, #8]
 3126              	.LVL238:
1453:.././hal//stm32f0/stm32f0_hal_lowlevel.c ****     huart->TxXferCount = Size;
 3127              		.loc 1 1453 5 is_stmt 1 view .LVU1043
1454:.././hal//stm32f0/stm32f0_hal_lowlevel.c ****     while(huart->TxXferCount > 0)
 3128              		.loc 1 1454 5 view .LVU1044
1455:.././hal//stm32f0/stm32f0_hal_lowlevel.c ****     {
 3129              		.loc 1 1455 5 view .LVU1045
 3130              		.loc 1 1462 10 is_stmt 0 view .LVU1046
 3131 005e 7601     		lsls	r6, r6, #5
 3132              	.LVL239:
 3133              	.L293:
1455:.././hal//stm32f0/stm32f0_hal_lowlevel.c ****     {
 3134              		.loc 1 1455 30 is_stmt 1 view .LVU1047
1455:.././hal//stm32f0/stm32f0_hal_lowlevel.c ****     {
 3135              		.loc 1 1455 16 is_stmt 0 view .LVU1048
 3136 0060 2100     		movs	r1, r4
 3137 0062 5231     		adds	r1, r1, #82
 3138 0064 0B88     		ldrh	r3, [r1]
 3139 0066 9AB2     		uxth	r2, r3
1455:.././hal//stm32f0/stm32f0_hal_lowlevel.c ****     {
 3140              		.loc 1 1455 30 view .LVU1049
 3141 0068 002B     		cmp	r3, #0
 3142 006a 0DD1     		bne	.L297
1463:.././hal//stm32f0/stm32f0_hal_lowlevel.c ****       {
1464:.././hal//stm32f0/stm32f0_hal_lowlevel.c ****         tmp = (uint16_t*) pData;
1465:.././hal//stm32f0/stm32f0_hal_lowlevel.c ****         huart->Instance->TDR = (*tmp & (uint16_t)0x01FFU);
1466:.././hal//stm32f0/stm32f0_hal_lowlevel.c ****         pData += 2;
1467:.././hal//stm32f0/stm32f0_hal_lowlevel.c ****       }
1468:.././hal//stm32f0/stm32f0_hal_lowlevel.c ****       else
1469:.././hal//stm32f0/stm32f0_hal_lowlevel.c ****       {
1470:.././hal//stm32f0/stm32f0_hal_lowlevel.c ****         huart->Instance->TDR = (*pData++ & (uint8_t)0xFFU);
1471:.././hal//stm32f0/stm32f0_hal_lowlevel.c ****       }
1472:.././hal//stm32f0/stm32f0_hal_lowlevel.c ****     }
1473:.././hal//stm32f0/stm32f0_hal_lowlevel.c ****     if(UART_WaitOnFlagUntilTimeout(huart, UART_FLAG_TC, RESET, tickstart, Timeout) != HAL_OK)
 3143              		.loc 1 1473 5 is_stmt 1 view .LVU1050
 3144              		.loc 1 1473 8 is_stmt 0 view .LVU1051
 3145 006c 039B     		ldr	r3, [sp, #12]
 3146 006e 4021     		movs	r1, #64
 3147 0070 0093     		str	r3, [sp]
 3148 0072 2000     		movs	r0, r4
 3149 0074 029B     		ldr	r3, [sp, #8]
 3150 0076 FFF7FEFF 		bl	UART_WaitOnFlagUntilTimeout
 3151              	.LVL240:
 3152              		.loc 1 1473 7 discriminator 1 view .LVU1052
 3153 007a 0028     		cmp	r0, #0
 3154 007c 12D1     		bne	.L298
1474:.././hal//stm32f0/stm32f0_hal_lowlevel.c ****     {
1475:.././hal//stm32f0/stm32f0_hal_lowlevel.c ****       return HAL_TIMEOUT;
1476:.././hal//stm32f0/stm32f0_hal_lowlevel.c ****     }
1477:.././hal//stm32f0/stm32f0_hal_lowlevel.c **** 
1478:.././hal//stm32f0/stm32f0_hal_lowlevel.c ****     /* At end of Tx process, restore huart->gState to Ready */
1479:.././hal//stm32f0/stm32f0_hal_lowlevel.c ****     huart->gState = HAL_UART_STATE_READY;
 3155              		.loc 1 1479 5 is_stmt 1 view .LVU1053
 3156              		.loc 1 1479 19 is_stmt 0 view .LVU1054
 3157 007e 2023     		movs	r3, #32
1480:.././hal//stm32f0/stm32f0_hal_lowlevel.c **** 
1481:.././hal//stm32f0/stm32f0_hal_lowlevel.c ****     /* Process Unlocked */
1482:.././hal//stm32f0/stm32f0_hal_lowlevel.c ****     __HAL_UNLOCK(huart);
 3158              		.loc 1 1482 5 view .LVU1055
 3159 0080 6834     		adds	r4, r4, #104
 3160              	.LVL241:
1479:.././hal//stm32f0/stm32f0_hal_lowlevel.c **** 
 3161              		.loc 1 1479 19 view .LVU1056
 3162 0082 3B70     		strb	r3, [r7]
 3163              		.loc 1 1482 5 is_stmt 1 view .LVU1057
 3164              		.loc 1 1482 5 view .LVU1058
 3165 0084 2070     		strb	r0, [r4]
 3166              		.loc 1 1482 5 view .LVU1059
1483:.././hal//stm32f0/stm32f0_hal_lowlevel.c **** 
1484:.././hal//stm32f0/stm32f0_hal_lowlevel.c ****     return HAL_OK;
 3167              		.loc 1 1484 5 view .LVU1060
 3168              		.loc 1 1484 12 is_stmt 0 view .LVU1061
 3169 0086 0EE0     		b	.L291
 3170              	.LVL242:
 3171              	.L297:
1457:.././hal//stm32f0/stm32f0_hal_lowlevel.c ****       if(UART_WaitOnFlagUntilTimeout(huart, UART_FLAG_TXE, RESET, tickstart, Timeout) != HAL_OK)
 3172              		.loc 1 1457 7 is_stmt 1 view .LVU1062
1457:.././hal//stm32f0/stm32f0_hal_lowlevel.c ****       if(UART_WaitOnFlagUntilTimeout(huart, UART_FLAG_TXE, RESET, tickstart, Timeout) != HAL_OK)
 3173              		.loc 1 1457 12 is_stmt 0 view .LVU1063
 3174 0088 0B88     		ldrh	r3, [r1]
1458:.././hal//stm32f0/stm32f0_hal_lowlevel.c ****       {
 3175              		.loc 1 1458 10 view .LVU1064
 3176 008a 0022     		movs	r2, #0
1457:.././hal//stm32f0/stm32f0_hal_lowlevel.c ****       if(UART_WaitOnFlagUntilTimeout(huart, UART_FLAG_TXE, RESET, tickstart, Timeout) != HAL_OK)
 3177              		.loc 1 1457 25 view .LVU1065
 3178 008c 013B     		subs	r3, r3, #1
 3179 008e 9BB2     		uxth	r3, r3
 3180 0090 0B80     		strh	r3, [r1]
1458:.././hal//stm32f0/stm32f0_hal_lowlevel.c ****       {
 3181              		.loc 1 1458 7 is_stmt 1 view .LVU1066
1458:.././hal//stm32f0/stm32f0_hal_lowlevel.c ****       {
 3182              		.loc 1 1458 10 is_stmt 0 view .LVU1067
 3183 0092 039B     		ldr	r3, [sp, #12]
 3184 0094 8021     		movs	r1, #128
 3185 0096 0093     		str	r3, [sp]
 3186 0098 2000     		movs	r0, r4
 3187 009a 029B     		ldr	r3, [sp, #8]
 3188 009c FFF7FEFF 		bl	UART_WaitOnFlagUntilTimeout
 3189              	.LVL243:
1458:.././hal//stm32f0/stm32f0_hal_lowlevel.c ****       {
 3190              		.loc 1 1458 9 discriminator 1 view .LVU1068
 3191 00a0 0028     		cmp	r0, #0
 3192 00a2 02D0     		beq	.L294
 3193              	.L298:
1460:.././hal//stm32f0/stm32f0_hal_lowlevel.c ****       }
 3194              		.loc 1 1460 16 view .LVU1069
 3195 00a4 0320     		movs	r0, #3
 3196              	.LVL244:
 3197              	.L291:
1485:.././hal//stm32f0/stm32f0_hal_lowlevel.c ****   }
1486:.././hal//stm32f0/stm32f0_hal_lowlevel.c ****   else
1487:.././hal//stm32f0/stm32f0_hal_lowlevel.c ****   {
1488:.././hal//stm32f0/stm32f0_hal_lowlevel.c ****     return HAL_BUSY;
1489:.././hal//stm32f0/stm32f0_hal_lowlevel.c ****   }
1490:.././hal//stm32f0/stm32f0_hal_lowlevel.c **** }
 3198              		.loc 1 1490 1 view .LVU1070
 3199 00a6 05B0     		add	sp, sp, #20
 3200              		@ sp needed
 3201              	.LVL245:
 3202              	.LVL246:
 3203              		.loc 1 1490 1 view .LVU1071
 3204 00a8 F0BD     		pop	{r4, r5, r6, r7, pc}
 3205              	.LVL247:
 3206              	.L294:
1462:.././hal//stm32f0/stm32f0_hal_lowlevel.c ****       {
 3207              		.loc 1 1462 7 is_stmt 1 view .LVU1072
1462:.././hal//stm32f0/stm32f0_hal_lowlevel.c ****       {
 3208              		.loc 1 1462 10 is_stmt 0 view .LVU1073
 3209 00aa A368     		ldr	r3, [r4, #8]
1465:.././hal//stm32f0/stm32f0_hal_lowlevel.c ****         pData += 2;
 3210              		.loc 1 1465 14 view .LVU1074
 3211 00ac 2268     		ldr	r2, [r4]
1462:.././hal//stm32f0/stm32f0_hal_lowlevel.c ****       {
 3212              		.loc 1 1462 10 view .LVU1075
 3213 00ae B342     		cmp	r3, r6
 3214 00b0 08D1     		bne	.L295
1462:.././hal//stm32f0/stm32f0_hal_lowlevel.c ****       {
 3215              		.loc 1 1462 58 discriminator 1 view .LVU1076
 3216 00b2 2369     		ldr	r3, [r4, #16]
 3217 00b4 002B     		cmp	r3, #0
 3218 00b6 05D1     		bne	.L295
1464:.././hal//stm32f0/stm32f0_hal_lowlevel.c ****         huart->Instance->TDR = (*tmp & (uint16_t)0x01FFU);
 3219              		.loc 1 1464 9 is_stmt 1 view .LVU1077
 3220              	.LVL248:
1465:.././hal//stm32f0/stm32f0_hal_lowlevel.c ****         pData += 2;
 3221              		.loc 1 1465 9 view .LVU1078
1465:.././hal//stm32f0/stm32f0_hal_lowlevel.c ****         pData += 2;
 3222              		.loc 1 1465 38 is_stmt 0 view .LVU1079
 3223 00b8 2B88     		ldrh	r3, [r5]
1466:.././hal//stm32f0/stm32f0_hal_lowlevel.c ****       }
 3224              		.loc 1 1466 15 view .LVU1080
 3225 00ba 0235     		adds	r5, r5, #2
 3226              	.LVL249:
1465:.././hal//stm32f0/stm32f0_hal_lowlevel.c ****         pData += 2;
 3227              		.loc 1 1465 38 view .LVU1081
 3228 00bc DB05     		lsls	r3, r3, #23
 3229 00be DB0D     		lsrs	r3, r3, #23
1465:.././hal//stm32f0/stm32f0_hal_lowlevel.c ****         pData += 2;
 3230              		.loc 1 1465 30 view .LVU1082
 3231 00c0 1385     		strh	r3, [r2, #40]
1466:.././hal//stm32f0/stm32f0_hal_lowlevel.c ****       }
 3232              		.loc 1 1466 9 is_stmt 1 view .LVU1083
 3233              	.LVL250:
1466:.././hal//stm32f0/stm32f0_hal_lowlevel.c ****       }
 3234              		.loc 1 1466 15 is_stmt 0 view .LVU1084
 3235 00c2 CDE7     		b	.L293
 3236              	.LVL251:
 3237              	.L295:
1470:.././hal//stm32f0/stm32f0_hal_lowlevel.c ****       }
 3238              		.loc 1 1470 9 is_stmt 1 view .LVU1085
1470:.././hal//stm32f0/stm32f0_hal_lowlevel.c ****       }
 3239              		.loc 1 1470 33 is_stmt 0 view .LVU1086
 3240 00c4 2B78     		ldrb	r3, [r5]
1470:.././hal//stm32f0/stm32f0_hal_lowlevel.c ****       }
 3241              		.loc 1 1470 39 view .LVU1087
 3242 00c6 0135     		adds	r5, r5, #1
 3243              	.LVL252:
1470:.././hal//stm32f0/stm32f0_hal_lowlevel.c ****       }
 3244              		.loc 1 1470 30 view .LVU1088
 3245 00c8 1385     		strh	r3, [r2, #40]
 3246 00ca C9E7     		b	.L293
 3247              		.cfi_endproc
 3248              	.LFE51:
 3250              		.global	SystemCoreClock
 3251              		.section	.rodata
 3252              		.set	.LANCHOR2,. + 0
 3255              	CSWTCH.25:
 3256 0000 04       		.byte	4
 3257 0001 08       		.byte	8
 3258 0002 02       		.byte	2
 3259              		.data
 3260              		.align	2
 3261              		.set	.LANCHOR1,. + 0
 3264              	SystemCoreClock:
 3265 0000 00127A00 		.word	8000000
 3266              		.bss
 3267              		.align	2
 3268              		.set	.LANCHOR0,. + 0
 3271              	tick.0:
 3272 0000 00000000 		.space	4
 3273              		.text
 3274              	.Letext0:
 3275              		.file 2 "/usr/lib/gcc/arm-none-eabi/14.2.1/include/stdint.h"
 3276              		.file 3 ".././hal//stm32f0/CMSIS/device/stm32f030x6.h"
 3277              		.file 4 ".././hal//stm32f0/CMSIS/device/stm32f0xx.h"
 3278              		.file 5 ".././hal//stm32f0/stm32f0xx_hal_def.h"
 3279              		.file 6 ".././hal//stm32f0/stm32f0xx_hal_rcc.h"
 3280              		.file 7 ".././hal//stm32f0/stm32f0xx_hal_rcc_ex.h"
 3281              		.file 8 ".././hal//stm32f0/stm32f0xx_hal_gpio.h"
 3282              		.file 9 ".././hal//stm32f0/stm32f0xx_hal_dma.h"
 3283              		.file 10 ".././hal//stm32f0/stm32f0xx_hal_uart.h"
 3284              		.file 11 ".././hal//stm32f0/CMSIS/device/system_stm32f0xx.h"
DEFINED SYMBOLS
                            *ABS*:00000000 stm32f0_hal_lowlevel.c
     /tmp/ccKVzcI8.s:19     .text.HAL_GetTick:00000000 $t
     /tmp/ccKVzcI8.s:25     .text.HAL_GetTick:00000000 HAL_GetTick
     /tmp/ccKVzcI8.s:48     .text.HAL_GetTick:0000000c $d
     /tmp/ccKVzcI8.s:53     .text.HAL_RCC_GetSysClockFreq:00000000 $t
     /tmp/ccKVzcI8.s:59     .text.HAL_RCC_GetSysClockFreq:00000000 HAL_RCC_GetSysClockFreq
     /tmp/ccKVzcI8.s:77     .text.HAL_RCC_GetPCLK1Freq:00000000 $t
     /tmp/ccKVzcI8.s:83     .text.HAL_RCC_GetPCLK1Freq:00000000 HAL_RCC_GetPCLK1Freq
     /tmp/ccKVzcI8.s:98     .text.HAL_RCC_GetPCLK2Freq:00000000 $t
     /tmp/ccKVzcI8.s:104    .text.HAL_RCC_GetPCLK2Freq:00000000 HAL_RCC_GetPCLK2Freq
     /tmp/ccKVzcI8.s:119    .text.HAL_RCC_OscConfig:00000000 $t
     /tmp/ccKVzcI8.s:125    .text.HAL_RCC_OscConfig:00000000 HAL_RCC_OscConfig
     /tmp/ccKVzcI8.s:903    .text.HAL_RCC_OscConfig:00000300 $d
     /tmp/ccKVzcI8.s:913    .text.HAL_RCC_OscConfig:00000318 $t
     /tmp/ccKVzcI8.s:1062   .text.HAL_RCC_OscConfig:000003b0 $d
     /tmp/ccKVzcI8.s:1069   .text.HAL_RCC_ClockConfig:00000000 $t
     /tmp/ccKVzcI8.s:1075   .text.HAL_RCC_ClockConfig:00000000 HAL_RCC_ClockConfig
     /tmp/ccKVzcI8.s:1354   .text.HAL_RCC_ClockConfig:00000100 $d
     /tmp/ccKVzcI8.s:1363   .text.HAL_RCCEx_PeriphCLKConfig:00000000 $t
     /tmp/ccKVzcI8.s:1369   .text.HAL_RCCEx_PeriphCLKConfig:00000000 HAL_RCCEx_PeriphCLKConfig
     /tmp/ccKVzcI8.s:1639   .text.HAL_RCCEx_PeriphCLKConfig:000000f4 $d
     /tmp/ccKVzcI8.s:1649   .text.HAL_GPIO_Init:00000000 $t
     /tmp/ccKVzcI8.s:1655   .text.HAL_GPIO_Init:00000000 HAL_GPIO_Init
     /tmp/ccKVzcI8.s:2068   .text.HAL_GPIO_Init:0000014c $d
     /tmp/ccKVzcI8.s:2078   .text.HAL_GPIO_WritePin:00000000 $t
     /tmp/ccKVzcI8.s:2084   .text.HAL_GPIO_WritePin:00000000 HAL_GPIO_WritePin
     /tmp/ccKVzcI8.s:2115   .text.UART_WaitOnFlagUntilTimeout:00000000 $t
     /tmp/ccKVzcI8.s:2121   .text.UART_WaitOnFlagUntilTimeout:00000000 UART_WaitOnFlagUntilTimeout
     /tmp/ccKVzcI8.s:2234   .text.UART_WaitOnFlagUntilTimeout:00000060 $d
     /tmp/ccKVzcI8.s:2239   .text.UART_CheckIdleState:00000000 $t
     /tmp/ccKVzcI8.s:2245   .text.UART_CheckIdleState:00000000 UART_CheckIdleState
     /tmp/ccKVzcI8.s:2288   .text.UART_SetConfig:00000000 $t
     /tmp/ccKVzcI8.s:2294   .text.UART_SetConfig:00000000 UART_SetConfig
     /tmp/ccKVzcI8.s:2401   .text.UART_SetConfig:0000005c $d
     /tmp/ccKVzcI8.s:2452   .text.UART_SetConfig:00000086 $d
     /tmp/ccKVzcI8.s:2571   .text.UART_SetConfig:000000e4 $d
     /tmp/ccKVzcI8.s:2582   .text.HAL_UART_Init:00000000 $t
     /tmp/ccKVzcI8.s:2588   .text.HAL_UART_Init:00000000 HAL_UART_Init
     /tmp/ccKVzcI8.s:2740   .text.HAL_UART_Init:00000060 $d
     /tmp/ccKVzcI8.s:2745   .text.HAL_UART_Receive:00000000 $t
     /tmp/ccKVzcI8.s:2751   .text.HAL_UART_Receive:00000000 HAL_UART_Receive
     /tmp/ccKVzcI8.s:3010   .text.HAL_UART_Receive:000000e8 $d
     /tmp/ccKVzcI8.s:3015   .text.HAL_UART_Transmit:00000000 $t
     /tmp/ccKVzcI8.s:3021   .text.HAL_UART_Transmit:00000000 HAL_UART_Transmit
     /tmp/ccKVzcI8.s:3264   .data:00000000 SystemCoreClock
     /tmp/ccKVzcI8.s:3255   .rodata:00000000 CSWTCH.25
     /tmp/ccKVzcI8.s:3260   .data:00000000 $d
     /tmp/ccKVzcI8.s:3267   .bss:00000000 $d
     /tmp/ccKVzcI8.s:3271   .bss:00000000 tick.0
     /tmp/ccKVzcI8.s:2410   .text.UART_SetConfig:00000065 $d
     /tmp/ccKVzcI8.s:2410   .text.UART_SetConfig:00000066 $t
     /tmp/ccKVzcI8.s:2461   .text.UART_SetConfig:0000008f $d
     /tmp/ccKVzcI8.s:2461   .text.UART_SetConfig:00000090 $t

UNDEFINED SYMBOLS
__gnu_thumb1_case_uqi
__aeabi_uidiv
