
simpleserial-base-CWNANO.elf:     file format elf32-littlearm

Sections:
Idx Name          Size      VMA       LMA       File off  Algn
  0 .isr_vector   00000188  08000000  08000000  00010000  2**0
                  CONTENTS, ALLOC, LOAD, READONLY, DATA
  1 .text         000022fc  08000188  08000188  00010188  2**2
                  CONTENTS, ALLOC, LOAD, READONLY, CODE
  2 .rodata       00000208  08002488  08002488  00012488  2**3
                  CONTENTS, ALLOC, LOAD, READONLY, DATA
  3 .ARM.extab    00000000  08002690  08002690  00020004  2**0
                  CONTENTS
  4 .ARM          00000000  08002690  08002690  00020004  2**0
                  CONTENTS
  5 .preinit_array 00000000  08002690  08002690  00020004  2**0
                  CONTENTS, ALLOC, LOAD, DATA
  6 .init_array   00000004  08002690  08002690  00012690  2**2
                  CONTENTS, ALLOC, LOAD, DATA
  7 .fini_array   00000004  08002694  08002694  00012694  2**2
                  CONTENTS, ALLOC, LOAD, DATA
  8 .data         00000004  20000000  08002698  00020000  2**2
                  CONTENTS, ALLOC, LOAD, DATA
  9 .bss          00000898  20000008  0800269c  00020008  2**3
                  ALLOC
 10 ._user_heap_stack 00000200  200008a0  0800269c  000208a0  2**0
                  ALLOC
 11 .ARM.attributes 00000028  00000000  00000000  00020004  2**0
                  CONTENTS, READONLY
 12 .comment      0000004c  00000000  00000000  0002002c  2**0
                  CONTENTS, READONLY
 13 .debug_info   0000587b  00000000  00000000  00020078  2**0
                  CONTENTS, READONLY, DEBUGGING, OCTETS
 14 .debug_abbrev 00001388  00000000  00000000  000258f3  2**0
                  CONTENTS, READONLY, DEBUGGING, OCTETS
 15 .debug_loc    00004036  00000000  00000000  00026c7b  2**0
                  CONTENTS, READONLY, DEBUGGING, OCTETS
 16 .debug_aranges 00000358  00000000  00000000  0002acb8  2**3
                  CONTENTS, READONLY, DEBUGGING, OCTETS
 17 .debug_ranges 000005e0  00000000  00000000  0002b010  2**0
                  CONTENTS, READONLY, DEBUGGING, OCTETS
 18 .debug_line   000035f2  00000000  00000000  0002b5f0  2**0
                  CONTENTS, READONLY, DEBUGGING, OCTETS
 19 .debug_str    000012ca  00000000  00000000  0002ebe2  2**0
                  CONTENTS, READONLY, DEBUGGING, OCTETS
 20 .debug_frame  000006d4  00000000  00000000  0002feac  2**2
                  CONTENTS, READONLY, DEBUGGING, OCTETS
 21 .stab         00000144  00000000  00000000  00030580  2**2
                  CONTENTS, READONLY, DEBUGGING
 22 .stabstr      00000035  00000000  00000000  000306c4  2**0
                  CONTENTS, READONLY, DEBUGGING
 23 .debug_line_str 00000090  00000000  00000000  000306f9  2**0
                  CONTENTS, READONLY, DEBUGGING, OCTETS
 24 .debug_loclists 000004e7  00000000  00000000  00030789  2**0
                  CONTENTS, READONLY, DEBUGGING, OCTETS

Disassembly of section .text:

08000188 <deregister_tm_clones>:
 8000188:	4804      	ldr	r0, [pc, #16]	@ (800019c <deregister_tm_clones+0x14>)
 800018a:	4b05      	ldr	r3, [pc, #20]	@ (80001a0 <deregister_tm_clones+0x18>)
 800018c:	b510      	push	{r4, lr}
 800018e:	4283      	cmp	r3, r0
 8000190:	d003      	beq.n	800019a <deregister_tm_clones+0x12>
 8000192:	4b04      	ldr	r3, [pc, #16]	@ (80001a4 <deregister_tm_clones+0x1c>)
 8000194:	2b00      	cmp	r3, #0
 8000196:	d000      	beq.n	800019a <deregister_tm_clones+0x12>
 8000198:	4798      	blx	r3
 800019a:	bd10      	pop	{r4, pc}
 800019c:	20000004 	.word	0x20000004
 80001a0:	20000004 	.word	0x20000004
 80001a4:	00000000 	.word	0x00000000

080001a8 <register_tm_clones>:
 80001a8:	4806      	ldr	r0, [pc, #24]	@ (80001c4 <register_tm_clones+0x1c>)
 80001aa:	4907      	ldr	r1, [pc, #28]	@ (80001c8 <register_tm_clones+0x20>)
 80001ac:	1a09      	subs	r1, r1, r0
 80001ae:	108b      	asrs	r3, r1, #2
 80001b0:	0fc9      	lsrs	r1, r1, #31
 80001b2:	18c9      	adds	r1, r1, r3
 80001b4:	b510      	push	{r4, lr}
 80001b6:	1049      	asrs	r1, r1, #1
 80001b8:	d003      	beq.n	80001c2 <register_tm_clones+0x1a>
 80001ba:	4b04      	ldr	r3, [pc, #16]	@ (80001cc <register_tm_clones+0x24>)
 80001bc:	2b00      	cmp	r3, #0
 80001be:	d000      	beq.n	80001c2 <register_tm_clones+0x1a>
 80001c0:	4798      	blx	r3
 80001c2:	bd10      	pop	{r4, pc}
 80001c4:	20000004 	.word	0x20000004
 80001c8:	20000004 	.word	0x20000004
 80001cc:	00000000 	.word	0x00000000

080001d0 <__do_global_dtors_aux>:
 80001d0:	b510      	push	{r4, lr}
 80001d2:	4c07      	ldr	r4, [pc, #28]	@ (80001f0 <__do_global_dtors_aux+0x20>)
 80001d4:	7823      	ldrb	r3, [r4, #0]
 80001d6:	2b00      	cmp	r3, #0
 80001d8:	d109      	bne.n	80001ee <__do_global_dtors_aux+0x1e>
 80001da:	f7ff ffd5 	bl	8000188 <deregister_tm_clones>
 80001de:	4b05      	ldr	r3, [pc, #20]	@ (80001f4 <__do_global_dtors_aux+0x24>)
 80001e0:	2b00      	cmp	r3, #0
 80001e2:	d002      	beq.n	80001ea <__do_global_dtors_aux+0x1a>
 80001e4:	4804      	ldr	r0, [pc, #16]	@ (80001f8 <__do_global_dtors_aux+0x28>)
 80001e6:	e000      	b.n	80001ea <__do_global_dtors_aux+0x1a>
 80001e8:	bf00      	nop
 80001ea:	2301      	movs	r3, #1
 80001ec:	7023      	strb	r3, [r4, #0]
 80001ee:	bd10      	pop	{r4, pc}
 80001f0:	20000008 	.word	0x20000008
 80001f4:	00000000 	.word	0x00000000
 80001f8:	0800246c 	.word	0x0800246c

080001fc <frame_dummy>:
 80001fc:	4b05      	ldr	r3, [pc, #20]	@ (8000214 <frame_dummy+0x18>)
 80001fe:	b510      	push	{r4, lr}
 8000200:	2b00      	cmp	r3, #0
 8000202:	d003      	beq.n	800020c <frame_dummy+0x10>
 8000204:	4904      	ldr	r1, [pc, #16]	@ (8000218 <frame_dummy+0x1c>)
 8000206:	4805      	ldr	r0, [pc, #20]	@ (800021c <frame_dummy+0x20>)
 8000208:	e000      	b.n	800020c <frame_dummy+0x10>
 800020a:	bf00      	nop
 800020c:	f7ff ffcc 	bl	80001a8 <register_tm_clones>
 8000210:	bd10      	pop	{r4, pc}
 8000212:	46c0      	nop			@ (mov r8, r8)
 8000214:	00000000 	.word	0x00000000
 8000218:	2000000c 	.word	0x2000000c
 800021c:	0800246c 	.word	0x0800246c

08000220 <__gnu_thumb1_case_uqi>:
 8000220:	b402      	push	{r1}
 8000222:	4671      	mov	r1, lr
 8000224:	0849      	lsrs	r1, r1, #1
 8000226:	0049      	lsls	r1, r1, #1
 8000228:	5c09      	ldrb	r1, [r1, r0]
 800022a:	0049      	lsls	r1, r1, #1
 800022c:	448e      	add	lr, r1
 800022e:	bc02      	pop	{r1}
 8000230:	4770      	bx	lr
 8000232:	46c0      	nop			@ (mov r8, r8)

08000234 <__udivsi3>:
 8000234:	2200      	movs	r2, #0
 8000236:	0843      	lsrs	r3, r0, #1
 8000238:	428b      	cmp	r3, r1
 800023a:	d374      	bcc.n	8000326 <__udivsi3+0xf2>
 800023c:	0903      	lsrs	r3, r0, #4
 800023e:	428b      	cmp	r3, r1
 8000240:	d35f      	bcc.n	8000302 <__udivsi3+0xce>
 8000242:	0a03      	lsrs	r3, r0, #8
 8000244:	428b      	cmp	r3, r1
 8000246:	d344      	bcc.n	80002d2 <__udivsi3+0x9e>
 8000248:	0b03      	lsrs	r3, r0, #12
 800024a:	428b      	cmp	r3, r1
 800024c:	d328      	bcc.n	80002a0 <__udivsi3+0x6c>
 800024e:	0c03      	lsrs	r3, r0, #16
 8000250:	428b      	cmp	r3, r1
 8000252:	d30d      	bcc.n	8000270 <__udivsi3+0x3c>
 8000254:	22ff      	movs	r2, #255	@ 0xff
 8000256:	0209      	lsls	r1, r1, #8
 8000258:	ba12      	rev	r2, r2
 800025a:	0c03      	lsrs	r3, r0, #16
 800025c:	428b      	cmp	r3, r1
 800025e:	d302      	bcc.n	8000266 <__udivsi3+0x32>
 8000260:	1212      	asrs	r2, r2, #8
 8000262:	0209      	lsls	r1, r1, #8
 8000264:	d065      	beq.n	8000332 <__udivsi3+0xfe>
 8000266:	0b03      	lsrs	r3, r0, #12
 8000268:	428b      	cmp	r3, r1
 800026a:	d319      	bcc.n	80002a0 <__udivsi3+0x6c>
 800026c:	e000      	b.n	8000270 <__udivsi3+0x3c>
 800026e:	0a09      	lsrs	r1, r1, #8
 8000270:	0bc3      	lsrs	r3, r0, #15
 8000272:	428b      	cmp	r3, r1
 8000274:	d301      	bcc.n	800027a <__udivsi3+0x46>
 8000276:	03cb      	lsls	r3, r1, #15
 8000278:	1ac0      	subs	r0, r0, r3
 800027a:	4152      	adcs	r2, r2
 800027c:	0b83      	lsrs	r3, r0, #14
 800027e:	428b      	cmp	r3, r1
 8000280:	d301      	bcc.n	8000286 <__udivsi3+0x52>
 8000282:	038b      	lsls	r3, r1, #14
 8000284:	1ac0      	subs	r0, r0, r3
 8000286:	4152      	adcs	r2, r2
 8000288:	0b43      	lsrs	r3, r0, #13
 800028a:	428b      	cmp	r3, r1
 800028c:	d301      	bcc.n	8000292 <__udivsi3+0x5e>
 800028e:	034b      	lsls	r3, r1, #13
 8000290:	1ac0      	subs	r0, r0, r3
 8000292:	4152      	adcs	r2, r2
 8000294:	0b03      	lsrs	r3, r0, #12
 8000296:	428b      	cmp	r3, r1
 8000298:	d301      	bcc.n	800029e <__udivsi3+0x6a>
 800029a:	030b      	lsls	r3, r1, #12
 800029c:	1ac0      	subs	r0, r0, r3
 800029e:	4152      	adcs	r2, r2
 80002a0:	0ac3      	lsrs	r3, r0, #11
 80002a2:	428b      	cmp	r3, r1
 80002a4:	d301      	bcc.n	80002aa <__udivsi3+0x76>
 80002a6:	02cb      	lsls	r3, r1, #11
 80002a8:	1ac0      	subs	r0, r0, r3
 80002aa:	4152      	adcs	r2, r2
 80002ac:	0a83      	lsrs	r3, r0, #10
 80002ae:	428b      	cmp	r3, r1
 80002b0:	d301      	bcc.n	80002b6 <__udivsi3+0x82>
 80002b2:	028b      	lsls	r3, r1, #10
 80002b4:	1ac0      	subs	r0, r0, r3
 80002b6:	4152      	adcs	r2, r2
 80002b8:	0a43      	lsrs	r3, r0, #9
 80002ba:	428b      	cmp	r3, r1
 80002bc:	d301      	bcc.n	80002c2 <__udivsi3+0x8e>
 80002be:	024b      	lsls	r3, r1, #9
 80002c0:	1ac0      	subs	r0, r0, r3
 80002c2:	4152      	adcs	r2, r2
 80002c4:	0a03      	lsrs	r3, r0, #8
 80002c6:	428b      	cmp	r3, r1
 80002c8:	d301      	bcc.n	80002ce <__udivsi3+0x9a>
 80002ca:	020b      	lsls	r3, r1, #8
 80002cc:	1ac0      	subs	r0, r0, r3
 80002ce:	4152      	adcs	r2, r2
 80002d0:	d2cd      	bcs.n	800026e <__udivsi3+0x3a>
 80002d2:	09c3      	lsrs	r3, r0, #7
 80002d4:	428b      	cmp	r3, r1
 80002d6:	d301      	bcc.n	80002dc <__udivsi3+0xa8>
 80002d8:	01cb      	lsls	r3, r1, #7
 80002da:	1ac0      	subs	r0, r0, r3
 80002dc:	4152      	adcs	r2, r2
 80002de:	0983      	lsrs	r3, r0, #6
 80002e0:	428b      	cmp	r3, r1
 80002e2:	d301      	bcc.n	80002e8 <__udivsi3+0xb4>
 80002e4:	018b      	lsls	r3, r1, #6
 80002e6:	1ac0      	subs	r0, r0, r3
 80002e8:	4152      	adcs	r2, r2
 80002ea:	0943      	lsrs	r3, r0, #5
 80002ec:	428b      	cmp	r3, r1
 80002ee:	d301      	bcc.n	80002f4 <__udivsi3+0xc0>
 80002f0:	014b      	lsls	r3, r1, #5
 80002f2:	1ac0      	subs	r0, r0, r3
 80002f4:	4152      	adcs	r2, r2
 80002f6:	0903      	lsrs	r3, r0, #4
 80002f8:	428b      	cmp	r3, r1
 80002fa:	d301      	bcc.n	8000300 <__udivsi3+0xcc>
 80002fc:	010b      	lsls	r3, r1, #4
 80002fe:	1ac0      	subs	r0, r0, r3
 8000300:	4152      	adcs	r2, r2
 8000302:	08c3      	lsrs	r3, r0, #3
 8000304:	428b      	cmp	r3, r1
 8000306:	d301      	bcc.n	800030c <__udivsi3+0xd8>
 8000308:	00cb      	lsls	r3, r1, #3
 800030a:	1ac0      	subs	r0, r0, r3
 800030c:	4152      	adcs	r2, r2
 800030e:	0883      	lsrs	r3, r0, #2
 8000310:	428b      	cmp	r3, r1
 8000312:	d301      	bcc.n	8000318 <__udivsi3+0xe4>
 8000314:	008b      	lsls	r3, r1, #2
 8000316:	1ac0      	subs	r0, r0, r3
 8000318:	4152      	adcs	r2, r2
 800031a:	0843      	lsrs	r3, r0, #1
 800031c:	428b      	cmp	r3, r1
 800031e:	d301      	bcc.n	8000324 <__udivsi3+0xf0>
 8000320:	004b      	lsls	r3, r1, #1
 8000322:	1ac0      	subs	r0, r0, r3
 8000324:	4152      	adcs	r2, r2
 8000326:	1a41      	subs	r1, r0, r1
 8000328:	d200      	bcs.n	800032c <__udivsi3+0xf8>
 800032a:	4601      	mov	r1, r0
 800032c:	4152      	adcs	r2, r2
 800032e:	4610      	mov	r0, r2
 8000330:	4770      	bx	lr
 8000332:	e7ff      	b.n	8000334 <__udivsi3+0x100>
 8000334:	b501      	push	{r0, lr}
 8000336:	2000      	movs	r0, #0
 8000338:	f000 f8f0 	bl	800051c <__aeabi_idiv0>
 800033c:	bd02      	pop	{r1, pc}
 800033e:	46c0      	nop			@ (mov r8, r8)

08000340 <__aeabi_uidivmod>:
 8000340:	2900      	cmp	r1, #0
 8000342:	d0f7      	beq.n	8000334 <__udivsi3+0x100>
 8000344:	e776      	b.n	8000234 <__udivsi3>
 8000346:	4770      	bx	lr

08000348 <__divsi3>:
 8000348:	4603      	mov	r3, r0
 800034a:	430b      	orrs	r3, r1
 800034c:	d47f      	bmi.n	800044e <__divsi3+0x106>
 800034e:	2200      	movs	r2, #0
 8000350:	0843      	lsrs	r3, r0, #1
 8000352:	428b      	cmp	r3, r1
 8000354:	d374      	bcc.n	8000440 <__divsi3+0xf8>
 8000356:	0903      	lsrs	r3, r0, #4
 8000358:	428b      	cmp	r3, r1
 800035a:	d35f      	bcc.n	800041c <__divsi3+0xd4>
 800035c:	0a03      	lsrs	r3, r0, #8
 800035e:	428b      	cmp	r3, r1
 8000360:	d344      	bcc.n	80003ec <__divsi3+0xa4>
 8000362:	0b03      	lsrs	r3, r0, #12
 8000364:	428b      	cmp	r3, r1
 8000366:	d328      	bcc.n	80003ba <__divsi3+0x72>
 8000368:	0c03      	lsrs	r3, r0, #16
 800036a:	428b      	cmp	r3, r1
 800036c:	d30d      	bcc.n	800038a <__divsi3+0x42>
 800036e:	22ff      	movs	r2, #255	@ 0xff
 8000370:	0209      	lsls	r1, r1, #8
 8000372:	ba12      	rev	r2, r2
 8000374:	0c03      	lsrs	r3, r0, #16
 8000376:	428b      	cmp	r3, r1
 8000378:	d302      	bcc.n	8000380 <__divsi3+0x38>
 800037a:	1212      	asrs	r2, r2, #8
 800037c:	0209      	lsls	r1, r1, #8
 800037e:	d065      	beq.n	800044c <__divsi3+0x104>
 8000380:	0b03      	lsrs	r3, r0, #12
 8000382:	428b      	cmp	r3, r1
 8000384:	d319      	bcc.n	80003ba <__divsi3+0x72>
 8000386:	e000      	b.n	800038a <__divsi3+0x42>
 8000388:	0a09      	lsrs	r1, r1, #8
 800038a:	0bc3      	lsrs	r3, r0, #15
 800038c:	428b      	cmp	r3, r1
 800038e:	d301      	bcc.n	8000394 <__divsi3+0x4c>
 8000390:	03cb      	lsls	r3, r1, #15
 8000392:	1ac0      	subs	r0, r0, r3
 8000394:	4152      	adcs	r2, r2
 8000396:	0b83      	lsrs	r3, r0, #14
 8000398:	428b      	cmp	r3, r1
 800039a:	d301      	bcc.n	80003a0 <__divsi3+0x58>
 800039c:	038b      	lsls	r3, r1, #14
 800039e:	1ac0      	subs	r0, r0, r3
 80003a0:	4152      	adcs	r2, r2
 80003a2:	0b43      	lsrs	r3, r0, #13
 80003a4:	428b      	cmp	r3, r1
 80003a6:	d301      	bcc.n	80003ac <__divsi3+0x64>
 80003a8:	034b      	lsls	r3, r1, #13
 80003aa:	1ac0      	subs	r0, r0, r3
 80003ac:	4152      	adcs	r2, r2
 80003ae:	0b03      	lsrs	r3, r0, #12
 80003b0:	428b      	cmp	r3, r1
 80003b2:	d301      	bcc.n	80003b8 <__divsi3+0x70>
 80003b4:	030b      	lsls	r3, r1, #12
 80003b6:	1ac0      	subs	r0, r0, r3
 80003b8:	4152      	adcs	r2, r2
 80003ba:	0ac3      	lsrs	r3, r0, #11
 80003bc:	428b      	cmp	r3, r1
 80003be:	d301      	bcc.n	80003c4 <__divsi3+0x7c>
 80003c0:	02cb      	lsls	r3, r1, #11
 80003c2:	1ac0      	subs	r0, r0, r3
 80003c4:	4152      	adcs	r2, r2
 80003c6:	0a83      	lsrs	r3, r0, #10
 80003c8:	428b      	cmp	r3, r1
 80003ca:	d301      	bcc.n	80003d0 <__divsi3+0x88>
 80003cc:	028b      	lsls	r3, r1, #10
 80003ce:	1ac0      	subs	r0, r0, r3
 80003d0:	4152      	adcs	r2, r2
 80003d2:	0a43      	lsrs	r3, r0, #9
 80003d4:	428b      	cmp	r3, r1
 80003d6:	d301      	bcc.n	80003dc <__divsi3+0x94>
 80003d8:	024b      	lsls	r3, r1, #9
 80003da:	1ac0      	subs	r0, r0, r3
 80003dc:	4152      	adcs	r2, r2
 80003de:	0a03      	lsrs	r3, r0, #8
 80003e0:	428b      	cmp	r3, r1
 80003e2:	d301      	bcc.n	80003e8 <__divsi3+0xa0>
 80003e4:	020b      	lsls	r3, r1, #8
 80003e6:	1ac0      	subs	r0, r0, r3
 80003e8:	4152      	adcs	r2, r2
 80003ea:	d2cd      	bcs.n	8000388 <__divsi3+0x40>
 80003ec:	09c3      	lsrs	r3, r0, #7
 80003ee:	428b      	cmp	r3, r1
 80003f0:	d301      	bcc.n	80003f6 <__divsi3+0xae>
 80003f2:	01cb      	lsls	r3, r1, #7
 80003f4:	1ac0      	subs	r0, r0, r3
 80003f6:	4152      	adcs	r2, r2
 80003f8:	0983      	lsrs	r3, r0, #6
 80003fa:	428b      	cmp	r3, r1
 80003fc:	d301      	bcc.n	8000402 <__divsi3+0xba>
 80003fe:	018b      	lsls	r3, r1, #6
 8000400:	1ac0      	subs	r0, r0, r3
 8000402:	4152      	adcs	r2, r2
 8000404:	0943      	lsrs	r3, r0, #5
 8000406:	428b      	cmp	r3, r1
 8000408:	d301      	bcc.n	800040e <__divsi3+0xc6>
 800040a:	014b      	lsls	r3, r1, #5
 800040c:	1ac0      	subs	r0, r0, r3
 800040e:	4152      	adcs	r2, r2
 8000410:	0903      	lsrs	r3, r0, #4
 8000412:	428b      	cmp	r3, r1
 8000414:	d301      	bcc.n	800041a <__divsi3+0xd2>
 8000416:	010b      	lsls	r3, r1, #4
 8000418:	1ac0      	subs	r0, r0, r3
 800041a:	4152      	adcs	r2, r2
 800041c:	08c3      	lsrs	r3, r0, #3
 800041e:	428b      	cmp	r3, r1
 8000420:	d301      	bcc.n	8000426 <__divsi3+0xde>
 8000422:	00cb      	lsls	r3, r1, #3
 8000424:	1ac0      	subs	r0, r0, r3
 8000426:	4152      	adcs	r2, r2
 8000428:	0883      	lsrs	r3, r0, #2
 800042a:	428b      	cmp	r3, r1
 800042c:	d301      	bcc.n	8000432 <__divsi3+0xea>
 800042e:	008b      	lsls	r3, r1, #2
 8000430:	1ac0      	subs	r0, r0, r3
 8000432:	4152      	adcs	r2, r2
 8000434:	0843      	lsrs	r3, r0, #1
 8000436:	428b      	cmp	r3, r1
 8000438:	d301      	bcc.n	800043e <__divsi3+0xf6>
 800043a:	004b      	lsls	r3, r1, #1
 800043c:	1ac0      	subs	r0, r0, r3
 800043e:	4152      	adcs	r2, r2
 8000440:	1a41      	subs	r1, r0, r1
 8000442:	d200      	bcs.n	8000446 <__divsi3+0xfe>
 8000444:	4601      	mov	r1, r0
 8000446:	4152      	adcs	r2, r2
 8000448:	4610      	mov	r0, r2
 800044a:	4770      	bx	lr
 800044c:	e05d      	b.n	800050a <__divsi3+0x1c2>
 800044e:	0fca      	lsrs	r2, r1, #31
 8000450:	d000      	beq.n	8000454 <__divsi3+0x10c>
 8000452:	4249      	negs	r1, r1
 8000454:	1003      	asrs	r3, r0, #32
 8000456:	d300      	bcc.n	800045a <__divsi3+0x112>
 8000458:	4240      	negs	r0, r0
 800045a:	4053      	eors	r3, r2
 800045c:	2200      	movs	r2, #0
 800045e:	469c      	mov	ip, r3
 8000460:	0903      	lsrs	r3, r0, #4
 8000462:	428b      	cmp	r3, r1
 8000464:	d32d      	bcc.n	80004c2 <__divsi3+0x17a>
 8000466:	0a03      	lsrs	r3, r0, #8
 8000468:	428b      	cmp	r3, r1
 800046a:	d312      	bcc.n	8000492 <__divsi3+0x14a>
 800046c:	22fc      	movs	r2, #252	@ 0xfc
 800046e:	0189      	lsls	r1, r1, #6
 8000470:	ba12      	rev	r2, r2
 8000472:	0a03      	lsrs	r3, r0, #8
 8000474:	428b      	cmp	r3, r1
 8000476:	d30c      	bcc.n	8000492 <__divsi3+0x14a>
 8000478:	0189      	lsls	r1, r1, #6
 800047a:	1192      	asrs	r2, r2, #6
 800047c:	428b      	cmp	r3, r1
 800047e:	d308      	bcc.n	8000492 <__divsi3+0x14a>
 8000480:	0189      	lsls	r1, r1, #6
 8000482:	1192      	asrs	r2, r2, #6
 8000484:	428b      	cmp	r3, r1
 8000486:	d304      	bcc.n	8000492 <__divsi3+0x14a>
 8000488:	0189      	lsls	r1, r1, #6
 800048a:	d03a      	beq.n	8000502 <__divsi3+0x1ba>
 800048c:	1192      	asrs	r2, r2, #6
 800048e:	e000      	b.n	8000492 <__divsi3+0x14a>
 8000490:	0989      	lsrs	r1, r1, #6
 8000492:	09c3      	lsrs	r3, r0, #7
 8000494:	428b      	cmp	r3, r1
 8000496:	d301      	bcc.n	800049c <__divsi3+0x154>
 8000498:	01cb      	lsls	r3, r1, #7
 800049a:	1ac0      	subs	r0, r0, r3
 800049c:	4152      	adcs	r2, r2
 800049e:	0983      	lsrs	r3, r0, #6
 80004a0:	428b      	cmp	r3, r1
 80004a2:	d301      	bcc.n	80004a8 <__divsi3+0x160>
 80004a4:	018b      	lsls	r3, r1, #6
 80004a6:	1ac0      	subs	r0, r0, r3
 80004a8:	4152      	adcs	r2, r2
 80004aa:	0943      	lsrs	r3, r0, #5
 80004ac:	428b      	cmp	r3, r1
 80004ae:	d301      	bcc.n	80004b4 <__divsi3+0x16c>
 80004b0:	014b      	lsls	r3, r1, #5
 80004b2:	1ac0      	subs	r0, r0, r3
 80004b4:	4152      	adcs	r2, r2
 80004b6:	0903      	lsrs	r3, r0, #4
 80004b8:	428b      	cmp	r3, r1
 80004ba:	d301      	bcc.n	80004c0 <__divsi3+0x178>
 80004bc:	010b      	lsls	r3, r1, #4
 80004be:	1ac0      	subs	r0, r0, r3
 80004c0:	4152      	adcs	r2, r2
 80004c2:	08c3      	lsrs	r3, r0, #3
 80004c4:	428b      	cmp	r3, r1
 80004c6:	d301      	bcc.n	80004cc <__divsi3+0x184>
 80004c8:	00cb      	lsls	r3, r1, #3
 80004ca:	1ac0      	subs	r0, r0, r3
 80004cc:	4152      	adcs	r2, r2
 80004ce:	0883      	lsrs	r3, r0, #2
 80004d0:	428b      	cmp	r3, r1
 80004d2:	d301      	bcc.n	80004d8 <__divsi3+0x190>
 80004d4:	008b      	lsls	r3, r1, #2
 80004d6:	1ac0      	subs	r0, r0, r3
 80004d8:	4152      	adcs	r2, r2
 80004da:	d2d9      	bcs.n	8000490 <__divsi3+0x148>
 80004dc:	0843      	lsrs	r3, r0, #1
 80004de:	428b      	cmp	r3, r1
 80004e0:	d301      	bcc.n	80004e6 <__divsi3+0x19e>
 80004e2:	004b      	lsls	r3, r1, #1
 80004e4:	1ac0      	subs	r0, r0, r3
 80004e6:	4152      	adcs	r2, r2
 80004e8:	1a41      	subs	r1, r0, r1
 80004ea:	d200      	bcs.n	80004ee <__divsi3+0x1a6>
 80004ec:	4601      	mov	r1, r0
 80004ee:	4663      	mov	r3, ip
 80004f0:	4152      	adcs	r2, r2
 80004f2:	105b      	asrs	r3, r3, #1
 80004f4:	4610      	mov	r0, r2
 80004f6:	d301      	bcc.n	80004fc <__divsi3+0x1b4>
 80004f8:	4240      	negs	r0, r0
 80004fa:	2b00      	cmp	r3, #0
 80004fc:	d500      	bpl.n	8000500 <__divsi3+0x1b8>
 80004fe:	4249      	negs	r1, r1
 8000500:	4770      	bx	lr
 8000502:	4663      	mov	r3, ip
 8000504:	105b      	asrs	r3, r3, #1
 8000506:	d300      	bcc.n	800050a <__divsi3+0x1c2>
 8000508:	4240      	negs	r0, r0
 800050a:	b501      	push	{r0, lr}
 800050c:	2000      	movs	r0, #0
 800050e:	f000 f805 	bl	800051c <__aeabi_idiv0>
 8000512:	bd02      	pop	{r1, pc}

08000514 <__aeabi_idivmod>:
 8000514:	2900      	cmp	r1, #0
 8000516:	d0f8      	beq.n	800050a <__divsi3+0x1c2>
 8000518:	e716      	b.n	8000348 <__divsi3>
 800051a:	4770      	bx	lr

0800051c <__aeabi_idiv0>:
 800051c:	4770      	bx	lr
 800051e:	46c0      	nop			@ (mov r8, r8)

08000520 <__aeabi_llsr>:
 8000520:	40d0      	lsrs	r0, r2
 8000522:	000b      	movs	r3, r1
 8000524:	40d1      	lsrs	r1, r2
 8000526:	469c      	mov	ip, r3
 8000528:	3a20      	subs	r2, #32
 800052a:	40d3      	lsrs	r3, r2
 800052c:	4318      	orrs	r0, r3
 800052e:	4252      	negs	r2, r2
 8000530:	4663      	mov	r3, ip
 8000532:	4093      	lsls	r3, r2
 8000534:	4318      	orrs	r0, r3
 8000536:	4770      	bx	lr

08000538 <__aeabi_llsl>:
 8000538:	4091      	lsls	r1, r2
 800053a:	0003      	movs	r3, r0
 800053c:	4090      	lsls	r0, r2
 800053e:	469c      	mov	ip, r3
 8000540:	3a20      	subs	r2, #32
 8000542:	4093      	lsls	r3, r2
 8000544:	4319      	orrs	r1, r3
 8000546:	4252      	negs	r2, r2
 8000548:	4663      	mov	r3, ip
 800054a:	40d3      	lsrs	r3, r2
 800054c:	4319      	orrs	r1, r3
 800054e:	4770      	bx	lr

08000550 <__libc_init_array>:
 8000550:	b570      	push	{r4, r5, r6, lr}
 8000552:	4b0d      	ldr	r3, [pc, #52]	@ (8000588 <__libc_init_array+0x38>)
 8000554:	4d0d      	ldr	r5, [pc, #52]	@ (800058c <__libc_init_array+0x3c>)
 8000556:	1b5e      	subs	r6, r3, r5
 8000558:	10b6      	asrs	r6, r6, #2
 800055a:	42ab      	cmp	r3, r5
 800055c:	d005      	beq.n	800056a <__libc_init_array+0x1a>
 800055e:	2400      	movs	r4, #0
 8000560:	cd08      	ldmia	r5!, {r3}
 8000562:	3401      	adds	r4, #1
 8000564:	4798      	blx	r3
 8000566:	42a6      	cmp	r6, r4
 8000568:	d8fa      	bhi.n	8000560 <__libc_init_array+0x10>
 800056a:	f001 ff7f 	bl	800246c <_init>
 800056e:	4b08      	ldr	r3, [pc, #32]	@ (8000590 <__libc_init_array+0x40>)
 8000570:	4d08      	ldr	r5, [pc, #32]	@ (8000594 <__libc_init_array+0x44>)
 8000572:	1b5e      	subs	r6, r3, r5
 8000574:	10b6      	asrs	r6, r6, #2
 8000576:	42ab      	cmp	r3, r5
 8000578:	d005      	beq.n	8000586 <__libc_init_array+0x36>
 800057a:	2400      	movs	r4, #0
 800057c:	cd08      	ldmia	r5!, {r3}
 800057e:	3401      	adds	r4, #1
 8000580:	4798      	blx	r3
 8000582:	42a6      	cmp	r6, r4
 8000584:	d8fa      	bhi.n	800057c <__libc_init_array+0x2c>
 8000586:	bd70      	pop	{r4, r5, r6, pc}
 8000588:	08002690 	.word	0x08002690
 800058c:	08002690 	.word	0x08002690
 8000590:	08002694 	.word	0x08002694
 8000594:	08002690 	.word	0x08002690

08000598 <memset>:
 8000598:	b5f0      	push	{r4, r5, r6, r7, lr}
 800059a:	0005      	movs	r5, r0
 800059c:	0783      	lsls	r3, r0, #30
 800059e:	d049      	beq.n	8000634 <memset+0x9c>
 80005a0:	1e54      	subs	r4, r2, #1
 80005a2:	2a00      	cmp	r2, #0
 80005a4:	d045      	beq.n	8000632 <memset+0x9a>
 80005a6:	0003      	movs	r3, r0
 80005a8:	2603      	movs	r6, #3
 80005aa:	b2ca      	uxtb	r2, r1
 80005ac:	e002      	b.n	80005b4 <memset+0x1c>
 80005ae:	3501      	adds	r5, #1
 80005b0:	3c01      	subs	r4, #1
 80005b2:	d33e      	bcc.n	8000632 <memset+0x9a>
 80005b4:	3301      	adds	r3, #1
 80005b6:	702a      	strb	r2, [r5, #0]
 80005b8:	4233      	tst	r3, r6
 80005ba:	d1f8      	bne.n	80005ae <memset+0x16>
 80005bc:	2c03      	cmp	r4, #3
 80005be:	d930      	bls.n	8000622 <memset+0x8a>
 80005c0:	22ff      	movs	r2, #255	@ 0xff
 80005c2:	400a      	ands	r2, r1
 80005c4:	0215      	lsls	r5, r2, #8
 80005c6:	18ad      	adds	r5, r5, r2
 80005c8:	042a      	lsls	r2, r5, #16
 80005ca:	18ad      	adds	r5, r5, r2
 80005cc:	2c0f      	cmp	r4, #15
 80005ce:	d934      	bls.n	800063a <memset+0xa2>
 80005d0:	0027      	movs	r7, r4
 80005d2:	3f10      	subs	r7, #16
 80005d4:	093f      	lsrs	r7, r7, #4
 80005d6:	013e      	lsls	r6, r7, #4
 80005d8:	46b4      	mov	ip, r6
 80005da:	001e      	movs	r6, r3
 80005dc:	001a      	movs	r2, r3
 80005de:	3610      	adds	r6, #16
 80005e0:	4466      	add	r6, ip
 80005e2:	6015      	str	r5, [r2, #0]
 80005e4:	6055      	str	r5, [r2, #4]
 80005e6:	6095      	str	r5, [r2, #8]
 80005e8:	60d5      	str	r5, [r2, #12]
 80005ea:	3210      	adds	r2, #16
 80005ec:	4296      	cmp	r6, r2
 80005ee:	d1f8      	bne.n	80005e2 <memset+0x4a>
 80005f0:	3701      	adds	r7, #1
 80005f2:	013f      	lsls	r7, r7, #4
 80005f4:	19db      	adds	r3, r3, r7
 80005f6:	270f      	movs	r7, #15
 80005f8:	220c      	movs	r2, #12
 80005fa:	4027      	ands	r7, r4
 80005fc:	4022      	ands	r2, r4
 80005fe:	003c      	movs	r4, r7
 8000600:	2a00      	cmp	r2, #0
 8000602:	d00e      	beq.n	8000622 <memset+0x8a>
 8000604:	1f3e      	subs	r6, r7, #4
 8000606:	08b6      	lsrs	r6, r6, #2
 8000608:	00b4      	lsls	r4, r6, #2
 800060a:	46a4      	mov	ip, r4
 800060c:	001a      	movs	r2, r3
 800060e:	1d1c      	adds	r4, r3, #4
 8000610:	4464      	add	r4, ip
 8000612:	c220      	stmia	r2!, {r5}
 8000614:	42a2      	cmp	r2, r4
 8000616:	d1fc      	bne.n	8000612 <memset+0x7a>
 8000618:	2403      	movs	r4, #3
 800061a:	3601      	adds	r6, #1
 800061c:	00b6      	lsls	r6, r6, #2
 800061e:	199b      	adds	r3, r3, r6
 8000620:	403c      	ands	r4, r7
 8000622:	2c00      	cmp	r4, #0
 8000624:	d005      	beq.n	8000632 <memset+0x9a>
 8000626:	b2c9      	uxtb	r1, r1
 8000628:	191c      	adds	r4, r3, r4
 800062a:	7019      	strb	r1, [r3, #0]
 800062c:	3301      	adds	r3, #1
 800062e:	429c      	cmp	r4, r3
 8000630:	d1fb      	bne.n	800062a <memset+0x92>
 8000632:	bdf0      	pop	{r4, r5, r6, r7, pc}
 8000634:	0003      	movs	r3, r0
 8000636:	0014      	movs	r4, r2
 8000638:	e7c0      	b.n	80005bc <memset+0x24>
 800063a:	0027      	movs	r7, r4
 800063c:	e7e2      	b.n	8000604 <memset+0x6c>
 800063e:	46c0      	nop			@ (mov r8, r8)

08000640 <memcpy>:
 8000640:	b5f0      	push	{r4, r5, r6, r7, lr}
 8000642:	0005      	movs	r5, r0
 8000644:	2a0f      	cmp	r2, #15
 8000646:	d931      	bls.n	80006ac <memcpy+0x6c>
 8000648:	2703      	movs	r7, #3
 800064a:	003e      	movs	r6, r7
 800064c:	430d      	orrs	r5, r1
 800064e:	000c      	movs	r4, r1
 8000650:	0003      	movs	r3, r0
 8000652:	402e      	ands	r6, r5
 8000654:	422f      	tst	r7, r5
 8000656:	d134      	bne.n	80006c2 <memcpy+0x82>
 8000658:	0015      	movs	r5, r2
 800065a:	3d10      	subs	r5, #16
 800065c:	092d      	lsrs	r5, r5, #4
 800065e:	46ac      	mov	ip, r5
 8000660:	012f      	lsls	r7, r5, #4
 8000662:	183f      	adds	r7, r7, r0
 8000664:	6865      	ldr	r5, [r4, #4]
 8000666:	605d      	str	r5, [r3, #4]
 8000668:	68a5      	ldr	r5, [r4, #8]
 800066a:	609d      	str	r5, [r3, #8]
 800066c:	68e5      	ldr	r5, [r4, #12]
 800066e:	60dd      	str	r5, [r3, #12]
 8000670:	6825      	ldr	r5, [r4, #0]
 8000672:	3410      	adds	r4, #16
 8000674:	601d      	str	r5, [r3, #0]
 8000676:	001d      	movs	r5, r3
 8000678:	3310      	adds	r3, #16
 800067a:	42bd      	cmp	r5, r7
 800067c:	d1f2      	bne.n	8000664 <memcpy+0x24>
 800067e:	4665      	mov	r5, ip
 8000680:	230f      	movs	r3, #15
 8000682:	240c      	movs	r4, #12
 8000684:	3501      	adds	r5, #1
 8000686:	012d      	lsls	r5, r5, #4
 8000688:	1949      	adds	r1, r1, r5
 800068a:	4013      	ands	r3, r2
 800068c:	1945      	adds	r5, r0, r5
 800068e:	4214      	tst	r4, r2
 8000690:	d01a      	beq.n	80006c8 <memcpy+0x88>
 8000692:	3b04      	subs	r3, #4
 8000694:	089b      	lsrs	r3, r3, #2
 8000696:	3301      	adds	r3, #1
 8000698:	009b      	lsls	r3, r3, #2
 800069a:	598c      	ldr	r4, [r1, r6]
 800069c:	51ac      	str	r4, [r5, r6]
 800069e:	3604      	adds	r6, #4
 80006a0:	429e      	cmp	r6, r3
 80006a2:	d1fa      	bne.n	800069a <memcpy+0x5a>
 80006a4:	2303      	movs	r3, #3
 80006a6:	19ad      	adds	r5, r5, r6
 80006a8:	1989      	adds	r1, r1, r6
 80006aa:	401a      	ands	r2, r3
 80006ac:	1e56      	subs	r6, r2, #1
 80006ae:	2a00      	cmp	r2, #0
 80006b0:	d006      	beq.n	80006c0 <memcpy+0x80>
 80006b2:	2300      	movs	r3, #0
 80006b4:	5ccc      	ldrb	r4, [r1, r3]
 80006b6:	001a      	movs	r2, r3
 80006b8:	54ec      	strb	r4, [r5, r3]
 80006ba:	3301      	adds	r3, #1
 80006bc:	4296      	cmp	r6, r2
 80006be:	d1f9      	bne.n	80006b4 <memcpy+0x74>
 80006c0:	bdf0      	pop	{r4, r5, r6, r7, pc}
 80006c2:	0005      	movs	r5, r0
 80006c4:	1e56      	subs	r6, r2, #1
 80006c6:	e7f4      	b.n	80006b2 <memcpy+0x72>
 80006c8:	001a      	movs	r2, r3
 80006ca:	e7ef      	b.n	80006ac <memcpy+0x6c>

080006cc <cmd_load_key>:
static uint8_t esk_loaded = 0;

/* ------------------------------------------------------------------ */

uint8_t cmd_load_key(uint8_t *k, uint8_t len)
{
 80006cc:	b510      	push	{r4, lr}
    (void)len;
    mayo_expand_sk(k);    /* derive O, L and store in g_mayo_esk */
 80006ce:	f000 f8ef 	bl	80008b0 <mayo_expand_sk>
    esk_loaded = 1;
 80006d2:	2001      	movs	r0, #1
 80006d4:	4b01      	ldr	r3, [pc, #4]	@ (80006dc <cmd_load_key+0x10>)
 80006d6:	7018      	strb	r0, [r3, #0]
    return 0x01;
}
 80006d8:	bd10      	pop	{r4, pc}
 80006da:	46c0      	nop			@ (mov r8, r8)
 80006dc:	20000024 	.word	0x20000024

080006e0 <cmd_reset>:
}

uint8_t cmd_reset(uint8_t *x, uint8_t len)
{
    (void)x; (void)len;
    memset(g_mayo_esk, 0, sizeof(g_mayo_esk));
 80006e0:	2290      	movs	r2, #144	@ 0x90
{
 80006e2:	b510      	push	{r4, lr}
    memset(g_mayo_esk, 0, sizeof(g_mayo_esk));
 80006e4:	2100      	movs	r1, #0
 80006e6:	4804      	ldr	r0, [pc, #16]	@ (80006f8 <cmd_reset+0x18>)
 80006e8:	0092      	lsls	r2, r2, #2
 80006ea:	f7ff ff55 	bl	8000598 <memset>
    esk_loaded = 0;
 80006ee:	2000      	movs	r0, #0
 80006f0:	4b02      	ldr	r3, [pc, #8]	@ (80006fc <cmd_reset+0x1c>)
 80006f2:	7018      	strb	r0, [r3, #0]
    return 0x00;
}
 80006f4:	bd10      	pop	{r4, pc}
 80006f6:	46c0      	nop			@ (mov r8, r8)
 80006f8:	2000024f 	.word	0x2000024f
 80006fc:	20000024 	.word	0x20000024

08000700 <cmd_sign>:
{
 8000700:	b570      	push	{r4, r5, r6, lr}
    if (!esk_loaded) {
 8000702:	4c12      	ldr	r4, [pc, #72]	@ (800074c <cmd_sign+0x4c>)
{
 8000704:	0005      	movs	r5, r0
    if (!esk_loaded) {
 8000706:	7823      	ldrb	r3, [r4, #0]
{
 8000708:	000e      	movs	r6, r1
    if (!esk_loaded) {
 800070a:	2b00      	cmp	r3, #0
 800070c:	d105      	bne.n	800071a <cmd_sign+0x1a>
        simpleserial_put('r', len, msg);
 800070e:	0002      	movs	r2, r0
 8000710:	2072      	movs	r0, #114	@ 0x72
 8000712:	f001 f8b1 	bl	8001878 <simpleserial_put>
        return 0x01;
 8000716:	2001      	movs	r0, #1
}
 8000718:	bd70      	pop	{r4, r5, r6, pc}
    int ret = mayo_sign(msg, len, sig_buf);
 800071a:	3401      	adds	r4, #1
    trigger_high();
 800071c:	f001 f962 	bl	80019e4 <trigger_high>
    int ret = mayo_sign(msg, len, sig_buf);
 8000720:	0028      	movs	r0, r5
 8000722:	0022      	movs	r2, r4
 8000724:	0031      	movs	r1, r6
 8000726:	f000 f96d 	bl	8000a04 <mayo_sign>
 800072a:	0005      	movs	r5, r0
    trigger_low();
 800072c:	f001 f962 	bl	80019f4 <trigger_low>
    if (ret == 0) {
 8000730:	2d00      	cmp	r5, #0
 8000732:	d106      	bne.n	8000742 <cmd_sign+0x42>
        simpleserial_put('r', MAYO_SIG_B, sig_buf);
 8000734:	0022      	movs	r2, r4
 8000736:	2142      	movs	r1, #66	@ 0x42
 8000738:	2072      	movs	r0, #114	@ 0x72
        simpleserial_put('e', 1, (uint8_t *)"\xFF");
 800073a:	f001 f89d 	bl	8001878 <simpleserial_put>
        return 0x01;
 800073e:	2000      	movs	r0, #0
 8000740:	e7ea      	b.n	8000718 <cmd_sign+0x18>
        simpleserial_put('e', 1, (uint8_t *)"\xFF");
 8000742:	2101      	movs	r1, #1
 8000744:	2065      	movs	r0, #101	@ 0x65
 8000746:	4a02      	ldr	r2, [pc, #8]	@ (8000750 <cmd_sign+0x50>)
 8000748:	e7f7      	b.n	800073a <cmd_sign+0x3a>
 800074a:	46c0      	nop			@ (mov r8, r8)
 800074c:	20000024 	.word	0x20000024
 8000750:	0800268b 	.word	0x0800268b

08000754 <main>:

/* ------------------------------------------------------------------ */

int main(void)
{
 8000754:	b510      	push	{r4, lr}
    platform_init();
 8000756:	f001 f895 	bl	8001884 <platform_init>
    init_uart();
 800075a:	f001 f8bf 	bl	80018dc <init_uart>
    trigger_setup();
 800075e:	f001 f8fd 	bl	800195c <trigger_setup>

    simpleserial_init();
 8000762:	f001 f815 	bl	8001790 <simpleserial_init>
    simpleserial_addcmd('k', MAYO_CSK_B,  cmd_load_key);
 8000766:	2110      	movs	r1, #16
 8000768:	4a08      	ldr	r2, [pc, #32]	@ (800078c <main+0x38>)
 800076a:	206b      	movs	r0, #107	@ 0x6b
 800076c:	f001 f80a 	bl	8001784 <simpleserial_addcmd>
    simpleserial_addcmd('p', MAYO_DIGEST_B, cmd_sign);
 8000770:	2110      	movs	r1, #16
 8000772:	4a07      	ldr	r2, [pc, #28]	@ (8000790 <main+0x3c>)
 8000774:	2070      	movs	r0, #112	@ 0x70
 8000776:	f001 f805 	bl	8001784 <simpleserial_addcmd>
    simpleserial_addcmd('x', 0,           cmd_reset);
 800077a:	2100      	movs	r1, #0
 800077c:	2078      	movs	r0, #120	@ 0x78
 800077e:	4a05      	ldr	r2, [pc, #20]	@ (8000794 <main+0x40>)
 8000780:	f001 f800 	bl	8001784 <simpleserial_addcmd>

    while (1)
        simpleserial_get();
 8000784:	f001 f81c 	bl	80017c0 <simpleserial_get>
    while (1)
 8000788:	e7fc      	b.n	8000784 <main+0x30>
 800078a:	46c0      	nop			@ (mov r8, r8)
 800078c:	080006cd 	.word	0x080006cd
 8000790:	08000701 	.word	0x08000701
 8000794:	080006e1 	.word	0x080006e1

08000798 <gf16_mul>:
/* 16x16 multiplication table: GF16_MUL[a*16 + b] = a*b */
extern const uint8_t GF16_MUL[256];

static inline uint8_t gf16_mul(uint8_t a, uint8_t b)
{
    return GF16_MUL[((a & 0xF) << 4) | (b & 0xF)];
 8000798:	22ff      	movs	r2, #255	@ 0xff
 800079a:	0100      	lsls	r0, r0, #4
 800079c:	4010      	ands	r0, r2
 800079e:	3af0      	subs	r2, #240	@ 0xf0
 80007a0:	4b02      	ldr	r3, [pc, #8]	@ (80007ac <gf16_mul+0x14>)
 80007a2:	4011      	ands	r1, r2
 80007a4:	4308      	orrs	r0, r1
 80007a6:	5c18      	ldrb	r0, [r3, r0]
}
 80007a8:	4770      	bx	lr
 80007aa:	46c0      	nop			@ (mov r8, r8)
 80007ac:	08002498 	.word	0x08002498

080007b0 <nibble_get>:
 *   odd  idx -> high nibble of byte idx/2
 */

static inline uint8_t nibble_get(const uint8_t *arr, int idx)
{
    return (idx & 1) ? (arr[idx >> 1] >> 4) : (arr[idx >> 1] & 0xF);
 80007b0:	104b      	asrs	r3, r1, #1
 80007b2:	5cc0      	ldrb	r0, [r0, r3]
 80007b4:	07c9      	lsls	r1, r1, #31
 80007b6:	d501      	bpl.n	80007bc <nibble_get+0xc>
 80007b8:	0900      	lsrs	r0, r0, #4
}
 80007ba:	4770      	bx	lr
    return (idx & 1) ? (arr[idx >> 1] >> 4) : (arr[idx >> 1] & 0xF);
 80007bc:	230f      	movs	r3, #15
 80007be:	4018      	ands	r0, r3
 80007c0:	e7fb      	b.n	80007ba <nibble_get+0xa>

080007c2 <decode_bs8>:
 *   bytes [4..5]  = bit-plane 2
 *   bytes [6..7]  = bit-plane 3
 */
static inline void decode_bs8(const uint8_t *bs, uint8_t out[16])
{
    for (int a = 0; a < 16; a++) {
 80007c2:	2307      	movs	r3, #7
{
 80007c4:	b5f7      	push	{r0, r1, r2, r4, r5, r6, r7, lr}
 80007c6:	469c      	mov	ip, r3
 80007c8:	9101      	str	r1, [sp, #4]
    for (int a = 0; a < 16; a++) {
 80007ca:	2100      	movs	r1, #0
        int bi = a / 8;           /* byte index within plane */
 80007cc:	4664      	mov	r4, ip
 80007ce:	10ce      	asrs	r6, r1, #3
        int bb = 7 - (a % 8);    /* bit position (MSB=element 0 within that byte) */
        uint8_t b0 = (bs[0 * 2 + bi] >> bb) & 1;
        uint8_t b1 = (bs[1 * 2 + bi] >> bb) & 1;
 80007d0:	1985      	adds	r5, r0, r6
 80007d2:	78aa      	ldrb	r2, [r5, #2]
 80007d4:	438c      	bics	r4, r1
 80007d6:	4122      	asrs	r2, r4
        uint8_t b2 = (bs[2 * 2 + bi] >> bb) & 1;
        uint8_t b3 = (bs[3 * 2 + bi] >> bb) & 1;
        out[a] = b0 | (b1 << 1) | (b2 << 2) | (b3 << 3);
 80007d8:	2302      	movs	r3, #2
 80007da:	0052      	lsls	r2, r2, #1
 80007dc:	401a      	ands	r2, r3
        uint8_t b2 = (bs[2 * 2 + bi] >> bb) & 1;
 80007de:	792b      	ldrb	r3, [r5, #4]
        out[a] = b0 | (b1 << 1) | (b2 << 2) | (b3 << 3);
 80007e0:	2704      	movs	r7, #4
        uint8_t b2 = (bs[2 * 2 + bi] >> bb) & 1;
 80007e2:	4123      	asrs	r3, r4
        out[a] = b0 | (b1 << 1) | (b2 << 2) | (b3 << 3);
 80007e4:	009b      	lsls	r3, r3, #2
 80007e6:	403b      	ands	r3, r7
 80007e8:	4313      	orrs	r3, r2
        uint8_t b0 = (bs[0 * 2 + bi] >> bb) & 1;
 80007ea:	5d82      	ldrb	r2, [r0, r6]
 80007ec:	2601      	movs	r6, #1
 80007ee:	4122      	asrs	r2, r4
 80007f0:	4032      	ands	r2, r6
        out[a] = b0 | (b1 << 1) | (b2 << 2) | (b3 << 3);
 80007f2:	431a      	orrs	r2, r3
        uint8_t b3 = (bs[3 * 2 + bi] >> bb) & 1;
 80007f4:	79ab      	ldrb	r3, [r5, #6]
 80007f6:	4123      	asrs	r3, r4
        out[a] = b0 | (b1 << 1) | (b2 << 2) | (b3 << 3);
 80007f8:	2408      	movs	r4, #8
 80007fa:	00db      	lsls	r3, r3, #3
 80007fc:	4023      	ands	r3, r4
 80007fe:	431a      	orrs	r2, r3
 8000800:	9b01      	ldr	r3, [sp, #4]
 8000802:	545a      	strb	r2, [r3, r1]
    for (int a = 0; a < 16; a++) {
 8000804:	1989      	adds	r1, r1, r6
 8000806:	2910      	cmp	r1, #16
 8000808:	d1e0      	bne.n	80007cc <decode_bs8+0xa>
    }
}
 800080a:	bdf7      	pop	{r0, r1, r2, r4, r5, r6, r7, pc}

0800080c <nibble_set>:
{
 800080c:	b510      	push	{r4, lr}
 800080e:	0013      	movs	r3, r2
        arr[idx >> 1] = (arr[idx >> 1] & 0x0F) | ((val & 0xF) << 4);
 8000810:	104a      	asrs	r2, r1, #1
 8000812:	1884      	adds	r4, r0, r2
 8000814:	5c82      	ldrb	r2, [r0, r2]
 8000816:	200f      	movs	r0, #15
    if (idx & 1)
 8000818:	07c9      	lsls	r1, r1, #31
 800081a:	d505      	bpl.n	8000828 <nibble_set+0x1c>
        arr[idx >> 1] = (arr[idx >> 1] & 0x0F) | ((val & 0xF) << 4);
 800081c:	4002      	ands	r2, r0
 800081e:	011b      	lsls	r3, r3, #4
 8000820:	431a      	orrs	r2, r3
 8000822:	b2d2      	uxtb	r2, r2
 8000824:	7022      	strb	r2, [r4, #0]
}
 8000826:	bd10      	pop	{r4, pc}
        arr[idx >> 1] = (arr[idx >> 1] & 0xF0) | (val & 0xF);
 8000828:	4382      	bics	r2, r0
 800082a:	4003      	ands	r3, r0
 800082c:	431a      	orrs	r2, r3
 800082e:	e7f9      	b.n	8000824 <nibble_set+0x18>

08000830 <nibble_add>:
{
 8000830:	b510      	push	{r4, lr}
        arr[idx >> 1] ^= (val & 0xF) << 4;
 8000832:	104b      	asrs	r3, r1, #1
 8000834:	18c4      	adds	r4, r0, r3
 8000836:	5cc3      	ldrb	r3, [r0, r3]
    if (idx & 1)
 8000838:	07c9      	lsls	r1, r1, #31
 800083a:	d504      	bpl.n	8000846 <nibble_add+0x16>
        arr[idx >> 1] ^= (val & 0xF) << 4;
 800083c:	0112      	lsls	r2, r2, #4
 800083e:	4053      	eors	r3, r2
 8000840:	b2db      	uxtb	r3, r3
 8000842:	7023      	strb	r3, [r4, #0]
}
 8000844:	bd10      	pop	{r4, pc}
        arr[idx >> 1] ^= (val & 0xF);
 8000846:	210f      	movs	r1, #15
 8000848:	400a      	ands	r2, r1
 800084a:	4053      	eors	r3, r2
 800084c:	e7f9      	b.n	8000842 <nibble_add+0x12>
 800084e:	0000      	movs	r0, r0

08000850 <add_El_M_to_A.constprop.0>:
 * (E^ell * M)_{eq, d} = M_{(eq-ell+M)%M, d}
 */
static void add_El_M_to_A(uint8_t *A, const uint8_t *M, int block, int ell)
{
    int eq, d;
    for (eq = 0; eq < MAYO_M; eq++) {
 8000850:	2320      	movs	r3, #32
static void add_El_M_to_A(uint8_t *A, const uint8_t *M, int block, int ell)
 8000852:	b5f0      	push	{r4, r5, r6, r7, lr}
 8000854:	2510      	movs	r5, #16
 8000856:	b085      	sub	sp, #20
 8000858:	1a9b      	subs	r3, r3, r2
 800085a:	9003      	str	r0, [sp, #12]
 800085c:	1aad      	subs	r5, r5, r2
 800085e:	008e      	lsls	r6, r1, #2
 8000860:	9302      	str	r3, [sp, #8]
        int src_eq = (eq - ell + MAYO_M) % MAYO_M;
 8000862:	4c11      	ldr	r4, [pc, #68]	@ (80008a8 <add_El_M_to_A.constprop.0+0x58>)
 8000864:	402c      	ands	r4, r5
 8000866:	d504      	bpl.n	8000872 <add_El_M_to_A.constprop.0+0x22>
 8000868:	2310      	movs	r3, #16
 800086a:	3c01      	subs	r4, #1
 800086c:	425b      	negs	r3, r3
 800086e:	431c      	orrs	r4, r3
 8000870:	3401      	adds	r4, #1
        for (d = 0; d < MAYO_O; d++) {
            nibble_add(A, eq * MAYO_KO + block * MAYO_O + d,
                       nibble_get(M, src_eq * MAYO_O + d));
 8000872:	0037      	movs	r7, r6
 8000874:	00a4      	lsls	r4, r4, #2
 8000876:	1d23      	adds	r3, r4, #4
 8000878:	9301      	str	r3, [sp, #4]
            nibble_add(A, eq * MAYO_KO + block * MAYO_O + d,
 800087a:	0021      	movs	r1, r4
 800087c:	9803      	ldr	r0, [sp, #12]
 800087e:	f7ff ff97 	bl	80007b0 <nibble_get>
 8000882:	4b0a      	ldr	r3, [pc, #40]	@ (80008ac <add_El_M_to_A.constprop.0+0x5c>)
 8000884:	0002      	movs	r2, r0
 8000886:	0039      	movs	r1, r7
 8000888:	0018      	movs	r0, r3
 800088a:	f7ff ffd1 	bl	8000830 <nibble_add>
        for (d = 0; d < MAYO_O; d++) {
 800088e:	9b01      	ldr	r3, [sp, #4]
 8000890:	3401      	adds	r4, #1
 8000892:	3701      	adds	r7, #1
 8000894:	429c      	cmp	r4, r3
 8000896:	d1f0      	bne.n	800087a <add_El_M_to_A.constprop.0+0x2a>
    for (eq = 0; eq < MAYO_M; eq++) {
 8000898:	9b02      	ldr	r3, [sp, #8]
 800089a:	3501      	adds	r5, #1
 800089c:	3614      	adds	r6, #20
 800089e:	429d      	cmp	r5, r3
 80008a0:	d1df      	bne.n	8000862 <add_El_M_to_A.constprop.0+0x12>
        }
    }
}
 80008a2:	b005      	add	sp, #20
 80008a4:	bdf0      	pop	{r4, r5, r6, r7, pc}
 80008a6:	46c0      	nop			@ (mov r8, r8)
 80008a8:	8000000f 	.word	0x8000000f
 80008ac:	200001af 	.word	0x200001af

080008b0 <mayo_expand_sk>:
{
 80008b0:	b5f0      	push	{r4, r5, r6, r7, lr}
    shake256_multi(seedsk, MAYO_SKSEED_B,
 80008b2:	2330      	movs	r3, #48	@ 0x30
 80008b4:	2400      	movs	r4, #0
{
 80008b6:	0005      	movs	r5, r0
 80008b8:	b0a3      	sub	sp, #140	@ 0x8c
    shake256_multi(seedsk, MAYO_SKSEED_B,
 80008ba:	ae16      	add	r6, sp, #88	@ 0x58
 80008bc:	0022      	movs	r2, r4
 80008be:	2110      	movs	r1, #16
 80008c0:	9305      	str	r3, [sp, #20]
 80008c2:	9604      	str	r6, [sp, #16]
 80008c4:	0023      	movs	r3, r4
 80008c6:	9403      	str	r4, [sp, #12]
 80008c8:	9402      	str	r4, [sp, #8]
 80008ca:	9401      	str	r4, [sp, #4]
 80008cc:	9400      	str	r4, [sp, #0]
 80008ce:	f000 fe79 	bl	80015c4 <shake256_multi>
    memcpy(g_mayo_esk + MAYO_ESK_SEEDSK_OFF, seedsk,          MAYO_SKSEED_B);
 80008d2:	0029      	movs	r1, r5
 80008d4:	2210      	movs	r2, #16
 80008d6:	4846      	ldr	r0, [pc, #280]	@ (80009f0 <mayo_expand_sk+0x140>)
 80008d8:	f7ff feb2 	bl	8000640 <memcpy>
    memcpy(g_mayo_esk + MAYO_ESK_SEEDPK_OFF, shake_out,       MAYO_PKSEED_B);
 80008dc:	2210      	movs	r2, #16
 80008de:	0031      	movs	r1, r6
 80008e0:	4844      	ldr	r0, [pc, #272]	@ (80009f4 <mayo_expand_sk+0x144>)
 80008e2:	f7ff fead 	bl	8000640 <memcpy>
    memcpy(g_mayo_esk + MAYO_ESK_O_OFF,      shake_out + MAYO_PKSEED_B, MAYO_O_B);
 80008e6:	2220      	movs	r2, #32
 80008e8:	a91a      	add	r1, sp, #104	@ 0x68
 80008ea:	4843      	ldr	r0, [pc, #268]	@ (80009f8 <mayo_expand_sk+0x148>)
 80008ec:	f7ff fea8 	bl	8000640 <memcpy>
    memset(g_mayo_esk + MAYO_ESK_L_OFF, 0, MAYO_L_B);
 80008f0:	2280      	movs	r2, #128	@ 0x80
 80008f2:	0021      	movs	r1, r4
 80008f4:	0092      	lsls	r2, r2, #2
 80008f6:	4841      	ldr	r0, [pc, #260]	@ (80009fc <mayo_expand_sk+0x14c>)
 80008f8:	f7ff fe4e 	bl	8000598 <memset>
    shake256_init(&g_shake);
 80008fc:	4d40      	ldr	r5, [pc, #256]	@ (8000a00 <mayo_expand_sk+0x150>)
 80008fe:	0028      	movs	r0, r5
 8000900:	f000 fe14 	bl	800152c <shake256_init>
    shake256_absorb(&g_shake, shake_out /* seedpk */, MAYO_PKSEED_B);
 8000904:	0028      	movs	r0, r5
 8000906:	2210      	movs	r2, #16
 8000908:	0031      	movs	r1, r6
 800090a:	f000 fe15 	bl	8001538 <shake256_absorb>
    shake256_finalize(&g_shake);
 800090e:	0028      	movs	r0, r5
 8000910:	f000 fe2c 	bl	800156c <shake256_finalize>
        for (s = r; s < MAYO_V; s++) {
 8000914:	0027      	movs	r7, r4
 8000916:	00a3      	lsls	r3, r4, #2
 8000918:	930d      	str	r3, [sp, #52]	@ 0x34
            shake256_squeeze(&g_shake, bs8, 8);
 800091a:	2208      	movs	r2, #8
 800091c:	4838      	ldr	r0, [pc, #224]	@ (8000a00 <mayo_expand_sk+0x150>)
 800091e:	a910      	add	r1, sp, #64	@ 0x40
 8000920:	f000 fe39 	bl	8001596 <shake256_squeeze>
            if (r == s) continue; /* diagonal: (P1+P1^T)[r,r] = 2*P1[r,r] = 0 */
 8000924:	42bc      	cmp	r4, r7
 8000926:	d03c      	beq.n	80009a2 <mayo_expand_sk+0xf2>
            decode_bs8(bs8, decoded); /* decoded[a] = P1_a[r,s] for a in [M] */
 8000928:	a912      	add	r1, sp, #72	@ 0x48
 800092a:	a810      	add	r0, sp, #64	@ 0x40
 800092c:	00be      	lsls	r6, r7, #2
 800092e:	f7ff ff48 	bl	80007c2 <decode_bs8>
            for (d = 0; d < MAYO_O; d++) {
 8000932:	1d33      	adds	r3, r6, #4
 8000934:	930c      	str	r3, [sp, #48]	@ 0x30
            decode_bs8(bs8, decoded); /* decoded[a] = P1_a[r,s] for a in [M] */
 8000936:	9b0d      	ldr	r3, [sp, #52]	@ 0x34
 8000938:	9307      	str	r3, [sp, #28]
                uint8_t O_s_d = nibble_get(g_mayo_esk + MAYO_ESK_O_OFF, s * MAYO_O + d);
 800093a:	4d2f      	ldr	r5, [pc, #188]	@ (80009f8 <mayo_expand_sk+0x148>)
 800093c:	0031      	movs	r1, r6
 800093e:	0028      	movs	r0, r5
 8000940:	f7ff ff36 	bl	80007b0 <nibble_get>
                uint8_t O_r_d = nibble_get(g_mayo_esk + MAYO_ESK_O_OFF, r * MAYO_O + d);
 8000944:	9907      	ldr	r1, [sp, #28]
                uint8_t O_s_d = nibble_get(g_mayo_esk + MAYO_ESK_O_OFF, s * MAYO_O + d);
 8000946:	900e      	str	r0, [sp, #56]	@ 0x38
                uint8_t O_r_d = nibble_get(g_mayo_esk + MAYO_ESK_O_OFF, r * MAYO_O + d);
 8000948:	0028      	movs	r0, r5
 800094a:	f7ff ff31 	bl	80007b0 <nibble_get>
                for (a = 0; a < MAYO_M; a++) {
 800094e:	2500      	movs	r5, #0
 8000950:	9b07      	ldr	r3, [sp, #28]
                uint8_t O_r_d = nibble_get(g_mayo_esk + MAYO_ESK_O_OFF, r * MAYO_O + d);
 8000952:	900f      	str	r0, [sp, #60]	@ 0x3c
                for (a = 0; a < MAYO_M; a++) {
 8000954:	011b      	lsls	r3, r3, #4
 8000956:	930a      	str	r3, [sp, #40]	@ 0x28
 8000958:	0133      	lsls	r3, r6, #4
 800095a:	930b      	str	r3, [sp, #44]	@ 0x2c
                    nibble_add(g_mayo_esk + MAYO_ESK_L_OFF,
 800095c:	ab12      	add	r3, sp, #72	@ 0x48
 800095e:	5ceb      	ldrb	r3, [r5, r3]
 8000960:	990e      	ldr	r1, [sp, #56]	@ 0x38
 8000962:	0018      	movs	r0, r3
 8000964:	9308      	str	r3, [sp, #32]
 8000966:	f7ff ff17 	bl	8000798 <gf16_mul>
 800096a:	9b0a      	ldr	r3, [sp, #40]	@ 0x28
 800096c:	0002      	movs	r2, r0
 800096e:	18e9      	adds	r1, r5, r3
 8000970:	4b22      	ldr	r3, [pc, #136]	@ (80009fc <mayo_expand_sk+0x14c>)
 8000972:	0018      	movs	r0, r3
 8000974:	9309      	str	r3, [sp, #36]	@ 0x24
 8000976:	f7ff ff5b 	bl	8000830 <nibble_add>
                    nibble_add(g_mayo_esk + MAYO_ESK_L_OFF,
 800097a:	990f      	ldr	r1, [sp, #60]	@ 0x3c
 800097c:	9808      	ldr	r0, [sp, #32]
 800097e:	f7ff ff0b 	bl	8000798 <gf16_mul>
 8000982:	9b0b      	ldr	r3, [sp, #44]	@ 0x2c
 8000984:	0002      	movs	r2, r0
 8000986:	18e9      	adds	r1, r5, r3
 8000988:	9809      	ldr	r0, [sp, #36]	@ 0x24
                for (a = 0; a < MAYO_M; a++) {
 800098a:	3501      	adds	r5, #1
                    nibble_add(g_mayo_esk + MAYO_ESK_L_OFF,
 800098c:	f7ff ff50 	bl	8000830 <nibble_add>
                for (a = 0; a < MAYO_M; a++) {
 8000990:	2d10      	cmp	r5, #16
 8000992:	d1e3      	bne.n	800095c <mayo_expand_sk+0xac>
            for (d = 0; d < MAYO_O; d++) {
 8000994:	9b07      	ldr	r3, [sp, #28]
 8000996:	3601      	adds	r6, #1
 8000998:	3301      	adds	r3, #1
 800099a:	9307      	str	r3, [sp, #28]
 800099c:	9b0c      	ldr	r3, [sp, #48]	@ 0x30
 800099e:	429e      	cmp	r6, r3
 80009a0:	d1cb      	bne.n	800093a <mayo_expand_sk+0x8a>
        for (s = r; s < MAYO_V; s++) {
 80009a2:	3701      	adds	r7, #1
 80009a4:	2f10      	cmp	r7, #16
 80009a6:	d1b8      	bne.n	800091a <mayo_expand_sk+0x6a>
    for (r = 0; r < MAYO_V; r++) {
 80009a8:	3401      	adds	r4, #1
 80009aa:	2c10      	cmp	r4, #16
 80009ac:	d1b2      	bne.n	8000914 <mayo_expand_sk+0x64>
 80009ae:	2600      	movs	r6, #0
        for (d = 0; d < MAYO_O; d++) {
 80009b0:	0134      	lsls	r4, r6, #4
 80009b2:	0023      	movs	r3, r4
 80009b4:	3340      	adds	r3, #64	@ 0x40
 80009b6:	3604      	adds	r6, #4
 80009b8:	9307      	str	r3, [sp, #28]
            shake256_squeeze(&g_shake, bs8, 8);
 80009ba:	2208      	movs	r2, #8
 80009bc:	4810      	ldr	r0, [pc, #64]	@ (8000a00 <mayo_expand_sk+0x150>)
 80009be:	a910      	add	r1, sp, #64	@ 0x40
            decode_bs8(bs8, decoded); /* decoded[a] = P2_a[r,d] */
 80009c0:	af12      	add	r7, sp, #72	@ 0x48
            shake256_squeeze(&g_shake, bs8, 8);
 80009c2:	f000 fde8 	bl	8001596 <shake256_squeeze>
            decode_bs8(bs8, decoded); /* decoded[a] = P2_a[r,d] */
 80009c6:	0039      	movs	r1, r7
 80009c8:	a810      	add	r0, sp, #64	@ 0x40
 80009ca:	f7ff fefa 	bl	80007c2 <decode_bs8>
            for (a = 0; a < MAYO_M; a++) {
 80009ce:	2500      	movs	r5, #0
                nibble_add(g_mayo_esk + MAYO_ESK_L_OFF,
 80009d0:	5d7a      	ldrb	r2, [r7, r5]
 80009d2:	1929      	adds	r1, r5, r4
 80009d4:	4809      	ldr	r0, [pc, #36]	@ (80009fc <mayo_expand_sk+0x14c>)
            for (a = 0; a < MAYO_M; a++) {
 80009d6:	3501      	adds	r5, #1
                nibble_add(g_mayo_esk + MAYO_ESK_L_OFF,
 80009d8:	f7ff ff2a 	bl	8000830 <nibble_add>
            for (a = 0; a < MAYO_M; a++) {
 80009dc:	2d10      	cmp	r5, #16
 80009de:	d1f7      	bne.n	80009d0 <mayo_expand_sk+0x120>
        for (d = 0; d < MAYO_O; d++) {
 80009e0:	9b07      	ldr	r3, [sp, #28]
 80009e2:	3410      	adds	r4, #16
 80009e4:	429c      	cmp	r4, r3
 80009e6:	d1e8      	bne.n	80009ba <mayo_expand_sk+0x10a>
    for (r = 0; r < MAYO_V; r++) {
 80009e8:	2e40      	cmp	r6, #64	@ 0x40
 80009ea:	d1e1      	bne.n	80009b0 <mayo_expand_sk+0x100>
}
 80009ec:	b023      	add	sp, #140	@ 0x8c
 80009ee:	bdf0      	pop	{r4, r5, r6, r7, pc}
 80009f0:	2000024f 	.word	0x2000024f
 80009f4:	2000025f 	.word	0x2000025f
 80009f8:	2000026f 	.word	0x2000026f
 80009fc:	2000028f 	.word	0x2000028f
 8000a00:	20000490 	.word	0x20000490

08000a04 <mayo_sign>:
/*  mayo_sign()                                                         */
/* ================================================================== */

int mayo_sign(const uint8_t *msg, uint8_t msg_len,
              uint8_t sig[MAYO_SIG_B])
{
 8000a04:	b5f0      	push	{r4, r5, r6, r7, lr}
    int i, j, d, a, eq, ell, ctr;

    /* -------------------------------------------------------------- */
    /* 1. Hash message                                                  */
    /* -------------------------------------------------------------- */
    shake256_multi(msg, msg_len,
 8000a06:	2400      	movs	r4, #0
 8000a08:	2510      	movs	r5, #16
{
 8000a0a:	b0d3      	sub	sp, #332	@ 0x14c
    shake256_multi(msg, msg_len,
 8000a0c:	ae1b      	add	r6, sp, #108	@ 0x6c
 8000a0e:	0023      	movs	r3, r4
{
 8000a10:	920c      	str	r2, [sp, #48]	@ 0x30
    shake256_multi(msg, msg_len,
 8000a12:	9505      	str	r5, [sp, #20]
 8000a14:	0022      	movs	r2, r4
 8000a16:	9604      	str	r6, [sp, #16]
 8000a18:	9403      	str	r4, [sp, #12]
 8000a1a:	9402      	str	r4, [sp, #8]
 8000a1c:	9401      	str	r4, [sp, #4]
 8000a1e:	9400      	str	r4, [sp, #0]
 8000a20:	f000 fdd0 	bl	80015c4 <shake256_multi>
    /* -------------------------------------------------------------- */
    /* 2. Derive salt                                                   */
    /* -------------------------------------------------------------- */
    {
        static const uint8_t zeros[MAYO_SKSEED_B]; /* R = 0^{sk_seed_b} */
        shake256_multi(M_digest, MAYO_DIGEST_B,
 8000a24:	4bc9      	ldr	r3, [pc, #804]	@ (8000d4c <mayo_sign+0x348>)
 8000a26:	af1f      	add	r7, sp, #124	@ 0x7c
 8000a28:	0029      	movs	r1, r5
 8000a2a:	0030      	movs	r0, r6
 8000a2c:	4ac8      	ldr	r2, [pc, #800]	@ (8000d50 <mayo_sign+0x34c>)
 8000a2e:	9300      	str	r3, [sp, #0]
 8000a30:	9505      	str	r5, [sp, #20]
 8000a32:	002b      	movs	r3, r5
 8000a34:	9704      	str	r7, [sp, #16]
 8000a36:	9403      	str	r4, [sp, #12]
 8000a38:	9402      	str	r4, [sp, #8]
 8000a3a:	9501      	str	r5, [sp, #4]
 8000a3c:	f000 fdc2 	bl	80015c4 <shake256_multi>
    }

    /* -------------------------------------------------------------- */
    /* 3. Derive target t                                               */
    /* -------------------------------------------------------------- */
    shake256_multi(M_digest, MAYO_DIGEST_B,
 8000a40:	2308      	movs	r3, #8
 8000a42:	9305      	str	r3, [sp, #20]
 8000a44:	ab12      	add	r3, sp, #72	@ 0x48
 8000a46:	9304      	str	r3, [sp, #16]
 8000a48:	003a      	movs	r2, r7
 8000a4a:	002b      	movs	r3, r5
 8000a4c:	0029      	movs	r1, r5
 8000a4e:	0030      	movs	r0, r6
 8000a50:	9403      	str	r4, [sp, #12]
 8000a52:	9402      	str	r4, [sp, #8]
 8000a54:	9401      	str	r4, [sp, #4]
 8000a56:	9400      	str	r4, [sp, #0]
 8000a58:	f000 fdb4 	bl	80015c4 <shake256_multi>
                   t, (MAYO_M + 1) / 2);

    /* -------------------------------------------------------------- */
    /* Signing loop (ctr = 0..255)                                     */
    /* -------------------------------------------------------------- */
    for (ctr = 0; ctr <= 255; ctr++) {
 8000a5c:	9408      	str	r4, [sp, #32]
        uint8_t ctr_byte = (uint8_t)ctr;
 8000a5e:	231f      	movs	r3, #31
 8000a60:	aa0a      	add	r2, sp, #40	@ 0x28
 8000a62:	189b      	adds	r3, r3, r2
 8000a64:	9a08      	ldr	r2, [sp, #32]

        /* ---------------------------------------------------------- */
        /* 4. Derive vinegar vectors and randomness r                  */
        /* ---------------------------------------------------------- */
        shake256_multi(M_digest, MAYO_DIGEST_B,
 8000a66:	2110      	movs	r1, #16
        uint8_t ctr_byte = (uint8_t)ctr;
 8000a68:	701a      	strb	r2, [r3, #0]
        shake256_multi(M_digest, MAYO_DIGEST_B,
 8000a6a:	2232      	movs	r2, #50	@ 0x32
 8000a6c:	9205      	str	r2, [sp, #20]
 8000a6e:	aa27      	add	r2, sp, #156	@ 0x9c
 8000a70:	9204      	str	r2, [sp, #16]
 8000a72:	2201      	movs	r2, #1
 8000a74:	9302      	str	r3, [sp, #8]
 8000a76:	4bb5      	ldr	r3, [pc, #724]	@ (8000d4c <mayo_sign+0x348>)
 8000a78:	9203      	str	r2, [sp, #12]
 8000a7a:	9300      	str	r3, [sp, #0]
 8000a7c:	9101      	str	r1, [sp, #4]
 8000a7e:	000b      	movs	r3, r1
 8000a80:	aa1f      	add	r2, sp, #124	@ 0x7c
 8000a82:	a81b      	add	r0, sp, #108	@ 0x6c
 8000a84:	f000 fd9e 	bl	80015c4 <shake256_multi>
        /* V_buf[i*V_B .. (i+1)*V_B - 1] = nibble-packed vi           */

        /* ---------------------------------------------------------- */
        /* 5. Compute all Mi  (from L and vi)                         */
        /* ---------------------------------------------------------- */
        for (i = 0; i < MAYO_K; i++) {
 8000a88:	2500      	movs	r5, #0
            compute_Mi(g_Mi[i],
 8000a8a:	4bb2      	ldr	r3, [pc, #712]	@ (8000d54 <mayo_sign+0x350>)
    memset(Mi, 0, MAYO_M * MAYO_O / 2);
 8000a8c:	2100      	movs	r1, #0
 8000a8e:	930b      	str	r3, [sp, #44]	@ 0x2c
            compute_Mi(g_Mi[i],
 8000a90:	9a0b      	ldr	r2, [sp, #44]	@ 0x2c
 8000a92:	016b      	lsls	r3, r5, #5
 8000a94:	189b      	adds	r3, r3, r2
 8000a96:	9309      	str	r3, [sp, #36]	@ 0x24
 8000a98:	aa27      	add	r2, sp, #156	@ 0x9c
 8000a9a:	00eb      	lsls	r3, r5, #3
 8000a9c:	189b      	adds	r3, r3, r2
    memset(Mi, 0, MAYO_M * MAYO_O / 2);
 8000a9e:	9809      	ldr	r0, [sp, #36]	@ 0x24
 8000aa0:	2220      	movs	r2, #32
            compute_Mi(g_Mi[i],
 8000aa2:	930d      	str	r3, [sp, #52]	@ 0x34
    for (r = 0; r < MAYO_V; r++) {
 8000aa4:	2400      	movs	r4, #0
    memset(Mi, 0, MAYO_M * MAYO_O / 2);
 8000aa6:	f7ff fd77 	bl	8000598 <memset>
        uint8_t vr = nibble_get(vi, r);
 8000aaa:	0021      	movs	r1, r4
 8000aac:	980d      	ldr	r0, [sp, #52]	@ 0x34
 8000aae:	f7ff fe7f 	bl	80007b0 <nibble_get>
 8000ab2:	900a      	str	r0, [sp, #40]	@ 0x28
        if (vr == 0) continue;
 8000ab4:	2800      	cmp	r0, #0
 8000ab6:	d020      	beq.n	8000afa <mayo_sign+0xf6>
        for (d = 0; d < MAYO_O; d++) {
 8000ab8:	2600      	movs	r6, #0
 8000aba:	01a3      	lsls	r3, r4, #6
 8000abc:	9307      	str	r3, [sp, #28]
    for (r = 0; r < MAYO_V; r++) {
 8000abe:	0037      	movs	r7, r6
 8000ac0:	9b07      	ldr	r3, [sp, #28]
 8000ac2:	9306      	str	r3, [sp, #24]
                uint8_t l_val = nibble_get(L, (r * MAYO_O + d) * MAYO_M + eq);
 8000ac4:	9906      	ldr	r1, [sp, #24]
 8000ac6:	48a4      	ldr	r0, [pc, #656]	@ (8000d58 <mayo_sign+0x354>)
 8000ac8:	f7ff fe72 	bl	80007b0 <nibble_get>
 8000acc:	0001      	movs	r1, r0
                nibble_add(Mi, eq * MAYO_O + d, gf16_mul(vr, l_val));
 8000ace:	980a      	ldr	r0, [sp, #40]	@ 0x28
 8000ad0:	f7ff fe62 	bl	8000798 <gf16_mul>
 8000ad4:	0039      	movs	r1, r7
 8000ad6:	0002      	movs	r2, r0
 8000ad8:	9809      	ldr	r0, [sp, #36]	@ 0x24
 8000ada:	f7ff fea9 	bl	8000830 <nibble_add>
            for (eq = 0; eq < MAYO_M; eq++) {
 8000ade:	9b06      	ldr	r3, [sp, #24]
 8000ae0:	3704      	adds	r7, #4
 8000ae2:	3301      	adds	r3, #1
 8000ae4:	9306      	str	r3, [sp, #24]
 8000ae6:	0033      	movs	r3, r6
 8000ae8:	3340      	adds	r3, #64	@ 0x40
 8000aea:	429f      	cmp	r7, r3
 8000aec:	d1ea      	bne.n	8000ac4 <mayo_sign+0xc0>
        for (d = 0; d < MAYO_O; d++) {
 8000aee:	9b07      	ldr	r3, [sp, #28]
 8000af0:	3601      	adds	r6, #1
 8000af2:	3310      	adds	r3, #16
 8000af4:	9307      	str	r3, [sp, #28]
 8000af6:	2e04      	cmp	r6, #4
 8000af8:	d1e1      	bne.n	8000abe <mayo_sign+0xba>
    for (r = 0; r < MAYO_V; r++) {
 8000afa:	3401      	adds	r4, #1
 8000afc:	2c10      	cmp	r4, #16
 8000afe:	d1d4      	bne.n	8000aaa <mayo_sign+0xa6>
        for (i = 0; i < MAYO_K; i++) {
 8000b00:	3501      	adds	r5, #1
 8000b02:	2d05      	cmp	r5, #5
 8000b04:	d1c1      	bne.n	8000a8a <mayo_sign+0x86>
        }

        /* ---------------------------------------------------------- */
        /* 6. Single-pass P1 stream: compute u_all[ell] for all pairs */
        /* ---------------------------------------------------------- */
        memset(u_all, 0, sizeof(u_all));
 8000b06:	2278      	movs	r2, #120	@ 0x78
 8000b08:	2100      	movs	r1, #0
 8000b0a:	a834      	add	r0, sp, #208	@ 0xd0
 8000b0c:	f7ff fd44 	bl	8000598 <memset>

        /* Re-init SHAKE256 with seedpk for P1 stream */
        shake256_init(&g_shake);
 8000b10:	4d92      	ldr	r5, [pc, #584]	@ (8000d5c <mayo_sign+0x358>)
        shake256_absorb(&g_shake, g_mayo_esk + MAYO_ESK_SEEDPK_OFF, MAYO_PKSEED_B);
        shake256_finalize(&g_shake);

        {
            int r_idx, s_idx;
            for (r_idx = 0; r_idx < MAYO_V; r_idx++) {
 8000b12:	2700      	movs	r7, #0
        shake256_init(&g_shake);
 8000b14:	0028      	movs	r0, r5
 8000b16:	f000 fd09 	bl	800152c <shake256_init>
        shake256_absorb(&g_shake, g_mayo_esk + MAYO_ESK_SEEDPK_OFF, MAYO_PKSEED_B);
 8000b1a:	0022      	movs	r2, r4
 8000b1c:	0028      	movs	r0, r5
 8000b1e:	4990      	ldr	r1, [pc, #576]	@ (8000d60 <mayo_sign+0x35c>)
 8000b20:	f000 fd0a 	bl	8001538 <shake256_absorb>
        shake256_finalize(&g_shake);
 8000b24:	0028      	movs	r0, r5
 8000b26:	f000 fd21 	bl	800156c <shake256_finalize>
                for (s_idx = r_idx; s_idx < MAYO_V; s_idx++) {
 8000b2a:	9706      	str	r7, [sp, #24]
                    shake256_squeeze(&g_shake, bs8, 8);
 8000b2c:	2208      	movs	r2, #8
 8000b2e:	488b      	ldr	r0, [pc, #556]	@ (8000d5c <mayo_sign+0x358>)
 8000b30:	a916      	add	r1, sp, #88	@ 0x58
 8000b32:	f000 fd30 	bl	8001596 <shake256_squeeze>

                    /* Skip diagonal (cancelled in P1+P1^T anyway) */
                    if (r_idx == s_idx) continue;
 8000b36:	9b06      	ldr	r3, [sp, #24]
 8000b38:	429f      	cmp	r7, r3
 8000b3a:	d03c      	beq.n	8000bb6 <mayo_sign+0x1b2>

                    decode_bs8(bs8, decoded); /* decoded[a] = P1_a[r,s] */
 8000b3c:	a923      	add	r1, sp, #140	@ 0x8c
 8000b3e:	a816      	add	r0, sp, #88	@ 0x58
 8000b40:	f7ff fe3f 	bl	80007c2 <decode_bs8>

                    ell = 0;
 8000b44:	2300      	movs	r3, #0
                    for (i = 0; i < MAYO_K; i++) {
 8000b46:	001e      	movs	r6, r3
                    ell = 0;
 8000b48:	9309      	str	r3, [sp, #36]	@ 0x24
                        for (j = MAYO_K - 1; j >= i; j--) {
                            /* coeff = vi[r]*vj[s] + vj[r]*vi[s]  */
                            uint8_t vir = nibble_get(V_buf + i * MAYO_V_B, r_idx);
 8000b4a:	aa27      	add	r2, sp, #156	@ 0x9c
 8000b4c:	00f3      	lsls	r3, r6, #3
 8000b4e:	189b      	adds	r3, r3, r2
 8000b50:	930d      	str	r3, [sp, #52]	@ 0x34
 8000b52:	9b09      	ldr	r3, [sp, #36]	@ 0x24
 8000b54:	aa34      	add	r2, sp, #208	@ 0xd0
 8000b56:	00db      	lsls	r3, r3, #3
 8000b58:	18d3      	adds	r3, r2, r3
 8000b5a:	930a      	str	r3, [sp, #40]	@ 0x28
                        for (j = MAYO_K - 1; j >= i; j--) {
 8000b5c:	2304      	movs	r3, #4
 8000b5e:	9307      	str	r3, [sp, #28]
                            uint8_t vir = nibble_get(V_buf + i * MAYO_V_B, r_idx);
 8000b60:	0039      	movs	r1, r7
 8000b62:	980d      	ldr	r0, [sp, #52]	@ 0x34
 8000b64:	f7ff fe24 	bl	80007b0 <nibble_get>
                            uint8_t vis = nibble_get(V_buf + i * MAYO_V_B, s_idx);
 8000b68:	9906      	ldr	r1, [sp, #24]
                            uint8_t vir = nibble_get(V_buf + i * MAYO_V_B, r_idx);
 8000b6a:	0005      	movs	r5, r0
                            uint8_t vis = nibble_get(V_buf + i * MAYO_V_B, s_idx);
 8000b6c:	980d      	ldr	r0, [sp, #52]	@ 0x34
 8000b6e:	f7ff fe1f 	bl	80007b0 <nibble_get>
                            uint8_t vjr = nibble_get(V_buf + j * MAYO_V_B, r_idx);
 8000b72:	9b07      	ldr	r3, [sp, #28]
 8000b74:	aa27      	add	r2, sp, #156	@ 0x9c
 8000b76:	00db      	lsls	r3, r3, #3
 8000b78:	189b      	adds	r3, r3, r2
 8000b7a:	930e      	str	r3, [sp, #56]	@ 0x38
                            uint8_t vjs = nibble_get(V_buf + j * MAYO_V_B, s_idx);
                            uint8_t coeff;
                            if (i == j) {
 8000b7c:	9b07      	ldr	r3, [sp, #28]
                            uint8_t vis = nibble_get(V_buf + i * MAYO_V_B, s_idx);
 8000b7e:	0004      	movs	r4, r0
                            if (i == j) {
 8000b80:	429e      	cmp	r6, r3
 8000b82:	d000      	beq.n	8000b86 <mayo_sign+0x182>
 8000b84:	e0be      	b.n	8000d04 <mayo_sign+0x300>
                                coeff = gf16_mul(vir, vis); /* vi[r]*vi[s] */
 8000b86:	0001      	movs	r1, r0
 8000b88:	0028      	movs	r0, r5
 8000b8a:	f7ff fe05 	bl	8000798 <gf16_mul>
 8000b8e:	0005      	movs	r5, r0
                            } else {
                                coeff = gf16_mul(vir, vjs) ^ gf16_mul(vjr, vis);
                            }
                            if (coeff != 0) {
 8000b90:	2d00      	cmp	r5, #0
 8000b92:	d000      	beq.n	8000b96 <mayo_sign+0x192>
 8000b94:	e0cb      	b.n	8000d2e <mayo_sign+0x32a>
                        for (j = MAYO_K - 1; j >= i; j--) {
 8000b96:	9b07      	ldr	r3, [sp, #28]
 8000b98:	3b01      	subs	r3, #1
 8000b9a:	9307      	str	r3, [sp, #28]
 8000b9c:	9b0a      	ldr	r3, [sp, #40]	@ 0x28
 8000b9e:	3308      	adds	r3, #8
 8000ba0:	930a      	str	r3, [sp, #40]	@ 0x28
 8000ba2:	9b07      	ldr	r3, [sp, #28]
 8000ba4:	42b3      	cmp	r3, r6
 8000ba6:	dadb      	bge.n	8000b60 <mayo_sign+0x15c>
 8000ba8:	9b09      	ldr	r3, [sp, #36]	@ 0x24
 8000baa:	3305      	adds	r3, #5
 8000bac:	1b9b      	subs	r3, r3, r6
                    for (i = 0; i < MAYO_K; i++) {
 8000bae:	3601      	adds	r6, #1
 8000bb0:	9309      	str	r3, [sp, #36]	@ 0x24
 8000bb2:	2e05      	cmp	r6, #5
 8000bb4:	d1c9      	bne.n	8000b4a <mayo_sign+0x146>
                for (s_idx = r_idx; s_idx < MAYO_V; s_idx++) {
 8000bb6:	9b06      	ldr	r3, [sp, #24]
 8000bb8:	3301      	adds	r3, #1
 8000bba:	9306      	str	r3, [sp, #24]
 8000bbc:	2b10      	cmp	r3, #16
 8000bbe:	d1b5      	bne.n	8000b2c <mayo_sign+0x128>
            for (r_idx = 0; r_idx < MAYO_V; r_idx++) {
 8000bc0:	3701      	adds	r7, #1
 8000bc2:	2f10      	cmp	r7, #16
 8000bc4:	d1b1      	bne.n	8000b2a <mayo_sign+0x126>
         * (For diagonal r=s we already called aes_ctr_read8 above.)  */

        /* ---------------------------------------------------------- */
        /* 7. Build A and y                                            */
        /* ---------------------------------------------------------- */
        memset(g_A, 0, sizeof(g_A));
 8000bc6:	22a0      	movs	r2, #160	@ 0xa0
 8000bc8:	2100      	movs	r1, #0
 8000bca:	4866      	ldr	r0, [pc, #408]	@ (8000d64 <mayo_sign+0x360>)
 8000bcc:	f7ff fce4 	bl	8000598 <memset>
        memcpy(y, t, sizeof(t));
 8000bd0:	2208      	movs	r2, #8
 8000bd2:	a912      	add	r1, sp, #72	@ 0x48
 8000bd4:	a814      	add	r0, sp, #80	@ 0x50
 8000bd6:	f7ff fd33 	bl	8000640 <memcpy>

        ell = 0;
 8000bda:	2300      	movs	r3, #0
        for (i = 0; i < MAYO_K; i++) {
 8000bdc:	001c      	movs	r4, r3
        ell = 0;
 8000bde:	9306      	str	r3, [sp, #24]
        int src = (eq - ell + MAYO_M) % MAYO_M;
 8000be0:	970a      	str	r7, [sp, #40]	@ 0x28
            for (j = MAYO_K - 1; j >= i; j--) {
 8000be2:	2504      	movs	r5, #4
                /* A[:,i*O:(i+1)*O] += E^ell * Mj */
                add_El_M_to_A(g_A, g_Mi[j], i, ell);

                if (i != j) {
                    /* A[:,j*O:(j+1)*O] += E^ell * Mi */
                    add_El_M_to_A(g_A, g_Mi[i], j, ell);
 8000be4:	9a0b      	ldr	r2, [sp, #44]	@ 0x2c
 8000be6:	0163      	lsls	r3, r4, #5
 8000be8:	189b      	adds	r3, r3, r2
 8000bea:	9e06      	ldr	r6, [sp, #24]
 8000bec:	9309      	str	r3, [sp, #36]	@ 0x24
    for (eq = 0; eq < MAYO_M; eq++) {
 8000bee:	2700      	movs	r7, #0
                subtract_El_u(y, u_all[ell], ell);
 8000bf0:	00f3      	lsls	r3, r6, #3
 8000bf2:	aa34      	add	r2, sp, #208	@ 0xd0
 8000bf4:	189b      	adds	r3, r3, r2
 8000bf6:	9307      	str	r3, [sp, #28]
        int src = (eq - ell + MAYO_M) % MAYO_M;
 8000bf8:	9b0a      	ldr	r3, [sp, #40]	@ 0x28
 8000bfa:	1b9b      	subs	r3, r3, r6
 8000bfc:	930d      	str	r3, [sp, #52]	@ 0x34
 8000bfe:	9b0d      	ldr	r3, [sp, #52]	@ 0x34
 8000c00:	19d9      	adds	r1, r3, r7
 8000c02:	4b59      	ldr	r3, [pc, #356]	@ (8000d68 <mayo_sign+0x364>)
 8000c04:	4019      	ands	r1, r3
 8000c06:	d504      	bpl.n	8000c12 <mayo_sign+0x20e>
 8000c08:	2310      	movs	r3, #16
 8000c0a:	3901      	subs	r1, #1
 8000c0c:	425b      	negs	r3, r3
 8000c0e:	4319      	orrs	r1, r3
 8000c10:	3101      	adds	r1, #1
        nibble_add(y, eq, nibble_get(u, src));
 8000c12:	9807      	ldr	r0, [sp, #28]
 8000c14:	f7ff fdcc 	bl	80007b0 <nibble_get>
 8000c18:	0039      	movs	r1, r7
 8000c1a:	0002      	movs	r2, r0
    for (eq = 0; eq < MAYO_M; eq++) {
 8000c1c:	3701      	adds	r7, #1
        nibble_add(y, eq, nibble_get(u, src));
 8000c1e:	a814      	add	r0, sp, #80	@ 0x50
 8000c20:	f7ff fe06 	bl	8000830 <nibble_add>
    for (eq = 0; eq < MAYO_M; eq++) {
 8000c24:	2f10      	cmp	r7, #16
 8000c26:	d1ea      	bne.n	8000bfe <mayo_sign+0x1fa>
                add_El_M_to_A(g_A, g_Mi[j], i, ell);
 8000c28:	9b0b      	ldr	r3, [sp, #44]	@ 0x2c
 8000c2a:	0168      	lsls	r0, r5, #5
 8000c2c:	0032      	movs	r2, r6
 8000c2e:	0021      	movs	r1, r4
 8000c30:	18c0      	adds	r0, r0, r3
 8000c32:	f7ff fe0d 	bl	8000850 <add_El_M_to_A.constprop.0>
                if (i != j) {
 8000c36:	42ac      	cmp	r4, r5
 8000c38:	d004      	beq.n	8000c44 <mayo_sign+0x240>
                    add_El_M_to_A(g_A, g_Mi[i], j, ell);
 8000c3a:	0032      	movs	r2, r6
 8000c3c:	0029      	movs	r1, r5
 8000c3e:	9809      	ldr	r0, [sp, #36]	@ 0x24
 8000c40:	f7ff fe06 	bl	8000850 <add_El_M_to_A.constprop.0>
            for (j = MAYO_K - 1; j >= i; j--) {
 8000c44:	3d01      	subs	r5, #1
                }
                ell++;
 8000c46:	3601      	adds	r6, #1
            for (j = MAYO_K - 1; j >= i; j--) {
 8000c48:	42a5      	cmp	r5, r4
 8000c4a:	dad0      	bge.n	8000bee <mayo_sign+0x1ea>
 8000c4c:	9b06      	ldr	r3, [sp, #24]
 8000c4e:	3305      	adds	r3, #5
 8000c50:	1b1b      	subs	r3, r3, r4
        for (i = 0; i < MAYO_K; i++) {
 8000c52:	3401      	adds	r4, #1
 8000c54:	9306      	str	r3, [sp, #24]
 8000c56:	2c05      	cmp	r4, #5
 8000c58:	d1c3      	bne.n	8000be2 <mayo_sign+0x1de>
    for (eq = 0; eq < MAYO_M; eq++) {
 8000c5a:	2500      	movs	r5, #0
            /* Work on a copy of A and y since gauss_elim is destructive */
            static uint8_t A_copy[MAYO_M * MAYO_KO / 2];
            static uint8_t y_copy[MAYO_M / 2];
            uint8_t x[( MAYO_KO + 1) / 2];

            memcpy(A_copy, g_A, sizeof(g_A));
 8000c5c:	22a0      	movs	r2, #160	@ 0xa0
 8000c5e:	4941      	ldr	r1, [pc, #260]	@ (8000d64 <mayo_sign+0x360>)
 8000c60:	4842      	ldr	r0, [pc, #264]	@ (8000d6c <mayo_sign+0x368>)
 8000c62:	f7ff fced 	bl	8000640 <memcpy>
            memcpy(y_copy, y,   sizeof(y));
 8000c66:	2208      	movs	r2, #8
 8000c68:	4841      	ldr	r0, [pc, #260]	@ (8000d70 <mayo_sign+0x36c>)
 8000c6a:	a914      	add	r1, sp, #80	@ 0x50
 8000c6c:	f7ff fce8 	bl	8000640 <memcpy>
    memcpy(x_out, r_nibbles, (MAYO_KO + 1) / 2);
 8000c70:	aa18      	add	r2, sp, #96	@ 0x60
 8000c72:	ab31      	add	r3, sp, #196	@ 0xc4
 8000c74:	cb11      	ldmia	r3!, {r0, r4}
 8000c76:	c211      	stmia	r2!, {r0, r4}
 8000c78:	881b      	ldrh	r3, [r3, #0]
 8000c7a:	8013      	strh	r3, [r2, #0]
        uint8_t t = 0;
 8000c7c:	2600      	movs	r6, #0
 8000c7e:	2714      	movs	r7, #20
        for (col = 0; col < MAYO_KO; col++)
 8000c80:	0034      	movs	r4, r6
 8000c82:	436f      	muls	r7, r5
            t ^= gf16_mul(nibble_get(A, eq * MAYO_KO + col),
 8000c84:	4b39      	ldr	r3, [pc, #228]	@ (8000d6c <mayo_sign+0x368>)
 8000c86:	9306      	str	r3, [sp, #24]
 8000c88:	19e1      	adds	r1, r4, r7
 8000c8a:	9806      	ldr	r0, [sp, #24]
 8000c8c:	f7ff fd90 	bl	80007b0 <nibble_get>
 8000c90:	0021      	movs	r1, r4
 8000c92:	9007      	str	r0, [sp, #28]
 8000c94:	a831      	add	r0, sp, #196	@ 0xc4
 8000c96:	f7ff fd8b 	bl	80007b0 <nibble_get>
 8000c9a:	0001      	movs	r1, r0
 8000c9c:	9807      	ldr	r0, [sp, #28]
 8000c9e:	f7ff fd7b 	bl	8000798 <gf16_mul>
        for (col = 0; col < MAYO_KO; col++)
 8000ca2:	3401      	adds	r4, #1
            t ^= gf16_mul(nibble_get(A, eq * MAYO_KO + col),
 8000ca4:	4046      	eors	r6, r0
 8000ca6:	b2f6      	uxtb	r6, r6
        for (col = 0; col < MAYO_KO; col++)
 8000ca8:	2c14      	cmp	r4, #20
 8000caa:	d1ed      	bne.n	8000c88 <mayo_sign+0x284>
        nibble_add(y, eq, t);
 8000cac:	0029      	movs	r1, r5
 8000cae:	0032      	movs	r2, r6
 8000cb0:	482f      	ldr	r0, [pc, #188]	@ (8000d70 <mayo_sign+0x36c>)
    for (eq = 0; eq < MAYO_M; eq++) {
 8000cb2:	3501      	adds	r5, #1
        nibble_add(y, eq, t);
 8000cb4:	f7ff fdbc 	bl	8000830 <nibble_add>
    for (eq = 0; eq < MAYO_M; eq++) {
 8000cb8:	2d10      	cmp	r5, #16
 8000cba:	d1df      	bne.n	8000c7c <mayo_sign+0x278>
 8000cbc:	2300      	movs	r3, #0
    int pr = 0, pc = 0; /* pivot row, pivot column */
 8000cbe:	001f      	movs	r7, r3
 8000cc0:	9306      	str	r3, [sp, #24]
            if (nibble_get(A, i * MAYO_KO + pc) != 0) { next = i; break; }
 8000cc2:	9409      	str	r4, [sp, #36]	@ 0x24
        for (i = pr; i < MAYO_M; i++) {
 8000cc4:	003c      	movs	r4, r7
            if (nibble_get(A, i * MAYO_KO + pc) != 0) { next = i; break; }
 8000cc6:	4e29      	ldr	r6, [pc, #164]	@ (8000d6c <mayo_sign+0x368>)
 8000cc8:	9d09      	ldr	r5, [sp, #36]	@ 0x24
 8000cca:	9b06      	ldr	r3, [sp, #24]
 8000ccc:	4365      	muls	r5, r4
 8000cce:	0030      	movs	r0, r6
 8000cd0:	18e9      	adds	r1, r5, r3
 8000cd2:	f7ff fd6d 	bl	80007b0 <nibble_get>
 8000cd6:	2800      	cmp	r0, #0
 8000cd8:	d000      	beq.n	8000cdc <mayo_sign+0x2d8>
 8000cda:	e0be      	b.n	8000e5a <mayo_sign+0x456>
        for (i = pr; i < MAYO_M; i++) {
 8000cdc:	3401      	adds	r4, #1
 8000cde:	2c10      	cmp	r4, #16
 8000ce0:	d1f2      	bne.n	8000cc8 <mayo_sign+0x2c4>
    while (pr < MAYO_M && pc < MAYO_KO) {
 8000ce2:	9b06      	ldr	r3, [sp, #24]
 8000ce4:	3301      	adds	r3, #1
 8000ce6:	9306      	str	r3, [sp, #24]
 8000ce8:	2b14      	cmp	r3, #20
 8000cea:	d1eb      	bne.n	8000cc4 <mayo_sign+0x2c0>
    for (ctr = 0; ctr <= 255; ctr++) {
 8000cec:	9b08      	ldr	r3, [sp, #32]
 8000cee:	3301      	adds	r3, #1
 8000cf0:	9308      	str	r3, [sp, #32]
 8000cf2:	2380      	movs	r3, #128	@ 0x80
 8000cf4:	9a08      	ldr	r2, [sp, #32]
 8000cf6:	005b      	lsls	r3, r3, #1
 8000cf8:	429a      	cmp	r2, r3
 8000cfa:	d000      	beq.n	8000cfe <mayo_sign+0x2fa>
 8000cfc:	e6af      	b.n	8000a5e <mayo_sign+0x5a>
                return 0;
            }
        }
    }

    return -1; /* all 256 attempts failed */
 8000cfe:	2001      	movs	r0, #1
 8000d00:	4240      	negs	r0, r0
 8000d02:	e0a0      	b.n	8000e46 <mayo_sign+0x442>
                            uint8_t vjr = nibble_get(V_buf + j * MAYO_V_B, r_idx);
 8000d04:	0039      	movs	r1, r7
 8000d06:	980e      	ldr	r0, [sp, #56]	@ 0x38
 8000d08:	f7ff fd52 	bl	80007b0 <nibble_get>
                            uint8_t vjs = nibble_get(V_buf + j * MAYO_V_B, s_idx);
 8000d0c:	9906      	ldr	r1, [sp, #24]
                            uint8_t vjr = nibble_get(V_buf + j * MAYO_V_B, r_idx);
 8000d0e:	900f      	str	r0, [sp, #60]	@ 0x3c
                            uint8_t vjs = nibble_get(V_buf + j * MAYO_V_B, s_idx);
 8000d10:	980e      	ldr	r0, [sp, #56]	@ 0x38
 8000d12:	f7ff fd4d 	bl	80007b0 <nibble_get>
 8000d16:	0001      	movs	r1, r0
                                coeff = gf16_mul(vir, vjs) ^ gf16_mul(vjr, vis);
 8000d18:	0028      	movs	r0, r5
 8000d1a:	f7ff fd3d 	bl	8000798 <gf16_mul>
 8000d1e:	0021      	movs	r1, r4
 8000d20:	0005      	movs	r5, r0
 8000d22:	980f      	ldr	r0, [sp, #60]	@ 0x3c
 8000d24:	f7ff fd38 	bl	8000798 <gf16_mul>
 8000d28:	4045      	eors	r5, r0
 8000d2a:	b2ed      	uxtb	r5, r5
 8000d2c:	e730      	b.n	8000b90 <mayo_sign+0x18c>
                                for (a = 0; a < MAYO_M; a++) {
 8000d2e:	2400      	movs	r4, #0
                                    nibble_add(u_all[ell], a,
 8000d30:	ab23      	add	r3, sp, #140	@ 0x8c
 8000d32:	5ce1      	ldrb	r1, [r4, r3]
 8000d34:	0028      	movs	r0, r5
 8000d36:	f7ff fd2f 	bl	8000798 <gf16_mul>
 8000d3a:	0021      	movs	r1, r4
 8000d3c:	0002      	movs	r2, r0
                                for (a = 0; a < MAYO_M; a++) {
 8000d3e:	3401      	adds	r4, #1
                                    nibble_add(u_all[ell], a,
 8000d40:	980a      	ldr	r0, [sp, #40]	@ 0x28
 8000d42:	f7ff fd75 	bl	8000830 <nibble_add>
                                for (a = 0; a < MAYO_M; a++) {
 8000d46:	2c10      	cmp	r4, #16
 8000d48:	d1f2      	bne.n	8000d30 <mayo_sign+0x32c>
 8000d4a:	e724      	b.n	8000b96 <mayo_sign+0x192>
 8000d4c:	2000024f 	.word	0x2000024f
 8000d50:	08002488 	.word	0x08002488
 8000d54:	2000010f 	.word	0x2000010f
 8000d58:	2000028f 	.word	0x2000028f
 8000d5c:	20000490 	.word	0x20000490
 8000d60:	2000025f 	.word	0x2000025f
 8000d64:	200001af 	.word	0x200001af
 8000d68:	8000000f 	.word	0x8000000f
 8000d6c:	2000006f 	.word	0x2000006f
 8000d70:	20000067 	.word	0x20000067
        for (col = 0; col < MAYO_KO; col++) {
 8000d74:	3401      	adds	r4, #1
 8000d76:	2c14      	cmp	r4, #20
 8000d78:	d01d      	beq.n	8000db6 <mayo_sign+0x3b2>
            if (nibble_get(A, eq * MAYO_KO + col) == 1) {
 8000d7a:	9b07      	ldr	r3, [sp, #28]
 8000d7c:	9806      	ldr	r0, [sp, #24]
 8000d7e:	1919      	adds	r1, r3, r4
 8000d80:	f7ff fd16 	bl	80007b0 <nibble_get>
 8000d84:	2801      	cmp	r0, #1
 8000d86:	d1f5      	bne.n	8000d74 <mayo_sign+0x370>
                for (i = 0; i < MAYO_M; i++) {
 8000d88:	2600      	movs	r6, #0
                    if (i != eq && nibble_get(A, i * MAYO_KO + col) != 0) {
 8000d8a:	42b5      	cmp	r5, r6
 8000d8c:	d007      	beq.n	8000d9e <mayo_sign+0x39a>
 8000d8e:	0039      	movs	r1, r7
 8000d90:	4371      	muls	r1, r6
 8000d92:	9806      	ldr	r0, [sp, #24]
 8000d94:	1909      	adds	r1, r1, r4
 8000d96:	f7ff fd0b 	bl	80007b0 <nibble_get>
 8000d9a:	2800      	cmp	r0, #0
 8000d9c:	d1ea      	bne.n	8000d74 <mayo_sign+0x370>
                for (i = 0; i < MAYO_M; i++) {
 8000d9e:	3601      	adds	r6, #1
 8000da0:	2e10      	cmp	r6, #16
 8000da2:	d1f2      	bne.n	8000d8a <mayo_sign+0x386>
                    nibble_add(x_out, col, nibble_get(y, eq));
 8000da4:	0029      	movs	r1, r5
 8000da6:	4889      	ldr	r0, [pc, #548]	@ (8000fcc <mayo_sign+0x5c8>)
 8000da8:	f7ff fd02 	bl	80007b0 <nibble_get>
 8000dac:	0021      	movs	r1, r4
 8000dae:	0002      	movs	r2, r0
 8000db0:	a818      	add	r0, sp, #96	@ 0x60
 8000db2:	f7ff fd3d 	bl	8000830 <nibble_add>
    for (eq = 0; eq < MAYO_M; eq++) {
 8000db6:	3501      	adds	r5, #1
 8000db8:	2d10      	cmp	r5, #16
 8000dba:	d000      	beq.n	8000dbe <mayo_sign+0x3ba>
 8000dbc:	e0fe      	b.n	8000fbc <mayo_sign+0x5b8>
                memset(sig, 0, MAYO_SIG_B);
 8000dbe:	2242      	movs	r2, #66	@ 0x42
 8000dc0:	2100      	movs	r1, #0
 8000dc2:	980c      	ldr	r0, [sp, #48]	@ 0x30
 8000dc4:	f7ff fbe8 	bl	8000598 <memset>
 8000dc8:	2500      	movs	r5, #0
                            s_eq = nibble_get(V_buf + i * MAYO_V_B, eq);
 8000dca:	006b      	lsls	r3, r5, #1
 8000dcc:	aa27      	add	r2, sp, #156	@ 0x9c
 8000dce:	18d3      	adds	r3, r2, r3
 8000dd0:	9307      	str	r3, [sp, #28]
 8000dd2:	2305      	movs	r3, #5
                    for (eq = 0; eq < MAYO_N; eq++) {
 8000dd4:	2400      	movs	r4, #0
 8000dd6:	436b      	muls	r3, r5
 8000dd8:	9308      	str	r3, [sp, #32]
                        if (eq < MAYO_V) {
 8000dda:	2c0f      	cmp	r4, #15
 8000ddc:	dc35      	bgt.n	8000e4a <mayo_sign+0x446>
                            s_eq = nibble_get(V_buf + i * MAYO_V_B, eq);
 8000dde:	0021      	movs	r1, r4
 8000de0:	9807      	ldr	r0, [sp, #28]
 8000de2:	f7ff fce5 	bl	80007b0 <nibble_get>
 8000de6:	002f      	movs	r7, r5
 8000de8:	0006      	movs	r6, r0
                            for (d = 0; d < MAYO_O; d++) {
 8000dea:	00a3      	lsls	r3, r4, #2
 8000dec:	9306      	str	r3, [sp, #24]
                                s_eq ^= gf16_mul(nibble_get(O, eq * MAYO_O + d),
 8000dee:	4b78      	ldr	r3, [pc, #480]	@ (8000fd0 <mayo_sign+0x5cc>)
 8000df0:	930a      	str	r3, [sp, #40]	@ 0x28
                            for (d = 0; d < MAYO_O; d++) {
 8000df2:	1d2b      	adds	r3, r5, #4
 8000df4:	930b      	str	r3, [sp, #44]	@ 0x2c
                                uint8_t xi_d = nibble_get(x, i * MAYO_O + d);
 8000df6:	0039      	movs	r1, r7
 8000df8:	a818      	add	r0, sp, #96	@ 0x60
 8000dfa:	f7ff fcd9 	bl	80007b0 <nibble_get>
                                s_eq ^= gf16_mul(nibble_get(O, eq * MAYO_O + d),
 8000dfe:	9906      	ldr	r1, [sp, #24]
                                uint8_t xi_d = nibble_get(x, i * MAYO_O + d);
 8000e00:	9009      	str	r0, [sp, #36]	@ 0x24
                                s_eq ^= gf16_mul(nibble_get(O, eq * MAYO_O + d),
 8000e02:	980a      	ldr	r0, [sp, #40]	@ 0x28
 8000e04:	f7ff fcd4 	bl	80007b0 <nibble_get>
 8000e08:	9909      	ldr	r1, [sp, #36]	@ 0x24
 8000e0a:	f7ff fcc5 	bl	8000798 <gf16_mul>
                            for (d = 0; d < MAYO_O; d++) {
 8000e0e:	9b06      	ldr	r3, [sp, #24]
                                s_eq ^= gf16_mul(nibble_get(O, eq * MAYO_O + d),
 8000e10:	4046      	eors	r6, r0
                            for (d = 0; d < MAYO_O; d++) {
 8000e12:	3301      	adds	r3, #1
 8000e14:	9306      	str	r3, [sp, #24]
 8000e16:	9b0b      	ldr	r3, [sp, #44]	@ 0x2c
 8000e18:	3701      	adds	r7, #1
                                s_eq ^= gf16_mul(nibble_get(O, eq * MAYO_O + d),
 8000e1a:	b2f6      	uxtb	r6, r6
                            for (d = 0; d < MAYO_O; d++) {
 8000e1c:	429f      	cmp	r7, r3
 8000e1e:	d1ea      	bne.n	8000df6 <mayo_sign+0x3f2>
                        nibble_add(sig, i * MAYO_N + eq, s_eq);
 8000e20:	9b08      	ldr	r3, [sp, #32]
 8000e22:	0032      	movs	r2, r6
 8000e24:	18e1      	adds	r1, r4, r3
 8000e26:	980c      	ldr	r0, [sp, #48]	@ 0x30
                    for (eq = 0; eq < MAYO_N; eq++) {
 8000e28:	3401      	adds	r4, #1
                        nibble_add(sig, i * MAYO_N + eq, s_eq);
 8000e2a:	f7ff fd01 	bl	8000830 <nibble_add>
                    for (eq = 0; eq < MAYO_N; eq++) {
 8000e2e:	2c14      	cmp	r4, #20
 8000e30:	d1d3      	bne.n	8000dda <mayo_sign+0x3d6>
                for (i = 0; i < MAYO_K; i++) {
 8000e32:	3504      	adds	r5, #4
 8000e34:	2d14      	cmp	r5, #20
 8000e36:	d1c8      	bne.n	8000dca <mayo_sign+0x3c6>
                memcpy(sig + (MAYO_K * MAYO_N + 1) / 2, salt, MAYO_SALT_B);
 8000e38:	980c      	ldr	r0, [sp, #48]	@ 0x30
 8000e3a:	2210      	movs	r2, #16
 8000e3c:	3032      	adds	r0, #50	@ 0x32
 8000e3e:	a91f      	add	r1, sp, #124	@ 0x7c
 8000e40:	f7ff fbfe 	bl	8000640 <memcpy>
                return 0;
 8000e44:	2000      	movs	r0, #0
}
 8000e46:	b053      	add	sp, #332	@ 0x14c
 8000e48:	bdf0      	pop	{r4, r5, r6, r7, pc}
                            s_eq = nibble_get(x, i * MAYO_O + (eq - MAYO_V));
 8000e4a:	0029      	movs	r1, r5
 8000e4c:	3910      	subs	r1, #16
 8000e4e:	1909      	adds	r1, r1, r4
 8000e50:	a818      	add	r0, sp, #96	@ 0x60
 8000e52:	f7ff fcad 	bl	80007b0 <nibble_get>
 8000e56:	0006      	movs	r6, r0
 8000e58:	e7e2      	b.n	8000e20 <mayo_sign+0x41c>
        uint8_t piv = nibble_get(A, pr * MAYO_KO + pc);
 8000e5a:	9b09      	ldr	r3, [sp, #36]	@ 0x24
 8000e5c:	437b      	muls	r3, r7
 8000e5e:	930a      	str	r3, [sp, #40]	@ 0x28
        if (next != pr) {
 8000e60:	42bc      	cmp	r4, r7
 8000e62:	d033      	beq.n	8000ecc <mayo_sign+0x4c8>
 8000e64:	9e0a      	ldr	r6, [sp, #40]	@ 0x28
                           nibble_get(A, next * MAYO_KO + c));
 8000e66:	9507      	str	r5, [sp, #28]
 8000e68:	0033      	movs	r3, r6
 8000e6a:	3314      	adds	r3, #20
 8000e6c:	930b      	str	r3, [sp, #44]	@ 0x2c
                uint8_t tmp = nibble_get(A, pr * MAYO_KO + c);
 8000e6e:	4d59      	ldr	r5, [pc, #356]	@ (8000fd4 <mayo_sign+0x5d0>)
 8000e70:	0031      	movs	r1, r6
 8000e72:	0028      	movs	r0, r5
 8000e74:	f7ff fc9c 	bl	80007b0 <nibble_get>
                nibble_set(A, pr * MAYO_KO + c,
 8000e78:	9907      	ldr	r1, [sp, #28]
                uint8_t tmp = nibble_get(A, pr * MAYO_KO + c);
 8000e7a:	900d      	str	r0, [sp, #52]	@ 0x34
                nibble_set(A, pr * MAYO_KO + c,
 8000e7c:	0028      	movs	r0, r5
 8000e7e:	f7ff fc97 	bl	80007b0 <nibble_get>
 8000e82:	0031      	movs	r1, r6
 8000e84:	0002      	movs	r2, r0
 8000e86:	0028      	movs	r0, r5
 8000e88:	f7ff fcc0 	bl	800080c <nibble_set>
                nibble_set(A, next * MAYO_KO + c, tmp);
 8000e8c:	0028      	movs	r0, r5
 8000e8e:	9a0d      	ldr	r2, [sp, #52]	@ 0x34
 8000e90:	9907      	ldr	r1, [sp, #28]
 8000e92:	f7ff fcbb 	bl	800080c <nibble_set>
            for (c = 0; c < MAYO_KO; c++) {
 8000e96:	9b07      	ldr	r3, [sp, #28]
 8000e98:	3601      	adds	r6, #1
 8000e9a:	3301      	adds	r3, #1
 8000e9c:	9307      	str	r3, [sp, #28]
 8000e9e:	9b0b      	ldr	r3, [sp, #44]	@ 0x2c
 8000ea0:	429e      	cmp	r6, r3
 8000ea2:	d1e4      	bne.n	8000e6e <mayo_sign+0x46a>
            uint8_t tmp = nibble_get(aug, pr);
 8000ea4:	4d49      	ldr	r5, [pc, #292]	@ (8000fcc <mayo_sign+0x5c8>)
 8000ea6:	0039      	movs	r1, r7
 8000ea8:	0028      	movs	r0, r5
 8000eaa:	f7ff fc81 	bl	80007b0 <nibble_get>
            nibble_set(aug, pr, nibble_get(aug, next));
 8000eae:	0021      	movs	r1, r4
            uint8_t tmp = nibble_get(aug, pr);
 8000eb0:	0006      	movs	r6, r0
            nibble_set(aug, pr, nibble_get(aug, next));
 8000eb2:	0028      	movs	r0, r5
 8000eb4:	f7ff fc7c 	bl	80007b0 <nibble_get>
 8000eb8:	0039      	movs	r1, r7
 8000eba:	0002      	movs	r2, r0
 8000ebc:	0028      	movs	r0, r5
 8000ebe:	f7ff fca5 	bl	800080c <nibble_set>
            nibble_set(aug, next, tmp);
 8000ec2:	0032      	movs	r2, r6
 8000ec4:	0021      	movs	r1, r4
 8000ec6:	0028      	movs	r0, r5
 8000ec8:	f7ff fca0 	bl	800080c <nibble_set>
        uint8_t piv = nibble_get(A, pr * MAYO_KO + pc);
 8000ecc:	9b06      	ldr	r3, [sp, #24]
 8000ece:	990a      	ldr	r1, [sp, #40]	@ 0x28
 8000ed0:	469c      	mov	ip, r3
 8000ed2:	4840      	ldr	r0, [pc, #256]	@ (8000fd4 <mayo_sign+0x5d0>)
 8000ed4:	4461      	add	r1, ip
 8000ed6:	f7ff fc6b 	bl	80007b0 <nibble_get>
 8000eda:	1e04      	subs	r4, r0, #0
    if (a == 0) return 0;
 8000edc:	d011      	beq.n	8000f02 <mayo_sign+0x4fe>
    uint8_t a2  = gf16_mul(a,  a);
 8000ede:	0001      	movs	r1, r0
 8000ee0:	f7ff fc5a 	bl	8000798 <gf16_mul>
    uint8_t a4  = gf16_mul(a2, a2);
 8000ee4:	0001      	movs	r1, r0
    uint8_t a2  = gf16_mul(a,  a);
 8000ee6:	0004      	movs	r4, r0
    uint8_t a4  = gf16_mul(a2, a2);
 8000ee8:	f7ff fc56 	bl	8000798 <gf16_mul>
 8000eec:	0005      	movs	r5, r0
    uint8_t a8  = gf16_mul(a4, a4);
 8000eee:	0001      	movs	r1, r0
 8000ef0:	f7ff fc52 	bl	8000798 <gf16_mul>
    uint8_t a12 = gf16_mul(a8, a4);
 8000ef4:	0029      	movs	r1, r5
 8000ef6:	f7ff fc4f 	bl	8000798 <gf16_mul>
    return            gf16_mul(a12, a2);   /* a^14 */
 8000efa:	0021      	movs	r1, r4
 8000efc:	f7ff fc4c 	bl	8000798 <gf16_mul>
 8000f00:	0004      	movs	r4, r0
        for (c = pc; c < MAYO_KO; c++) {
 8000f02:	9b09      	ldr	r3, [sp, #36]	@ 0x24
 8000f04:	9d06      	ldr	r5, [sp, #24]
 8000f06:	437b      	muls	r3, r7
 8000f08:	930a      	str	r3, [sp, #40]	@ 0x28
            nibble_set(A, pr * MAYO_KO + c,
 8000f0a:	9b0a      	ldr	r3, [sp, #40]	@ 0x28
 8000f0c:	4e31      	ldr	r6, [pc, #196]	@ (8000fd4 <mayo_sign+0x5d0>)
 8000f0e:	18eb      	adds	r3, r5, r3
 8000f10:	0019      	movs	r1, r3
 8000f12:	0030      	movs	r0, r6
 8000f14:	9307      	str	r3, [sp, #28]
 8000f16:	f7ff fc4b 	bl	80007b0 <nibble_get>
 8000f1a:	0021      	movs	r1, r4
 8000f1c:	f7ff fc3c 	bl	8000798 <gf16_mul>
        for (c = pc; c < MAYO_KO; c++) {
 8000f20:	3501      	adds	r5, #1
            nibble_set(A, pr * MAYO_KO + c,
 8000f22:	0002      	movs	r2, r0
 8000f24:	9907      	ldr	r1, [sp, #28]
 8000f26:	0030      	movs	r0, r6
 8000f28:	f7ff fc70 	bl	800080c <nibble_set>
        for (c = pc; c < MAYO_KO; c++) {
 8000f2c:	2d14      	cmp	r5, #20
 8000f2e:	d1ec      	bne.n	8000f0a <mayo_sign+0x506>
        nibble_set(aug, pr, gf16_mul(nibble_get(aug, pr), inv));
 8000f30:	4d26      	ldr	r5, [pc, #152]	@ (8000fcc <mayo_sign+0x5c8>)
 8000f32:	0039      	movs	r1, r7
 8000f34:	0028      	movs	r0, r5
 8000f36:	f7ff fc3b 	bl	80007b0 <nibble_get>
 8000f3a:	0021      	movs	r1, r4
 8000f3c:	f7ff fc2c 	bl	8000798 <gf16_mul>
 8000f40:	0039      	movs	r1, r7
 8000f42:	0002      	movs	r2, r0
 8000f44:	0028      	movs	r0, r5
 8000f46:	f7ff fc61 	bl	800080c <nibble_set>
        for (i = 0; i < MAYO_M; i++) {
 8000f4a:	2400      	movs	r4, #0
            if (i == pr) continue;
 8000f4c:	42a7      	cmp	r7, r4
 8000f4e:	d02c      	beq.n	8000faa <mayo_sign+0x5a6>
            uint8_t factor = nibble_get(A, i * MAYO_KO + pc);
 8000f50:	9b09      	ldr	r3, [sp, #36]	@ 0x24
 8000f52:	9a06      	ldr	r2, [sp, #24]
 8000f54:	4363      	muls	r3, r4
 8000f56:	481f      	ldr	r0, [pc, #124]	@ (8000fd4 <mayo_sign+0x5d0>)
 8000f58:	1899      	adds	r1, r3, r2
 8000f5a:	9307      	str	r3, [sp, #28]
 8000f5c:	f7ff fc28 	bl	80007b0 <nibble_get>
 8000f60:	1e05      	subs	r5, r0, #0
            if (factor == 0) continue;
 8000f62:	d022      	beq.n	8000faa <mayo_sign+0x5a6>
            for (c = pc; c < MAYO_KO; c++) {
 8000f64:	9e06      	ldr	r6, [sp, #24]
                nibble_add(A, i * MAYO_KO + c,
 8000f66:	9b0a      	ldr	r3, [sp, #40]	@ 0x28
 8000f68:	18f1      	adds	r1, r6, r3
 8000f6a:	4b1a      	ldr	r3, [pc, #104]	@ (8000fd4 <mayo_sign+0x5d0>)
 8000f6c:	0018      	movs	r0, r3
 8000f6e:	930b      	str	r3, [sp, #44]	@ 0x2c
 8000f70:	f7ff fc1e 	bl	80007b0 <nibble_get>
 8000f74:	0001      	movs	r1, r0
 8000f76:	0028      	movs	r0, r5
 8000f78:	f7ff fc0e 	bl	8000798 <gf16_mul>
 8000f7c:	9b07      	ldr	r3, [sp, #28]
 8000f7e:	0002      	movs	r2, r0
 8000f80:	18f1      	adds	r1, r6, r3
 8000f82:	980b      	ldr	r0, [sp, #44]	@ 0x2c
            for (c = pc; c < MAYO_KO; c++) {
 8000f84:	3601      	adds	r6, #1
                nibble_add(A, i * MAYO_KO + c,
 8000f86:	f7ff fc53 	bl	8000830 <nibble_add>
            for (c = pc; c < MAYO_KO; c++) {
 8000f8a:	2e14      	cmp	r6, #20
 8000f8c:	d1eb      	bne.n	8000f66 <mayo_sign+0x562>
            nibble_add(aug, i, gf16_mul(factor, nibble_get(aug, pr)));
 8000f8e:	4e0f      	ldr	r6, [pc, #60]	@ (8000fcc <mayo_sign+0x5c8>)
 8000f90:	0039      	movs	r1, r7
 8000f92:	0030      	movs	r0, r6
 8000f94:	f7ff fc0c 	bl	80007b0 <nibble_get>
 8000f98:	0001      	movs	r1, r0
 8000f9a:	0028      	movs	r0, r5
 8000f9c:	f7ff fbfc 	bl	8000798 <gf16_mul>
 8000fa0:	0021      	movs	r1, r4
 8000fa2:	0002      	movs	r2, r0
 8000fa4:	0030      	movs	r0, r6
 8000fa6:	f7ff fc43 	bl	8000830 <nibble_add>
        for (i = 0; i < MAYO_M; i++) {
 8000faa:	3401      	adds	r4, #1
 8000fac:	2c10      	cmp	r4, #16
 8000fae:	d1cd      	bne.n	8000f4c <mayo_sign+0x548>
        pr++; pc++;
 8000fb0:	3701      	adds	r7, #1
    while (pr < MAYO_M && pc < MAYO_KO) {
 8000fb2:	2f10      	cmp	r7, #16
 8000fb4:	d000      	beq.n	8000fb8 <mayo_sign+0x5b4>
 8000fb6:	e694      	b.n	8000ce2 <mayo_sign+0x2de>
    for (eq = 0; eq < MAYO_M; eq++) {
 8000fb8:	2500      	movs	r5, #0
 8000fba:	2714      	movs	r7, #20
        for (col = 0; col < MAYO_KO; col++) {
 8000fbc:	003b      	movs	r3, r7
 8000fbe:	436b      	muls	r3, r5
 8000fc0:	9307      	str	r3, [sp, #28]
            if (nibble_get(A, eq * MAYO_KO + col) == 1) {
 8000fc2:	4b04      	ldr	r3, [pc, #16]	@ (8000fd4 <mayo_sign+0x5d0>)
        for (col = 0; col < MAYO_KO; col++) {
 8000fc4:	2400      	movs	r4, #0
            if (nibble_get(A, eq * MAYO_KO + col) == 1) {
 8000fc6:	9306      	str	r3, [sp, #24]
 8000fc8:	e6d7      	b.n	8000d7a <mayo_sign+0x376>
 8000fca:	46c0      	nop			@ (mov r8, r8)
 8000fcc:	20000067 	.word	0x20000067
 8000fd0:	2000026f 	.word	0x2000026f
 8000fd4:	2000006f 	.word	0x2000006f

08000fd8 <keccak_f1600>:

/* Static temp buffer avoids 200 bytes of stack inside keccak_f */
static uint64_t kf_B[25];

static void keccak_f1600(uint64_t *a)
{
 8000fd8:	b5f0      	push	{r4, r5, r6, r7, lr}
 8000fda:	4bf9      	ldr	r3, [pc, #996]	@ (80013c0 <keccak_f1600+0x3e8>)
 8000fdc:	b0c9      	sub	sp, #292	@ 0x124
 8000fde:	9307      	str	r3, [sp, #28]
    int i;
    uint64_t c[5], d[5];

    for (i = 0; i < 24; i++) {
 8000fe0:	2300      	movs	r3, #0
{
 8000fe2:	0004      	movs	r4, r0
    for (i = 0; i < 24; i++) {
 8000fe4:	9310      	str	r3, [sp, #64]	@ 0x40
        /* Theta */
        c[0] = a[0] ^ a[5]  ^ a[10] ^ a[15] ^ a[20];
 8000fe6:	6823      	ldr	r3, [r4, #0]
        c[1] = a[1] ^ a[6]  ^ a[11] ^ a[16] ^ a[21];
        c[2] = a[2] ^ a[7]  ^ a[12] ^ a[17] ^ a[22];
        c[3] = a[3] ^ a[8]  ^ a[13] ^ a[18] ^ a[23];
        c[4] = a[4] ^ a[9]  ^ a[14] ^ a[19] ^ a[24];
 8000fe8:	0025      	movs	r5, r4
        c[0] = a[0] ^ a[5]  ^ a[10] ^ a[15] ^ a[20];
 8000fea:	9316      	str	r3, [sp, #88]	@ 0x58
 8000fec:	6863      	ldr	r3, [r4, #4]
 8000fee:	9a16      	ldr	r2, [sp, #88]	@ 0x58
 8000ff0:	9317      	str	r3, [sp, #92]	@ 0x5c
 8000ff2:	6aa3      	ldr	r3, [r4, #40]	@ 0x28
        c[4] = a[4] ^ a[9]  ^ a[14] ^ a[19] ^ a[24];
 8000ff4:	3598      	adds	r5, #152	@ 0x98
        c[0] = a[0] ^ a[5]  ^ a[10] ^ a[15] ^ a[20];
 8000ff6:	9318      	str	r3, [sp, #96]	@ 0x60
 8000ff8:	6ae3      	ldr	r3, [r4, #44]	@ 0x2c
 8000ffa:	9319      	str	r3, [sp, #100]	@ 0x64
 8000ffc:	6d23      	ldr	r3, [r4, #80]	@ 0x50
 8000ffe:	9919      	ldr	r1, [sp, #100]	@ 0x64
 8001000:	931a      	str	r3, [sp, #104]	@ 0x68
 8001002:	6d63      	ldr	r3, [r4, #84]	@ 0x54
 8001004:	931b      	str	r3, [sp, #108]	@ 0x6c
 8001006:	6fa3      	ldr	r3, [r4, #120]	@ 0x78
 8001008:	931c      	str	r3, [sp, #112]	@ 0x70
 800100a:	6fe3      	ldr	r3, [r4, #124]	@ 0x7c
 800100c:	931d      	str	r3, [sp, #116]	@ 0x74
 800100e:	0023      	movs	r3, r4
 8001010:	33a0      	adds	r3, #160	@ 0xa0
 8001012:	9308      	str	r3, [sp, #32]
 8001014:	681b      	ldr	r3, [r3, #0]
 8001016:	931e      	str	r3, [sp, #120]	@ 0x78
 8001018:	9b08      	ldr	r3, [sp, #32]
 800101a:	685b      	ldr	r3, [r3, #4]
 800101c:	931f      	str	r3, [sp, #124]	@ 0x7c
 800101e:	9b18      	ldr	r3, [sp, #96]	@ 0x60
 8001020:	405a      	eors	r2, r3
 8001022:	9b17      	ldr	r3, [sp, #92]	@ 0x5c
 8001024:	404b      	eors	r3, r1
 8001026:	991a      	ldr	r1, [sp, #104]	@ 0x68
 8001028:	404a      	eors	r2, r1
 800102a:	991b      	ldr	r1, [sp, #108]	@ 0x6c
 800102c:	404b      	eors	r3, r1
 800102e:	991c      	ldr	r1, [sp, #112]	@ 0x70
 8001030:	404a      	eors	r2, r1
 8001032:	991d      	ldr	r1, [sp, #116]	@ 0x74
 8001034:	404b      	eors	r3, r1
 8001036:	991e      	ldr	r1, [sp, #120]	@ 0x78
 8001038:	4051      	eors	r1, r2
 800103a:	9111      	str	r1, [sp, #68]	@ 0x44
 800103c:	9a1f      	ldr	r2, [sp, #124]	@ 0x7c
 800103e:	405a      	eors	r2, r3
        c[1] = a[1] ^ a[6]  ^ a[11] ^ a[16] ^ a[21];
 8001040:	68a3      	ldr	r3, [r4, #8]
        c[0] = a[0] ^ a[5]  ^ a[10] ^ a[15] ^ a[20];
 8001042:	9212      	str	r2, [sp, #72]	@ 0x48
        c[1] = a[1] ^ a[6]  ^ a[11] ^ a[16] ^ a[21];
 8001044:	9320      	str	r3, [sp, #128]	@ 0x80
 8001046:	68e3      	ldr	r3, [r4, #12]
 8001048:	9a20      	ldr	r2, [sp, #128]	@ 0x80
 800104a:	9321      	str	r3, [sp, #132]	@ 0x84
 800104c:	6b23      	ldr	r3, [r4, #48]	@ 0x30
 800104e:	9322      	str	r3, [sp, #136]	@ 0x88
 8001050:	6b63      	ldr	r3, [r4, #52]	@ 0x34
 8001052:	9323      	str	r3, [sp, #140]	@ 0x8c
 8001054:	6da3      	ldr	r3, [r4, #88]	@ 0x58
 8001056:	9923      	ldr	r1, [sp, #140]	@ 0x8c
 8001058:	9324      	str	r3, [sp, #144]	@ 0x90
 800105a:	6de3      	ldr	r3, [r4, #92]	@ 0x5c
 800105c:	9325      	str	r3, [sp, #148]	@ 0x94
 800105e:	0023      	movs	r3, r4
 8001060:	3380      	adds	r3, #128	@ 0x80
 8001062:	930a      	str	r3, [sp, #40]	@ 0x28
 8001064:	681b      	ldr	r3, [r3, #0]
 8001066:	9326      	str	r3, [sp, #152]	@ 0x98
 8001068:	9b0a      	ldr	r3, [sp, #40]	@ 0x28
 800106a:	685b      	ldr	r3, [r3, #4]
 800106c:	9327      	str	r3, [sp, #156]	@ 0x9c
 800106e:	0023      	movs	r3, r4
 8001070:	33a8      	adds	r3, #168	@ 0xa8
 8001072:	930b      	str	r3, [sp, #44]	@ 0x2c
 8001074:	681b      	ldr	r3, [r3, #0]
 8001076:	9328      	str	r3, [sp, #160]	@ 0xa0
 8001078:	9b0b      	ldr	r3, [sp, #44]	@ 0x2c
 800107a:	685b      	ldr	r3, [r3, #4]
 800107c:	9329      	str	r3, [sp, #164]	@ 0xa4
 800107e:	9b22      	ldr	r3, [sp, #136]	@ 0x88
 8001080:	405a      	eors	r2, r3
 8001082:	9b21      	ldr	r3, [sp, #132]	@ 0x84
 8001084:	404b      	eors	r3, r1
 8001086:	9924      	ldr	r1, [sp, #144]	@ 0x90
 8001088:	404a      	eors	r2, r1
 800108a:	9925      	ldr	r1, [sp, #148]	@ 0x94
 800108c:	404b      	eors	r3, r1
 800108e:	9926      	ldr	r1, [sp, #152]	@ 0x98
 8001090:	404a      	eors	r2, r1
 8001092:	9927      	ldr	r1, [sp, #156]	@ 0x9c
 8001094:	404b      	eors	r3, r1
 8001096:	9928      	ldr	r1, [sp, #160]	@ 0xa0
 8001098:	4051      	eors	r1, r2
 800109a:	9a29      	ldr	r2, [sp, #164]	@ 0xa4
 800109c:	9105      	str	r1, [sp, #20]
 800109e:	405a      	eors	r2, r3
        c[2] = a[2] ^ a[7]  ^ a[12] ^ a[17] ^ a[22];
 80010a0:	6923      	ldr	r3, [r4, #16]
        c[1] = a[1] ^ a[6]  ^ a[11] ^ a[16] ^ a[21];
 80010a2:	9206      	str	r2, [sp, #24]
        c[2] = a[2] ^ a[7]  ^ a[12] ^ a[17] ^ a[22];
 80010a4:	932a      	str	r3, [sp, #168]	@ 0xa8
 80010a6:	6963      	ldr	r3, [r4, #20]
 80010a8:	9a2a      	ldr	r2, [sp, #168]	@ 0xa8
 80010aa:	932b      	str	r3, [sp, #172]	@ 0xac
 80010ac:	6ba3      	ldr	r3, [r4, #56]	@ 0x38
 80010ae:	932c      	str	r3, [sp, #176]	@ 0xb0
 80010b0:	6be3      	ldr	r3, [r4, #60]	@ 0x3c
 80010b2:	932d      	str	r3, [sp, #180]	@ 0xb4
 80010b4:	6e23      	ldr	r3, [r4, #96]	@ 0x60
 80010b6:	932e      	str	r3, [sp, #184]	@ 0xb8
 80010b8:	6e63      	ldr	r3, [r4, #100]	@ 0x64
 80010ba:	932f      	str	r3, [sp, #188]	@ 0xbc
 80010bc:	0023      	movs	r3, r4
 80010be:	3388      	adds	r3, #136	@ 0x88
 80010c0:	930c      	str	r3, [sp, #48]	@ 0x30
 80010c2:	681b      	ldr	r3, [r3, #0]
 80010c4:	9330      	str	r3, [sp, #192]	@ 0xc0
 80010c6:	9b0c      	ldr	r3, [sp, #48]	@ 0x30
 80010c8:	685b      	ldr	r3, [r3, #4]
 80010ca:	9331      	str	r3, [sp, #196]	@ 0xc4
 80010cc:	0023      	movs	r3, r4
 80010ce:	33b0      	adds	r3, #176	@ 0xb0
 80010d0:	930d      	str	r3, [sp, #52]	@ 0x34
 80010d2:	681b      	ldr	r3, [r3, #0]
 80010d4:	9332      	str	r3, [sp, #200]	@ 0xc8
 80010d6:	9b0d      	ldr	r3, [sp, #52]	@ 0x34
 80010d8:	685b      	ldr	r3, [r3, #4]
 80010da:	9333      	str	r3, [sp, #204]	@ 0xcc
 80010dc:	9b2c      	ldr	r3, [sp, #176]	@ 0xb0
 80010de:	405a      	eors	r2, r3
 80010e0:	9b2b      	ldr	r3, [sp, #172]	@ 0xac
 80010e2:	992d      	ldr	r1, [sp, #180]	@ 0xb4
 80010e4:	404b      	eors	r3, r1
 80010e6:	992e      	ldr	r1, [sp, #184]	@ 0xb8
 80010e8:	404a      	eors	r2, r1
 80010ea:	992f      	ldr	r1, [sp, #188]	@ 0xbc
 80010ec:	404b      	eors	r3, r1
 80010ee:	9930      	ldr	r1, [sp, #192]	@ 0xc0
 80010f0:	404a      	eors	r2, r1
 80010f2:	9931      	ldr	r1, [sp, #196]	@ 0xc4
 80010f4:	404b      	eors	r3, r1
 80010f6:	9932      	ldr	r1, [sp, #200]	@ 0xc8
 80010f8:	4051      	eors	r1, r2
 80010fa:	9a33      	ldr	r2, [sp, #204]	@ 0xcc
 80010fc:	9113      	str	r1, [sp, #76]	@ 0x4c
 80010fe:	405a      	eors	r2, r3
        c[3] = a[3] ^ a[8]  ^ a[13] ^ a[18] ^ a[23];
 8001100:	69a3      	ldr	r3, [r4, #24]
        c[2] = a[2] ^ a[7]  ^ a[12] ^ a[17] ^ a[22];
 8001102:	9214      	str	r2, [sp, #80]	@ 0x50
        c[3] = a[3] ^ a[8]  ^ a[13] ^ a[18] ^ a[23];
 8001104:	9334      	str	r3, [sp, #208]	@ 0xd0
 8001106:	69e3      	ldr	r3, [r4, #28]
 8001108:	9335      	str	r3, [sp, #212]	@ 0xd4
 800110a:	6c23      	ldr	r3, [r4, #64]	@ 0x40
 800110c:	9336      	str	r3, [sp, #216]	@ 0xd8
 800110e:	6c63      	ldr	r3, [r4, #68]	@ 0x44
 8001110:	9337      	str	r3, [sp, #220]	@ 0xdc
 8001112:	6ea3      	ldr	r3, [r4, #104]	@ 0x68
 8001114:	9338      	str	r3, [sp, #224]	@ 0xe0
 8001116:	6ee3      	ldr	r3, [r4, #108]	@ 0x6c
 8001118:	9339      	str	r3, [sp, #228]	@ 0xe4
 800111a:	0023      	movs	r3, r4
 800111c:	3390      	adds	r3, #144	@ 0x90
 800111e:	930e      	str	r3, [sp, #56]	@ 0x38
 8001120:	681b      	ldr	r3, [r3, #0]
 8001122:	933a      	str	r3, [sp, #232]	@ 0xe8
 8001124:	9b0e      	ldr	r3, [sp, #56]	@ 0x38
 8001126:	685b      	ldr	r3, [r3, #4]
 8001128:	933b      	str	r3, [sp, #236]	@ 0xec
 800112a:	23b8      	movs	r3, #184	@ 0xb8
 800112c:	469c      	mov	ip, r3
 800112e:	44a4      	add	ip, r4
 8001130:	4663      	mov	r3, ip
 8001132:	681b      	ldr	r3, [r3, #0]
 8001134:	933c      	str	r3, [sp, #240]	@ 0xf0
 8001136:	4663      	mov	r3, ip
 8001138:	685b      	ldr	r3, [r3, #4]
 800113a:	933d      	str	r3, [sp, #244]	@ 0xf4
 800113c:	9834      	ldr	r0, [sp, #208]	@ 0xd0
 800113e:	9b36      	ldr	r3, [sp, #216]	@ 0xd8
 8001140:	9935      	ldr	r1, [sp, #212]	@ 0xd4
 8001142:	4058      	eors	r0, r3
 8001144:	9b37      	ldr	r3, [sp, #220]	@ 0xdc
 8001146:	4059      	eors	r1, r3
 8001148:	9b38      	ldr	r3, [sp, #224]	@ 0xe0
 800114a:	4058      	eors	r0, r3
 800114c:	9b39      	ldr	r3, [sp, #228]	@ 0xe4
 800114e:	4059      	eors	r1, r3
 8001150:	9b3a      	ldr	r3, [sp, #232]	@ 0xe8
 8001152:	4058      	eors	r0, r3
 8001154:	9b3b      	ldr	r3, [sp, #236]	@ 0xec
 8001156:	4059      	eors	r1, r3
 8001158:	9b3c      	ldr	r3, [sp, #240]	@ 0xf0
 800115a:	4043      	eors	r3, r0
        c[4] = a[4] ^ a[9]  ^ a[14] ^ a[19] ^ a[24];
 800115c:	0020      	movs	r0, r4
        c[3] = a[3] ^ a[8]  ^ a[13] ^ a[18] ^ a[23];
 800115e:	9315      	str	r3, [sp, #84]	@ 0x54
 8001160:	9b3d      	ldr	r3, [sp, #244]	@ 0xf4
        c[4] = a[4] ^ a[9]  ^ a[14] ^ a[19] ^ a[24];
 8001162:	30c0      	adds	r0, #192	@ 0xc0
        c[3] = a[3] ^ a[8]  ^ a[13] ^ a[18] ^ a[23];
 8001164:	4059      	eors	r1, r3
        c[4] = a[4] ^ a[9]  ^ a[14] ^ a[19] ^ a[24];
 8001166:	6a23      	ldr	r3, [r4, #32]
 8001168:	900f      	str	r0, [sp, #60]	@ 0x3c
 800116a:	933e      	str	r3, [sp, #248]	@ 0xf8
 800116c:	6a63      	ldr	r3, [r4, #36]	@ 0x24
 800116e:	933f      	str	r3, [sp, #252]	@ 0xfc
 8001170:	6ca3      	ldr	r3, [r4, #72]	@ 0x48
 8001172:	9340      	str	r3, [sp, #256]	@ 0x100
 8001174:	6ce3      	ldr	r3, [r4, #76]	@ 0x4c
 8001176:	9341      	str	r3, [sp, #260]	@ 0x104
 8001178:	6f23      	ldr	r3, [r4, #112]	@ 0x70
 800117a:	9342      	str	r3, [sp, #264]	@ 0x108
 800117c:	6f63      	ldr	r3, [r4, #116]	@ 0x74
 800117e:	9343      	str	r3, [sp, #268]	@ 0x10c
 8001180:	682b      	ldr	r3, [r5, #0]
 8001182:	9344      	str	r3, [sp, #272]	@ 0x110
 8001184:	686b      	ldr	r3, [r5, #4]
 8001186:	9345      	str	r3, [sp, #276]	@ 0x114
 8001188:	6803      	ldr	r3, [r0, #0]
 800118a:	9346      	str	r3, [sp, #280]	@ 0x118
 800118c:	6843      	ldr	r3, [r0, #4]
 800118e:	9347      	str	r3, [sp, #284]	@ 0x11c
 8001190:	9a3e      	ldr	r2, [sp, #248]	@ 0xf8
 8001192:	9b40      	ldr	r3, [sp, #256]	@ 0x100
 8001194:	9841      	ldr	r0, [sp, #260]	@ 0x104
 8001196:	405a      	eors	r2, r3
 8001198:	9b3f      	ldr	r3, [sp, #252]	@ 0xfc
 800119a:	4043      	eors	r3, r0
 800119c:	9842      	ldr	r0, [sp, #264]	@ 0x108
 800119e:	4042      	eors	r2, r0
 80011a0:	9843      	ldr	r0, [sp, #268]	@ 0x10c
 80011a2:	4043      	eors	r3, r0
 80011a4:	9844      	ldr	r0, [sp, #272]	@ 0x110
 80011a6:	4042      	eors	r2, r0
 80011a8:	9845      	ldr	r0, [sp, #276]	@ 0x114
 80011aa:	4043      	eors	r3, r0
 80011ac:	9846      	ldr	r0, [sp, #280]	@ 0x118
 80011ae:	4042      	eors	r2, r0
 80011b0:	9847      	ldr	r0, [sp, #284]	@ 0x11c
 80011b2:	4043      	eors	r3, r0

        d[0] = c[4] ^ ROT64(c[1], 1);
 80011b4:	9806      	ldr	r0, [sp, #24]
 80011b6:	0fc7      	lsrs	r7, r0, #31
 80011b8:	9805      	ldr	r0, [sp, #20]
 80011ba:	0046      	lsls	r6, r0, #1
 80011bc:	4337      	orrs	r7, r6
 80011be:	0fc6      	lsrs	r6, r0, #31
 80011c0:	9806      	ldr	r0, [sp, #24]
 80011c2:	4057      	eors	r7, r2
 80011c4:	0040      	lsls	r0, r0, #1
 80011c6:	4306      	orrs	r6, r0
        d[1] = c[0] ^ ROT64(c[2], 1);
 80011c8:	9814      	ldr	r0, [sp, #80]	@ 0x50
        d[0] = c[4] ^ ROT64(c[1], 1);
 80011ca:	9701      	str	r7, [sp, #4]
        d[1] = c[0] ^ ROT64(c[2], 1);
 80011cc:	0fc7      	lsrs	r7, r0, #31
 80011ce:	9813      	ldr	r0, [sp, #76]	@ 0x4c
        d[0] = c[4] ^ ROT64(c[1], 1);
 80011d0:	405e      	eors	r6, r3
 80011d2:	9602      	str	r6, [sp, #8]
        d[1] = c[0] ^ ROT64(c[2], 1);
 80011d4:	0046      	lsls	r6, r0, #1
 80011d6:	4337      	orrs	r7, r6
 80011d8:	0fc6      	lsrs	r6, r0, #31
 80011da:	9814      	ldr	r0, [sp, #80]	@ 0x50
 80011dc:	0040      	lsls	r0, r0, #1
 80011de:	4306      	orrs	r6, r0
 80011e0:	9811      	ldr	r0, [sp, #68]	@ 0x44
 80011e2:	4078      	eors	r0, r7
 80011e4:	9003      	str	r0, [sp, #12]
 80011e6:	9812      	ldr	r0, [sp, #72]	@ 0x48
        d[2] = c[1] ^ ROT64(c[3], 1);
 80011e8:	0fcf      	lsrs	r7, r1, #31
        d[1] = c[0] ^ ROT64(c[2], 1);
 80011ea:	4070      	eors	r0, r6
 80011ec:	9004      	str	r0, [sp, #16]
        d[2] = c[1] ^ ROT64(c[3], 1);
 80011ee:	9815      	ldr	r0, [sp, #84]	@ 0x54
 80011f0:	0046      	lsls	r6, r0, #1
 80011f2:	4337      	orrs	r7, r6
 80011f4:	0fc6      	lsrs	r6, r0, #31
 80011f6:	0048      	lsls	r0, r1, #1
 80011f8:	4306      	orrs	r6, r0
 80011fa:	9805      	ldr	r0, [sp, #20]
 80011fc:	4078      	eors	r0, r7
 80011fe:	9005      	str	r0, [sp, #20]
 8001200:	9806      	ldr	r0, [sp, #24]
        d[3] = c[2] ^ ROT64(c[4], 1);
 8001202:	0fdf      	lsrs	r7, r3, #31
        d[2] = c[1] ^ ROT64(c[3], 1);
 8001204:	4070      	eors	r0, r6
        d[3] = c[2] ^ ROT64(c[4], 1);
 8001206:	0056      	lsls	r6, r2, #1
 8001208:	4337      	orrs	r7, r6
 800120a:	0fd2      	lsrs	r2, r2, #31
 800120c:	9e14      	ldr	r6, [sp, #80]	@ 0x50
 800120e:	005b      	lsls	r3, r3, #1
 8001210:	4313      	orrs	r3, r2
 8001212:	405e      	eors	r6, r3
 8001214:	9a13      	ldr	r2, [sp, #76]	@ 0x4c
        d[4] = c[3] ^ ROT64(c[0], 1);
 8001216:	9b12      	ldr	r3, [sp, #72]	@ 0x48
        d[3] = c[2] ^ ROT64(c[4], 1);
 8001218:	4057      	eors	r7, r2
        d[4] = c[3] ^ ROT64(c[0], 1);
 800121a:	0fda      	lsrs	r2, r3, #31
 800121c:	9b11      	ldr	r3, [sp, #68]	@ 0x44
        d[2] = c[1] ^ ROT64(c[3], 1);
 800121e:	9006      	str	r0, [sp, #24]
        d[4] = c[3] ^ ROT64(c[0], 1);
 8001220:	005b      	lsls	r3, r3, #1
 8001222:	431a      	orrs	r2, r3
 8001224:	9b11      	ldr	r3, [sp, #68]	@ 0x44
 8001226:	9812      	ldr	r0, [sp, #72]	@ 0x48
 8001228:	0fdb      	lsrs	r3, r3, #31
 800122a:	0040      	lsls	r0, r0, #1
 800122c:	4303      	orrs	r3, r0
 800122e:	9815      	ldr	r0, [sp, #84]	@ 0x54
 8001230:	404b      	eors	r3, r1
 8001232:	4042      	eors	r2, r0

        a[0]^=d[0]; a[1]^=d[1]; a[2]^=d[2]; a[3]^=d[3]; a[4]^=d[4];
 8001234:	9916      	ldr	r1, [sp, #88]	@ 0x58
 8001236:	9801      	ldr	r0, [sp, #4]
 8001238:	4041      	eors	r1, r0
 800123a:	6021      	str	r1, [r4, #0]
 800123c:	9802      	ldr	r0, [sp, #8]
 800123e:	9917      	ldr	r1, [sp, #92]	@ 0x5c
 8001240:	4041      	eors	r1, r0
 8001242:	6061      	str	r1, [r4, #4]
 8001244:	9803      	ldr	r0, [sp, #12]
 8001246:	9920      	ldr	r1, [sp, #128]	@ 0x80
 8001248:	4041      	eors	r1, r0
 800124a:	60a1      	str	r1, [r4, #8]
 800124c:	9804      	ldr	r0, [sp, #16]
 800124e:	9921      	ldr	r1, [sp, #132]	@ 0x84
 8001250:	4041      	eors	r1, r0
 8001252:	60e1      	str	r1, [r4, #12]
 8001254:	9805      	ldr	r0, [sp, #20]
 8001256:	992a      	ldr	r1, [sp, #168]	@ 0xa8
 8001258:	4041      	eors	r1, r0
 800125a:	6121      	str	r1, [r4, #16]
 800125c:	9806      	ldr	r0, [sp, #24]
 800125e:	992b      	ldr	r1, [sp, #172]	@ 0xac
 8001260:	4041      	eors	r1, r0
 8001262:	6161      	str	r1, [r4, #20]
 8001264:	9934      	ldr	r1, [sp, #208]	@ 0xd0
        a[5]^=d[0]; a[6]^=d[1]; a[7]^=d[2]; a[8]^=d[3]; a[9]^=d[4];
 8001266:	9801      	ldr	r0, [sp, #4]
        a[0]^=d[0]; a[1]^=d[1]; a[2]^=d[2]; a[3]^=d[3]; a[4]^=d[4];
 8001268:	4079      	eors	r1, r7
 800126a:	61a1      	str	r1, [r4, #24]
 800126c:	9935      	ldr	r1, [sp, #212]	@ 0xd4
 800126e:	4071      	eors	r1, r6
 8001270:	61e1      	str	r1, [r4, #28]
 8001272:	993e      	ldr	r1, [sp, #248]	@ 0xf8
 8001274:	4051      	eors	r1, r2
 8001276:	6221      	str	r1, [r4, #32]
 8001278:	993f      	ldr	r1, [sp, #252]	@ 0xfc
 800127a:	4059      	eors	r1, r3
 800127c:	6261      	str	r1, [r4, #36]	@ 0x24
        a[5]^=d[0]; a[6]^=d[1]; a[7]^=d[2]; a[8]^=d[3]; a[9]^=d[4];
 800127e:	9918      	ldr	r1, [sp, #96]	@ 0x60
 8001280:	4041      	eors	r1, r0
 8001282:	62a1      	str	r1, [r4, #40]	@ 0x28
 8001284:	9919      	ldr	r1, [sp, #100]	@ 0x64
 8001286:	9802      	ldr	r0, [sp, #8]
 8001288:	4041      	eors	r1, r0
 800128a:	62e1      	str	r1, [r4, #44]	@ 0x2c
 800128c:	9803      	ldr	r0, [sp, #12]
 800128e:	9922      	ldr	r1, [sp, #136]	@ 0x88
 8001290:	4041      	eors	r1, r0
 8001292:	6321      	str	r1, [r4, #48]	@ 0x30
 8001294:	9804      	ldr	r0, [sp, #16]
 8001296:	9923      	ldr	r1, [sp, #140]	@ 0x8c
 8001298:	4041      	eors	r1, r0
 800129a:	6361      	str	r1, [r4, #52]	@ 0x34
 800129c:	9805      	ldr	r0, [sp, #20]
 800129e:	992c      	ldr	r1, [sp, #176]	@ 0xb0
 80012a0:	4041      	eors	r1, r0
 80012a2:	63a1      	str	r1, [r4, #56]	@ 0x38
 80012a4:	9806      	ldr	r0, [sp, #24]
 80012a6:	992d      	ldr	r1, [sp, #180]	@ 0xb4
 80012a8:	4041      	eors	r1, r0
 80012aa:	63e1      	str	r1, [r4, #60]	@ 0x3c
 80012ac:	9936      	ldr	r1, [sp, #216]	@ 0xd8
        a[10]^=d[0];a[11]^=d[1];a[12]^=d[2];a[13]^=d[3];a[14]^=d[4];
 80012ae:	9801      	ldr	r0, [sp, #4]
        a[5]^=d[0]; a[6]^=d[1]; a[7]^=d[2]; a[8]^=d[3]; a[9]^=d[4];
 80012b0:	4079      	eors	r1, r7
 80012b2:	6421      	str	r1, [r4, #64]	@ 0x40
 80012b4:	9937      	ldr	r1, [sp, #220]	@ 0xdc
 80012b6:	4071      	eors	r1, r6
 80012b8:	6461      	str	r1, [r4, #68]	@ 0x44
 80012ba:	9940      	ldr	r1, [sp, #256]	@ 0x100
 80012bc:	4051      	eors	r1, r2
 80012be:	64a1      	str	r1, [r4, #72]	@ 0x48
 80012c0:	9941      	ldr	r1, [sp, #260]	@ 0x104
 80012c2:	4059      	eors	r1, r3
 80012c4:	64e1      	str	r1, [r4, #76]	@ 0x4c
        a[10]^=d[0];a[11]^=d[1];a[12]^=d[2];a[13]^=d[3];a[14]^=d[4];
 80012c6:	991a      	ldr	r1, [sp, #104]	@ 0x68
 80012c8:	4041      	eors	r1, r0
 80012ca:	6521      	str	r1, [r4, #80]	@ 0x50
 80012cc:	9802      	ldr	r0, [sp, #8]
 80012ce:	991b      	ldr	r1, [sp, #108]	@ 0x6c
 80012d0:	4041      	eors	r1, r0
 80012d2:	6561      	str	r1, [r4, #84]	@ 0x54
 80012d4:	9803      	ldr	r0, [sp, #12]
 80012d6:	9924      	ldr	r1, [sp, #144]	@ 0x90
 80012d8:	4041      	eors	r1, r0
 80012da:	65a1      	str	r1, [r4, #88]	@ 0x58
 80012dc:	9925      	ldr	r1, [sp, #148]	@ 0x94
 80012de:	9804      	ldr	r0, [sp, #16]
 80012e0:	4041      	eors	r1, r0
 80012e2:	65e1      	str	r1, [r4, #92]	@ 0x5c
 80012e4:	9805      	ldr	r0, [sp, #20]
 80012e6:	992e      	ldr	r1, [sp, #184]	@ 0xb8
 80012e8:	4041      	eors	r1, r0
 80012ea:	6621      	str	r1, [r4, #96]	@ 0x60
 80012ec:	9806      	ldr	r0, [sp, #24]
 80012ee:	992f      	ldr	r1, [sp, #188]	@ 0xbc
 80012f0:	4041      	eors	r1, r0
 80012f2:	6661      	str	r1, [r4, #100]	@ 0x64
 80012f4:	9938      	ldr	r1, [sp, #224]	@ 0xe0
        a[15]^=d[0];a[16]^=d[1];a[17]^=d[2];a[18]^=d[3];a[19]^=d[4];
 80012f6:	9801      	ldr	r0, [sp, #4]
        a[10]^=d[0];a[11]^=d[1];a[12]^=d[2];a[13]^=d[3];a[14]^=d[4];
 80012f8:	4079      	eors	r1, r7
 80012fa:	66a1      	str	r1, [r4, #104]	@ 0x68
 80012fc:	9939      	ldr	r1, [sp, #228]	@ 0xe4
 80012fe:	4071      	eors	r1, r6
 8001300:	66e1      	str	r1, [r4, #108]	@ 0x6c
 8001302:	9942      	ldr	r1, [sp, #264]	@ 0x108
 8001304:	4051      	eors	r1, r2
 8001306:	6721      	str	r1, [r4, #112]	@ 0x70
 8001308:	9943      	ldr	r1, [sp, #268]	@ 0x10c
 800130a:	4059      	eors	r1, r3
 800130c:	6761      	str	r1, [r4, #116]	@ 0x74
        a[15]^=d[0];a[16]^=d[1];a[17]^=d[2];a[18]^=d[3];a[19]^=d[4];
 800130e:	991c      	ldr	r1, [sp, #112]	@ 0x70
 8001310:	4041      	eors	r1, r0
 8001312:	67a1      	str	r1, [r4, #120]	@ 0x78
 8001314:	9802      	ldr	r0, [sp, #8]
 8001316:	991d      	ldr	r1, [sp, #116]	@ 0x74
 8001318:	4041      	eors	r1, r0
 800131a:	67e1      	str	r1, [r4, #124]	@ 0x7c
 800131c:	9803      	ldr	r0, [sp, #12]
 800131e:	9926      	ldr	r1, [sp, #152]	@ 0x98
 8001320:	4041      	eors	r1, r0
 8001322:	980a      	ldr	r0, [sp, #40]	@ 0x28
 8001324:	6001      	str	r1, [r0, #0]
 8001326:	9804      	ldr	r0, [sp, #16]
 8001328:	9927      	ldr	r1, [sp, #156]	@ 0x9c
 800132a:	4041      	eors	r1, r0
 800132c:	980a      	ldr	r0, [sp, #40]	@ 0x28
 800132e:	6041      	str	r1, [r0, #4]
 8001330:	9930      	ldr	r1, [sp, #192]	@ 0xc0
 8001332:	9805      	ldr	r0, [sp, #20]
 8001334:	4041      	eors	r1, r0
 8001336:	980c      	ldr	r0, [sp, #48]	@ 0x30
 8001338:	6001      	str	r1, [r0, #0]
 800133a:	9806      	ldr	r0, [sp, #24]
 800133c:	9931      	ldr	r1, [sp, #196]	@ 0xc4
 800133e:	4041      	eors	r1, r0
 8001340:	980c      	ldr	r0, [sp, #48]	@ 0x30
 8001342:	6041      	str	r1, [r0, #4]
 8001344:	993a      	ldr	r1, [sp, #232]	@ 0xe8
 8001346:	980e      	ldr	r0, [sp, #56]	@ 0x38
 8001348:	4079      	eors	r1, r7
 800134a:	6001      	str	r1, [r0, #0]
 800134c:	993b      	ldr	r1, [sp, #236]	@ 0xec
 800134e:	4071      	eors	r1, r6
 8001350:	6041      	str	r1, [r0, #4]
 8001352:	9944      	ldr	r1, [sp, #272]	@ 0x110
        a[20]^=d[0];a[21]^=d[1];a[22]^=d[2];a[23]^=d[3];a[24]^=d[4];
 8001354:	9801      	ldr	r0, [sp, #4]
        a[15]^=d[0];a[16]^=d[1];a[17]^=d[2];a[18]^=d[3];a[19]^=d[4];
 8001356:	4051      	eors	r1, r2
 8001358:	6029      	str	r1, [r5, #0]
 800135a:	9945      	ldr	r1, [sp, #276]	@ 0x114
 800135c:	4059      	eors	r1, r3
 800135e:	6069      	str	r1, [r5, #4]
        a[20]^=d[0];a[21]^=d[1];a[22]^=d[2];a[23]^=d[3];a[24]^=d[4];
 8001360:	991e      	ldr	r1, [sp, #120]	@ 0x78
 8001362:	4041      	eors	r1, r0
 8001364:	9808      	ldr	r0, [sp, #32]
 8001366:	6001      	str	r1, [r0, #0]
 8001368:	9802      	ldr	r0, [sp, #8]
 800136a:	991f      	ldr	r1, [sp, #124]	@ 0x7c
 800136c:	4041      	eors	r1, r0
 800136e:	9808      	ldr	r0, [sp, #32]
 8001370:	6041      	str	r1, [r0, #4]
 8001372:	9803      	ldr	r0, [sp, #12]
 8001374:	9928      	ldr	r1, [sp, #160]	@ 0xa0
 8001376:	4041      	eors	r1, r0
 8001378:	980b      	ldr	r0, [sp, #44]	@ 0x2c
 800137a:	6001      	str	r1, [r0, #0]
 800137c:	9804      	ldr	r0, [sp, #16]
 800137e:	9929      	ldr	r1, [sp, #164]	@ 0xa4
 8001380:	4041      	eors	r1, r0
 8001382:	980b      	ldr	r0, [sp, #44]	@ 0x2c
 8001384:	6041      	str	r1, [r0, #4]
 8001386:	9932      	ldr	r1, [sp, #200]	@ 0xc8
 8001388:	9805      	ldr	r0, [sp, #20]
 800138a:	4041      	eors	r1, r0
 800138c:	980d      	ldr	r0, [sp, #52]	@ 0x34
 800138e:	6001      	str	r1, [r0, #0]
 8001390:	9806      	ldr	r0, [sp, #24]
 8001392:	9933      	ldr	r1, [sp, #204]	@ 0xcc
 8001394:	4041      	eors	r1, r0
 8001396:	980d      	ldr	r0, [sp, #52]	@ 0x34
 8001398:	6041      	str	r1, [r0, #4]
 800139a:	993c      	ldr	r1, [sp, #240]	@ 0xf0
 800139c:	4660      	mov	r0, ip
 800139e:	404f      	eors	r7, r1
 80013a0:	4661      	mov	r1, ip
 80013a2:	600f      	str	r7, [r1, #0]

        /* Rho + Pi: B[y][2x+3y mod 5] = ROT(a[x][y], rho[x][y]) */
        {
            int x, y;
            for (y = 0; y < 5; y++)
 80013a4:	2700      	movs	r7, #0
        a[20]^=d[0];a[21]^=d[1];a[22]^=d[2];a[23]^=d[3];a[24]^=d[4];
 80013a6:	993d      	ldr	r1, [sp, #244]	@ 0xf4
 80013a8:	4071      	eors	r1, r6
 80013aa:	6041      	str	r1, [r0, #4]
 80013ac:	9946      	ldr	r1, [sp, #280]	@ 0x118
 80013ae:	404a      	eors	r2, r1
 80013b0:	990f      	ldr	r1, [sp, #60]	@ 0x3c
 80013b2:	600a      	str	r2, [r1, #0]
 80013b4:	9a47      	ldr	r2, [sp, #284]	@ 0x11c
 80013b6:	4053      	eors	r3, r2
 80013b8:	604b      	str	r3, [r1, #4]
            for (y = 0; y < 5; y++)
 80013ba:	4b02      	ldr	r3, [pc, #8]	@ (80013c4 <keccak_f1600+0x3ec>)
 80013bc:	9302      	str	r3, [sp, #8]
 80013be:	e003      	b.n	80013c8 <keccak_f1600+0x3f0>
 80013c0:	080025b8 	.word	0x080025b8
 80013c4:	08002598 	.word	0x08002598
                for (x = 0; x < 5; x++)
 80013c8:	2328      	movs	r3, #40	@ 0x28
 80013ca:	437b      	muls	r3, r7
 80013cc:	191b      	adds	r3, r3, r4
 80013ce:	9304      	str	r3, [sp, #16]
 80013d0:	2303      	movs	r3, #3
 80013d2:	0025      	movs	r5, r4
 80013d4:	437b      	muls	r3, r7
 80013d6:	9301      	str	r3, [sp, #4]
 80013d8:	330a      	adds	r3, #10
 80013da:	930a      	str	r3, [sp, #40]	@ 0x28
    for (i = 0; i < 24; i++) {
 80013dc:	9b02      	ldr	r3, [sp, #8]
 80013de:	9303      	str	r3, [sp, #12]
                    kf_B[5 * ((2*x + 3*y) % 5) + y] =
 80013e0:	4b51      	ldr	r3, [pc, #324]	@ (8001528 <keccak_f1600+0x550>)
 80013e2:	9305      	str	r3, [sp, #20]
 80013e4:	9801      	ldr	r0, [sp, #4]
 80013e6:	2105      	movs	r1, #5
 80013e8:	f7ff f894 	bl	8000514 <__aeabi_idivmod>
 80013ec:	2305      	movs	r3, #5
 80013ee:	4359      	muls	r1, r3
 80013f0:	9b05      	ldr	r3, [sp, #20]
 80013f2:	19ce      	adds	r6, r1, r7
 80013f4:	00f6      	lsls	r6, r6, #3
 80013f6:	199e      	adds	r6, r3, r6
                        ROT64(a[5*y + x], RHO[5*y + x]);
 80013f8:	9b03      	ldr	r3, [sp, #12]
 80013fa:	9904      	ldr	r1, [sp, #16]
 80013fc:	781b      	ldrb	r3, [r3, #0]
 80013fe:	9306      	str	r3, [sp, #24]
 8001400:	c90c      	ldmia	r1!, {r2, r3}
 8001402:	9208      	str	r2, [sp, #32]
 8001404:	9309      	str	r3, [sp, #36]	@ 0x24
 8001406:	9104      	str	r1, [sp, #16]
 8001408:	9a06      	ldr	r2, [sp, #24]
 800140a:	9808      	ldr	r0, [sp, #32]
 800140c:	9909      	ldr	r1, [sp, #36]	@ 0x24
 800140e:	f7ff f893 	bl	8000538 <__aeabi_llsl>
 8001412:	9b06      	ldr	r3, [sp, #24]
 8001414:	900b      	str	r0, [sp, #44]	@ 0x2c
 8001416:	425a      	negs	r2, r3
 8001418:	233f      	movs	r3, #63	@ 0x3f
 800141a:	910c      	str	r1, [sp, #48]	@ 0x30
 800141c:	401a      	ands	r2, r3
 800141e:	9808      	ldr	r0, [sp, #32]
 8001420:	9909      	ldr	r1, [sp, #36]	@ 0x24
 8001422:	f7ff f87d 	bl	8000520 <__aeabi_llsr>
 8001426:	9b0b      	ldr	r3, [sp, #44]	@ 0x2c
 8001428:	4303      	orrs	r3, r0
 800142a:	6033      	str	r3, [r6, #0]
 800142c:	9b0c      	ldr	r3, [sp, #48]	@ 0x30
 800142e:	430b      	orrs	r3, r1
 8001430:	6073      	str	r3, [r6, #4]
                for (x = 0; x < 5; x++)
 8001432:	9b03      	ldr	r3, [sp, #12]
 8001434:	3301      	adds	r3, #1
 8001436:	9303      	str	r3, [sp, #12]
 8001438:	9b01      	ldr	r3, [sp, #4]
 800143a:	3302      	adds	r3, #2
 800143c:	9301      	str	r3, [sp, #4]
 800143e:	9a01      	ldr	r2, [sp, #4]
 8001440:	9b0a      	ldr	r3, [sp, #40]	@ 0x28
 8001442:	4293      	cmp	r3, r2
 8001444:	d1ce      	bne.n	80013e4 <keccak_f1600+0x40c>
            for (y = 0; y < 5; y++)
 8001446:	9b02      	ldr	r3, [sp, #8]
 8001448:	3701      	adds	r7, #1
 800144a:	3305      	adds	r3, #5
 800144c:	9302      	str	r3, [sp, #8]
 800144e:	2f05      	cmp	r7, #5
 8001450:	d1ba      	bne.n	80013c8 <keccak_f1600+0x3f0>
 8001452:	0022      	movs	r2, r4
 8001454:	9b05      	ldr	r3, [sp, #20]
 8001456:	32c8      	adds	r2, #200	@ 0xc8
 8001458:	9208      	str	r2, [sp, #32]

        /* Chi */
        {
            int j;
            for (j = 0; j < 25; j += 5) {
                a[j+0] = kf_B[j+0] ^ (~kf_B[j+1] & kf_B[j+2]);
 800145a:	681a      	ldr	r2, [r3, #0]
 800145c:	695f      	ldr	r7, [r3, #20]
 800145e:	9201      	str	r2, [sp, #4]
 8001460:	685a      	ldr	r2, [r3, #4]
 8001462:	6898      	ldr	r0, [r3, #8]
 8001464:	9202      	str	r2, [sp, #8]
 8001466:	68da      	ldr	r2, [r3, #12]
 8001468:	9203      	str	r2, [sp, #12]
 800146a:	691a      	ldr	r2, [r3, #16]
 800146c:	9e03      	ldr	r6, [sp, #12]
 800146e:	4694      	mov	ip, r2
 8001470:	0011      	movs	r1, r2
 8001472:	003a      	movs	r2, r7
 8001474:	43b2      	bics	r2, r6
 8001476:	9e01      	ldr	r6, [sp, #4]
 8001478:	4381      	bics	r1, r0
 800147a:	4071      	eors	r1, r6
 800147c:	6029      	str	r1, [r5, #0]
 800147e:	9902      	ldr	r1, [sp, #8]
 8001480:	404a      	eors	r2, r1
 8001482:	606a      	str	r2, [r5, #4]
                a[j+1] = kf_B[j+1] ^ (~kf_B[j+2] & kf_B[j+3]);
 8001484:	699e      	ldr	r6, [r3, #24]
 8001486:	69da      	ldr	r2, [r3, #28]
 8001488:	0031      	movs	r1, r6
 800148a:	9204      	str	r2, [sp, #16]
 800148c:	4662      	mov	r2, ip
 800148e:	4391      	bics	r1, r2
 8001490:	4041      	eors	r1, r0
 8001492:	9a04      	ldr	r2, [sp, #16]
 8001494:	60a9      	str	r1, [r5, #8]
 8001496:	9903      	ldr	r1, [sp, #12]
 8001498:	43ba      	bics	r2, r7
 800149a:	404a      	eors	r2, r1
 800149c:	60ea      	str	r2, [r5, #12]
                a[j+2] = kf_B[j+2] ^ (~kf_B[j+3] & kf_B[j+4]);
 800149e:	6a1a      	ldr	r2, [r3, #32]
 80014a0:	9904      	ldr	r1, [sp, #16]
 80014a2:	9205      	str	r2, [sp, #20]
 80014a4:	6a5a      	ldr	r2, [r3, #36]	@ 0x24
            for (j = 0; j < 25; j += 5) {
 80014a6:	3328      	adds	r3, #40	@ 0x28
                a[j+2] = kf_B[j+2] ^ (~kf_B[j+3] & kf_B[j+4]);
 80014a8:	9206      	str	r2, [sp, #24]
 80014aa:	9a05      	ldr	r2, [sp, #20]
 80014ac:	43b2      	bics	r2, r6
 80014ae:	920a      	str	r2, [sp, #40]	@ 0x28
 80014b0:	9a06      	ldr	r2, [sp, #24]
 80014b2:	438a      	bics	r2, r1
 80014b4:	920b      	str	r2, [sp, #44]	@ 0x2c
 80014b6:	4662      	mov	r2, ip
 80014b8:	990a      	ldr	r1, [sp, #40]	@ 0x28
 80014ba:	404a      	eors	r2, r1
 80014bc:	612a      	str	r2, [r5, #16]
 80014be:	9a0b      	ldr	r2, [sp, #44]	@ 0x2c
                a[j+3] = kf_B[j+3] ^ (~kf_B[j+4] & kf_B[j+0]);
 80014c0:	9905      	ldr	r1, [sp, #20]
                a[j+2] = kf_B[j+2] ^ (~kf_B[j+3] & kf_B[j+4]);
 80014c2:	4057      	eors	r7, r2
                a[j+3] = kf_B[j+3] ^ (~kf_B[j+4] & kf_B[j+0]);
 80014c4:	9a01      	ldr	r2, [sp, #4]
                a[j+2] = kf_B[j+2] ^ (~kf_B[j+3] & kf_B[j+4]);
 80014c6:	616f      	str	r7, [r5, #20]
                a[j+3] = kf_B[j+3] ^ (~kf_B[j+4] & kf_B[j+0]);
 80014c8:	438a      	bics	r2, r1
 80014ca:	4694      	mov	ip, r2
 80014cc:	9f02      	ldr	r7, [sp, #8]
 80014ce:	9a06      	ldr	r2, [sp, #24]
 80014d0:	4397      	bics	r7, r2
 80014d2:	4662      	mov	r2, ip
 80014d4:	4056      	eors	r6, r2
 80014d6:	9a04      	ldr	r2, [sp, #16]
 80014d8:	61ae      	str	r6, [r5, #24]
 80014da:	4057      	eors	r7, r2
                a[j+4] = kf_B[j+4] ^ (~kf_B[j+0] & kf_B[j+1]);
 80014dc:	9a01      	ldr	r2, [sp, #4]
 80014de:	9e03      	ldr	r6, [sp, #12]
 80014e0:	4390      	bics	r0, r2
 80014e2:	9a02      	ldr	r2, [sp, #8]
 80014e4:	4048      	eors	r0, r1
 80014e6:	4396      	bics	r6, r2
 80014e8:	9a06      	ldr	r2, [sp, #24]
                a[j+3] = kf_B[j+3] ^ (~kf_B[j+4] & kf_B[j+0]);
 80014ea:	61ef      	str	r7, [r5, #28]
                a[j+4] = kf_B[j+4] ^ (~kf_B[j+0] & kf_B[j+1]);
 80014ec:	4056      	eors	r6, r2
            for (j = 0; j < 25; j += 5) {
 80014ee:	9a08      	ldr	r2, [sp, #32]
                a[j+4] = kf_B[j+4] ^ (~kf_B[j+0] & kf_B[j+1]);
 80014f0:	6228      	str	r0, [r5, #32]
 80014f2:	626e      	str	r6, [r5, #36]	@ 0x24
            for (j = 0; j < 25; j += 5) {
 80014f4:	3528      	adds	r5, #40	@ 0x28
 80014f6:	42aa      	cmp	r2, r5
 80014f8:	d1af      	bne.n	800145a <keccak_f1600+0x482>
            }
        }

        /* Iota */
        a[0] ^= RC[i];
 80014fa:	9b07      	ldr	r3, [sp, #28]
 80014fc:	6822      	ldr	r2, [r4, #0]
 80014fe:	681b      	ldr	r3, [r3, #0]
 8001500:	9907      	ldr	r1, [sp, #28]
 8001502:	405a      	eors	r2, r3
 8001504:	6849      	ldr	r1, [r1, #4]
 8001506:	6863      	ldr	r3, [r4, #4]
 8001508:	6022      	str	r2, [r4, #0]
 800150a:	404b      	eors	r3, r1
 800150c:	6063      	str	r3, [r4, #4]
    for (i = 0; i < 24; i++) {
 800150e:	9b10      	ldr	r3, [sp, #64]	@ 0x40
 8001510:	3301      	adds	r3, #1
 8001512:	9310      	str	r3, [sp, #64]	@ 0x40
 8001514:	9b07      	ldr	r3, [sp, #28]
 8001516:	3308      	adds	r3, #8
 8001518:	9307      	str	r3, [sp, #28]
 800151a:	9b10      	ldr	r3, [sp, #64]	@ 0x40
 800151c:	2b18      	cmp	r3, #24
 800151e:	d000      	beq.n	8001522 <keccak_f1600+0x54a>
 8001520:	e561      	b.n	8000fe6 <keccak_f1600+0xe>
    }
}
 8001522:	b049      	add	sp, #292	@ 0x124
 8001524:	bdf0      	pop	{r4, r5, r6, r7, pc}
 8001526:	46c0      	nop			@ (mov r8, r8)
 8001528:	20000560 	.word	0x20000560

0800152c <shake256_init>:
/* ------------------------------------------------------------------ */

shake256_ctx g_shake;

void shake256_init(shake256_ctx *ctx)
{
 800152c:	b510      	push	{r4, lr}
    memset(ctx, 0, sizeof(*ctx));
 800152e:	22d0      	movs	r2, #208	@ 0xd0
 8001530:	2100      	movs	r1, #0
 8001532:	f7ff f831 	bl	8000598 <memset>
}
 8001536:	bd10      	pop	{r4, pc}

08001538 <shake256_absorb>:

void shake256_absorb(shake256_ctx *ctx, const uint8_t *in, size_t len)
{
 8001538:	b5f8      	push	{r3, r4, r5, r6, r7, lr}
 800153a:	0005      	movs	r5, r0
    uint8_t *st = (uint8_t *)ctx->state;
    size_t i;
    for (i = 0; i < len; i++) {
 800153c:	000c      	movs	r4, r1
 800153e:	188f      	adds	r7, r1, r2
 8001540:	42bc      	cmp	r4, r7
 8001542:	d100      	bne.n	8001546 <shake256_absorb+0xe>
        if (ctx->buf_pos == SHAKE256_RATE) {
            keccak_f1600(ctx->state);
            ctx->buf_pos = 0;
        }
    }
}
 8001544:	bdf8      	pop	{r3, r4, r5, r6, r7, pc}
        st[ctx->buf_pos++] ^= in[i];
 8001546:	002e      	movs	r6, r5
 8001548:	36c8      	adds	r6, #200	@ 0xc8
 800154a:	7833      	ldrb	r3, [r6, #0]
 800154c:	1c5a      	adds	r2, r3, #1
 800154e:	7032      	strb	r2, [r6, #0]
 8001550:	5cea      	ldrb	r2, [r5, r3]
 8001552:	7821      	ldrb	r1, [r4, #0]
 8001554:	404a      	eors	r2, r1
 8001556:	54ea      	strb	r2, [r5, r3]
        if (ctx->buf_pos == SHAKE256_RATE) {
 8001558:	7833      	ldrb	r3, [r6, #0]
 800155a:	2b88      	cmp	r3, #136	@ 0x88
 800155c:	d104      	bne.n	8001568 <shake256_absorb+0x30>
            keccak_f1600(ctx->state);
 800155e:	0028      	movs	r0, r5
 8001560:	f7ff fd3a 	bl	8000fd8 <keccak_f1600>
            ctx->buf_pos = 0;
 8001564:	2300      	movs	r3, #0
 8001566:	7033      	strb	r3, [r6, #0]
    for (i = 0; i < len; i++) {
 8001568:	3401      	adds	r4, #1
 800156a:	e7e9      	b.n	8001540 <shake256_absorb+0x8>

0800156c <shake256_finalize>:

void shake256_finalize(shake256_ctx *ctx)
{
 800156c:	b510      	push	{r4, lr}
    uint8_t *st = (uint8_t *)ctx->state;
    st[ctx->buf_pos]          ^= 0x1F; /* SHAKE256 domain suffix */
 800156e:	0004      	movs	r4, r0
 8001570:	231f      	movs	r3, #31
 8001572:	34c8      	adds	r4, #200	@ 0xc8
 8001574:	7822      	ldrb	r2, [r4, #0]
 8001576:	5c81      	ldrb	r1, [r0, r2]
 8001578:	404b      	eors	r3, r1
 800157a:	5483      	strb	r3, [r0, r2]
    st[SHAKE256_RATE - 1]     ^= 0x80;
 800157c:	0002      	movs	r2, r0
 800157e:	2380      	movs	r3, #128	@ 0x80
 8001580:	3287      	adds	r2, #135	@ 0x87
 8001582:	7811      	ldrb	r1, [r2, #0]
 8001584:	425b      	negs	r3, r3
 8001586:	404b      	eors	r3, r1
 8001588:	7013      	strb	r3, [r2, #0]
    keccak_f1600(ctx->state);
 800158a:	f7ff fd25 	bl	8000fd8 <keccak_f1600>
    ctx->buf_pos   = 0;
 800158e:	2380      	movs	r3, #128	@ 0x80
 8001590:	005b      	lsls	r3, r3, #1
 8001592:	8023      	strh	r3, [r4, #0]
    ctx->squeezing = 1;
}
 8001594:	bd10      	pop	{r4, pc}

08001596 <shake256_squeeze>:

void shake256_squeeze(shake256_ctx *ctx, uint8_t *out, size_t len)
{
 8001596:	b5f8      	push	{r3, r4, r5, r6, r7, lr}
 8001598:	0005      	movs	r5, r0
    uint8_t *st = (uint8_t *)ctx->state;
    size_t i;
    for (i = 0; i < len; i++) {
 800159a:	000c      	movs	r4, r1
 800159c:	188e      	adds	r6, r1, r2
 800159e:	42b4      	cmp	r4, r6
 80015a0:	d100      	bne.n	80015a4 <shake256_squeeze+0xe>
            keccak_f1600(ctx->state);
            ctx->buf_pos = 0;
        }
        out[i] = st[ctx->buf_pos++];
    }
}
 80015a2:	bdf8      	pop	{r3, r4, r5, r6, r7, pc}
        if (ctx->buf_pos == SHAKE256_RATE) {
 80015a4:	002f      	movs	r7, r5
 80015a6:	37c8      	adds	r7, #200	@ 0xc8
 80015a8:	783b      	ldrb	r3, [r7, #0]
 80015aa:	2b88      	cmp	r3, #136	@ 0x88
 80015ac:	d103      	bne.n	80015b6 <shake256_squeeze+0x20>
            keccak_f1600(ctx->state);
 80015ae:	0028      	movs	r0, r5
 80015b0:	f7ff fd12 	bl	8000fd8 <keccak_f1600>
 80015b4:	2300      	movs	r3, #0
        out[i] = st[ctx->buf_pos++];
 80015b6:	1c5a      	adds	r2, r3, #1
 80015b8:	703a      	strb	r2, [r7, #0]
 80015ba:	5ceb      	ldrb	r3, [r5, r3]
 80015bc:	7023      	strb	r3, [r4, #0]
    for (i = 0; i < len; i++) {
 80015be:	3401      	adds	r4, #1
 80015c0:	e7ed      	b.n	800159e <shake256_squeeze+0x8>
 80015c2:	0000      	movs	r0, r0

080015c4 <shake256_multi>:
    const uint8_t *a, size_t alen,
    const uint8_t *b, size_t blen,
    const uint8_t *c, size_t clen,
    const uint8_t *d, size_t dlen,
    uint8_t *out, size_t outlen)
{
 80015c4:	b5f7      	push	{r0, r1, r2, r4, r5, r6, r7, lr}
    shake256_init(&g_shake);
 80015c6:	4c1d      	ldr	r4, [pc, #116]	@ (800163c <shake256_multi+0x78>)
{
 80015c8:	0006      	movs	r6, r0
    shake256_init(&g_shake);
 80015ca:	0020      	movs	r0, r4
{
 80015cc:	000f      	movs	r7, r1
 80015ce:	001d      	movs	r5, r3
 80015d0:	9201      	str	r2, [sp, #4]
    shake256_init(&g_shake);
 80015d2:	f7ff ffab 	bl	800152c <shake256_init>
    if (a && alen) shake256_absorb(&g_shake, a, alen);
 80015d6:	2e00      	cmp	r6, #0
 80015d8:	d006      	beq.n	80015e8 <shake256_multi+0x24>
 80015da:	2f00      	cmp	r7, #0
 80015dc:	d004      	beq.n	80015e8 <shake256_multi+0x24>
 80015de:	003a      	movs	r2, r7
 80015e0:	0031      	movs	r1, r6
 80015e2:	0020      	movs	r0, r4
 80015e4:	f7ff ffa8 	bl	8001538 <shake256_absorb>
    if (b && blen) shake256_absorb(&g_shake, b, blen);
 80015e8:	9b01      	ldr	r3, [sp, #4]
 80015ea:	2b00      	cmp	r3, #0
 80015ec:	d006      	beq.n	80015fc <shake256_multi+0x38>
 80015ee:	2d00      	cmp	r5, #0
 80015f0:	d004      	beq.n	80015fc <shake256_multi+0x38>
 80015f2:	002a      	movs	r2, r5
 80015f4:	0019      	movs	r1, r3
 80015f6:	0020      	movs	r0, r4
 80015f8:	f7ff ff9e 	bl	8001538 <shake256_absorb>
    if (c && clen) shake256_absorb(&g_shake, c, clen);
 80015fc:	9b08      	ldr	r3, [sp, #32]
 80015fe:	2b00      	cmp	r3, #0
 8001600:	d007      	beq.n	8001612 <shake256_multi+0x4e>
 8001602:	9b09      	ldr	r3, [sp, #36]	@ 0x24
 8001604:	2b00      	cmp	r3, #0
 8001606:	d004      	beq.n	8001612 <shake256_multi+0x4e>
 8001608:	001a      	movs	r2, r3
 800160a:	0020      	movs	r0, r4
 800160c:	9908      	ldr	r1, [sp, #32]
 800160e:	f7ff ff93 	bl	8001538 <shake256_absorb>
    if (d && dlen) shake256_absorb(&g_shake, d, dlen);
 8001612:	9b0a      	ldr	r3, [sp, #40]	@ 0x28
 8001614:	2b00      	cmp	r3, #0
 8001616:	d007      	beq.n	8001628 <shake256_multi+0x64>
 8001618:	9b0b      	ldr	r3, [sp, #44]	@ 0x2c
 800161a:	2b00      	cmp	r3, #0
 800161c:	d004      	beq.n	8001628 <shake256_multi+0x64>
 800161e:	001a      	movs	r2, r3
 8001620:	0020      	movs	r0, r4
 8001622:	990a      	ldr	r1, [sp, #40]	@ 0x28
 8001624:	f7ff ff88 	bl	8001538 <shake256_absorb>
    shake256_finalize(&g_shake);
 8001628:	0020      	movs	r0, r4
 800162a:	f7ff ff9f 	bl	800156c <shake256_finalize>
    shake256_squeeze(&g_shake, out, outlen);
 800162e:	0020      	movs	r0, r4
 8001630:	9a0d      	ldr	r2, [sp, #52]	@ 0x34
 8001632:	990c      	ldr	r1, [sp, #48]	@ 0x30
 8001634:	f7ff ffaf 	bl	8001596 <shake256_squeeze>
}
 8001638:	bdf7      	pop	{r0, r1, r2, r4, r5, r6, r7, pc}
 800163a:	46c0      	nop			@ (mov r8, r8)
 800163c:	20000490 	.word	0x20000490

08001640 <check_version>:
// Callback function for "v" command.
// This can exist in v1.0 as long as we don't actually send back an ack ("z")
uint8_t check_version(uint8_t *v, uint8_t len)
{
	return SS_VER;
}
 8001640:	2001      	movs	r0, #1
 8001642:	4770      	bx	lr

08001644 <simpleserial_put.part.0>:
#if SS_VER == SS_VER_1_1
	simpleserial_put('z', 1, ret);
#endif
}

void simpleserial_put(char c, uint8_t size, uint8_t* output)
 8001644:	b5f8      	push	{r3, r4, r5, r6, r7, lr}
 8001646:	000d      	movs	r5, r1
 8001648:	0014      	movs	r4, r2

	// Write each byte as two nibbles
	for(int i = 0; i < size; i++)
	{
		putch(hex_lookup[output[i] >> 4 ]);
		putch(hex_lookup[output[i] & 0xF]);
 800164a:	270f      	movs	r7, #15
	putch(c);
 800164c:	f000 f9f2 	bl	8001a34 <putch>
	for(int i = 0; i < size; i++)
 8001650:	1965      	adds	r5, r4, r5
 8001652:	42ac      	cmp	r4, r5
 8001654:	d103      	bne.n	800165e <simpleserial_put.part.0+0x1a>
	}

	// Write trailing '\n'
	putch('\n');
 8001656:	200a      	movs	r0, #10
 8001658:	f000 f9ec 	bl	8001a34 <putch>
}
 800165c:	bdf8      	pop	{r3, r4, r5, r6, r7, pc}
		putch(hex_lookup[output[i] >> 4 ]);
 800165e:	7823      	ldrb	r3, [r4, #0]
 8001660:	4e05      	ldr	r6, [pc, #20]	@ (8001678 <simpleserial_put.part.0+0x34>)
 8001662:	091b      	lsrs	r3, r3, #4
 8001664:	5cf0      	ldrb	r0, [r6, r3]
 8001666:	f000 f9e5 	bl	8001a34 <putch>
		putch(hex_lookup[output[i] & 0xF]);
 800166a:	7823      	ldrb	r3, [r4, #0]
 800166c:	3401      	adds	r4, #1
 800166e:	403b      	ands	r3, r7
 8001670:	5cf0      	ldrb	r0, [r6, r3]
 8001672:	f000 f9df 	bl	8001a34 <putch>
	for(int i = 0; i < size; i++)
 8001676:	e7ec      	b.n	8001652 <simpleserial_put.part.0+0xe>
 8001678:	08002678 	.word	0x08002678

0800167c <ss_num_commands>:
{
 800167c:	b507      	push	{r0, r1, r2, lr}
    uint8_t ncmds = num_commands & 0xFF;
 800167e:	466b      	mov	r3, sp
 8001680:	1dda      	adds	r2, r3, #7
 8001682:	4b04      	ldr	r3, [pc, #16]	@ (8001694 <ss_num_commands+0x18>)
 8001684:	2072      	movs	r0, #114	@ 0x72
 8001686:	681b      	ldr	r3, [r3, #0]
 8001688:	2101      	movs	r1, #1
 800168a:	7013      	strb	r3, [r2, #0]
    if (!output) return;
 800168c:	f7ff ffda 	bl	8001644 <simpleserial_put.part.0>
}
 8001690:	2000      	movs	r0, #0
 8001692:	bd0e      	pop	{r1, r2, r3, pc}
 8001694:	20000628 	.word	0x20000628

08001698 <ss_get_commands>:
{
 8001698:	b5f0      	push	{r4, r5, r6, r7, lr}
    for (uint8_t i = 0; i < (num_commands & 0xFF); i++) {
 800169a:	4b10      	ldr	r3, [pc, #64]	@ (80016dc <ss_get_commands+0x44>)
{
 800169c:	b099      	sub	sp, #100	@ 0x64
    for (uint8_t i = 0; i < (num_commands & 0xFF); i++) {
 800169e:	681d      	ldr	r5, [r3, #0]
 80016a0:	466a      	mov	r2, sp
 80016a2:	2300      	movs	r3, #0
        repr_cmd_buf[i].c = commands[i].c;
 80016a4:	4e0e      	ldr	r6, [pc, #56]	@ (80016e0 <ss_get_commands+0x48>)
    for (uint8_t i = 0; i < (num_commands & 0xFF); i++) {
 80016a6:	b2ef      	uxtb	r7, r5
 80016a8:	42bb      	cmp	r3, r7
 80016aa:	db08      	blt.n	80016be <ss_get_commands+0x26>
    simpleserial_put('r', num_commands * sizeof (ss_cmd_repr), (void *) repr_cmd_buf);
 80016ac:	2103      	movs	r1, #3
 80016ae:	4369      	muls	r1, r5
 80016b0:	2072      	movs	r0, #114	@ 0x72
 80016b2:	b2c9      	uxtb	r1, r1
 80016b4:	f7ff ffc6 	bl	8001644 <simpleserial_put.part.0>
}
 80016b8:	2000      	movs	r0, #0
 80016ba:	b019      	add	sp, #100	@ 0x64
 80016bc:	bdf0      	pop	{r4, r5, r6, r7, pc}
        repr_cmd_buf[i].c = commands[i].c;
 80016be:	2003      	movs	r0, #3
 80016c0:	4358      	muls	r0, r3
 80016c2:	011c      	lsls	r4, r3, #4
 80016c4:	5da1      	ldrb	r1, [r4, r6]
        repr_cmd_buf[i].len = commands[i].len;
 80016c6:	1934      	adds	r4, r6, r4
        repr_cmd_buf[i].c = commands[i].c;
 80016c8:	5411      	strb	r1, [r2, r0]
        repr_cmd_buf[i].len = commands[i].len;
 80016ca:	6861      	ldr	r1, [r4, #4]
        repr_cmd_buf[i].flags = commands[i].flags;
 80016cc:	7b24      	ldrb	r4, [r4, #12]
        repr_cmd_buf[i].len = commands[i].len;
 80016ce:	1810      	adds	r0, r2, r0
    for (uint8_t i = 0; i < (num_commands & 0xFF); i++) {
 80016d0:	3301      	adds	r3, #1
        repr_cmd_buf[i].len = commands[i].len;
 80016d2:	7041      	strb	r1, [r0, #1]
        repr_cmd_buf[i].flags = commands[i].flags;
 80016d4:	7084      	strb	r4, [r0, #2]
    for (uint8_t i = 0; i < (num_commands & 0xFF); i++) {
 80016d6:	b2db      	uxtb	r3, r3
 80016d8:	e7e6      	b.n	80016a8 <ss_get_commands+0x10>
 80016da:	46c0      	nop			@ (mov r8, r8)
 80016dc:	20000628 	.word	0x20000628
 80016e0:	2000062c 	.word	0x2000062c

080016e4 <hex_decode>:
{
 80016e4:	b570      	push	{r4, r5, r6, lr}
	for(int i = 0; i < len; i++)
 80016e6:	0014      	movs	r4, r2
 80016e8:	1aa3      	subs	r3, r4, r2
 80016ea:	4298      	cmp	r0, r3
 80016ec:	dc01      	bgt.n	80016f2 <hex_decode+0xe>
	return 0;
 80016ee:	2000      	movs	r0, #0
 80016f0:	e01f      	b.n	8001732 <hex_decode+0x4e>
		char n_lo = ascii_buf[2*i+1];
 80016f2:	784d      	ldrb	r5, [r1, #1]
		char n_hi = ascii_buf[2*i];
 80016f4:	780b      	ldrb	r3, [r1, #0]
		if(n_lo >= '0' && n_lo <= '9')
 80016f6:	002e      	movs	r6, r5
 80016f8:	3e30      	subs	r6, #48	@ 0x30
 80016fa:	b2f6      	uxtb	r6, r6
 80016fc:	2e09      	cmp	r6, #9
 80016fe:	d80c      	bhi.n	800171a <hex_decode+0x36>
			data_buf[i] = n_lo - '0';
 8001700:	7026      	strb	r6, [r4, #0]
		if(n_hi >= '0' && n_hi <= '9')
 8001702:	001d      	movs	r5, r3
 8001704:	3d30      	subs	r5, #48	@ 0x30
 8001706:	b2ed      	uxtb	r5, r5
 8001708:	2d09      	cmp	r5, #9
 800170a:	d815      	bhi.n	8001738 <hex_decode+0x54>
			data_buf[i] |= (n_hi - '0') << 4;
 800170c:	7823      	ldrb	r3, [r4, #0]
 800170e:	012d      	lsls	r5, r5, #4
			data_buf[i] |= (n_hi - 'a' + 10) << 4;
 8001710:	432b      	orrs	r3, r5
 8001712:	7023      	strb	r3, [r4, #0]
	for(int i = 0; i < len; i++)
 8001714:	3102      	adds	r1, #2
 8001716:	3401      	adds	r4, #1
 8001718:	e7e6      	b.n	80016e8 <hex_decode+0x4>
		else if(n_lo >= 'A' && n_lo <= 'F')
 800171a:	002e      	movs	r6, r5
 800171c:	3e41      	subs	r6, #65	@ 0x41
 800171e:	2e05      	cmp	r6, #5
 8001720:	d802      	bhi.n	8001728 <hex_decode+0x44>
			data_buf[i] = n_lo - 'A' + 10;
 8001722:	3d37      	subs	r5, #55	@ 0x37
			data_buf[i] = n_lo - 'a' + 10;
 8001724:	7025      	strb	r5, [r4, #0]
 8001726:	e7ec      	b.n	8001702 <hex_decode+0x1e>
		else if(n_lo >= 'a' && n_lo <= 'f')
 8001728:	002e      	movs	r6, r5
 800172a:	3e61      	subs	r6, #97	@ 0x61
 800172c:	2e05      	cmp	r6, #5
 800172e:	d901      	bls.n	8001734 <hex_decode+0x50>
			return 1;
 8001730:	2001      	movs	r0, #1
}
 8001732:	bd70      	pop	{r4, r5, r6, pc}
			data_buf[i] = n_lo - 'a' + 10;
 8001734:	3d57      	subs	r5, #87	@ 0x57
 8001736:	e7f5      	b.n	8001724 <hex_decode+0x40>
		else if(n_hi >= 'A' && n_hi <= 'F')
 8001738:	001d      	movs	r5, r3
 800173a:	3d41      	subs	r5, #65	@ 0x41
 800173c:	2d05      	cmp	r5, #5
 800173e:	d803      	bhi.n	8001748 <hex_decode+0x64>
			data_buf[i] |= (n_hi - 'A' + 10) << 4;
 8001740:	3b37      	subs	r3, #55	@ 0x37
			data_buf[i] |= (n_hi - 'a' + 10) << 4;
 8001742:	7825      	ldrb	r5, [r4, #0]
 8001744:	011b      	lsls	r3, r3, #4
 8001746:	e7e3      	b.n	8001710 <hex_decode+0x2c>
		else if(n_hi >= 'a' && n_hi <= 'f')
 8001748:	001d      	movs	r5, r3
 800174a:	3d61      	subs	r5, #97	@ 0x61
 800174c:	2d05      	cmp	r5, #5
 800174e:	d8ef      	bhi.n	8001730 <hex_decode+0x4c>
			data_buf[i] |= (n_hi - 'a' + 10) << 4;
 8001750:	3b57      	subs	r3, #87	@ 0x57
 8001752:	e7f6      	b.n	8001742 <hex_decode+0x5e>

08001754 <simpleserial_addcmd_flags>:
{
 8001754:	b5f0      	push	{r4, r5, r6, r7, lr}
	if(num_commands >= MAX_SS_CMDS)
 8001756:	4f09      	ldr	r7, [pc, #36]	@ (800177c <simpleserial_addcmd_flags+0x28>)
{
 8001758:	0006      	movs	r6, r0
	if(num_commands >= MAX_SS_CMDS)
 800175a:	683d      	ldr	r5, [r7, #0]
		return 1;
 800175c:	2001      	movs	r0, #1
	if(num_commands >= MAX_SS_CMDS)
 800175e:	2d1f      	cmp	r5, #31
 8001760:	dc0b      	bgt.n	800177a <simpleserial_addcmd_flags+0x26>
	if(len >= MAX_SS_LEN)
 8001762:	293f      	cmp	r1, #63	@ 0x3f
 8001764:	d809      	bhi.n	800177a <simpleserial_addcmd_flags+0x26>
	commands[num_commands].c   = c;
 8001766:	4c06      	ldr	r4, [pc, #24]	@ (8001780 <simpleserial_addcmd_flags+0x2c>)
 8001768:	0128      	lsls	r0, r5, #4
 800176a:	5506      	strb	r6, [r0, r4]
	commands[num_commands].len = len;
 800176c:	1820      	adds	r0, r4, r0
 800176e:	6041      	str	r1, [r0, #4]
	commands[num_commands].fp  = fp;
 8001770:	6082      	str	r2, [r0, #8]
	commands[num_commands].flags = fl;
 8001772:	7303      	strb	r3, [r0, #12]
	return 0;
 8001774:	2000      	movs	r0, #0
	num_commands++;
 8001776:	3501      	adds	r5, #1
 8001778:	603d      	str	r5, [r7, #0]
}
 800177a:	bdf0      	pop	{r4, r5, r6, r7, pc}
 800177c:	20000628 	.word	0x20000628
 8001780:	2000062c 	.word	0x2000062c

08001784 <simpleserial_addcmd>:
{
 8001784:	b510      	push	{r4, lr}
	return simpleserial_addcmd_flags(c, len, fp, CMD_FLAG_NONE);
 8001786:	2300      	movs	r3, #0
 8001788:	f7ff ffe4 	bl	8001754 <simpleserial_addcmd_flags>
}
 800178c:	bd10      	pop	{r4, pc}
 800178e:	0000      	movs	r0, r0

08001790 <simpleserial_init>:
{
 8001790:	b510      	push	{r4, lr}
	simpleserial_addcmd('v', 0, check_version);
 8001792:	2100      	movs	r1, #0
 8001794:	4a07      	ldr	r2, [pc, #28]	@ (80017b4 <simpleserial_init+0x24>)
 8001796:	2076      	movs	r0, #118	@ 0x76
 8001798:	f7ff fff4 	bl	8001784 <simpleserial_addcmd>
    simpleserial_addcmd('w', 0, ss_get_commands);
 800179c:	2100      	movs	r1, #0
 800179e:	4a06      	ldr	r2, [pc, #24]	@ (80017b8 <simpleserial_init+0x28>)
 80017a0:	2077      	movs	r0, #119	@ 0x77
 80017a2:	f7ff ffef 	bl	8001784 <simpleserial_addcmd>
    simpleserial_addcmd('y', 0, ss_num_commands);
 80017a6:	2100      	movs	r1, #0
 80017a8:	2079      	movs	r0, #121	@ 0x79
 80017aa:	4a04      	ldr	r2, [pc, #16]	@ (80017bc <simpleserial_init+0x2c>)
 80017ac:	f7ff ffea 	bl	8001784 <simpleserial_addcmd>
}
 80017b0:	bd10      	pop	{r4, pc}
 80017b2:	46c0      	nop			@ (mov r8, r8)
 80017b4:	08001641 	.word	0x08001641
 80017b8:	08001699 	.word	0x08001699
 80017bc:	0800167d 	.word	0x0800167d

080017c0 <simpleserial_get>:
{
 80017c0:	b5f0      	push	{r4, r5, r6, r7, lr}
	for(cmd = 0; cmd < num_commands; cmd++)
 80017c2:	2400      	movs	r4, #0
{
 80017c4:	b0b3      	sub	sp, #204	@ 0xcc
	c = getch();
 80017c6:	f000 f91d 	bl	8001a04 <getch>
	for(cmd = 0; cmd < num_commands; cmd++)
 80017ca:	4b29      	ldr	r3, [pc, #164]	@ (8001870 <simpleserial_get+0xb0>)
		if(commands[cmd].c == c)
 80017cc:	4a29      	ldr	r2, [pc, #164]	@ (8001874 <simpleserial_get+0xb4>)
	for(cmd = 0; cmd < num_commands; cmd++)
 80017ce:	681b      	ldr	r3, [r3, #0]
 80017d0:	42a3      	cmp	r3, r4
 80017d2:	dc3c      	bgt.n	800184e <simpleserial_get+0x8e>
	if(cmd == num_commands)
 80017d4:	d039      	beq.n	800184a <simpleserial_get+0x8a>
	if ((commands[cmd].flags & CMD_FLAG_LEN) != 0)
 80017d6:	2201      	movs	r2, #1
 80017d8:	4d26      	ldr	r5, [pc, #152]	@ (8001874 <simpleserial_get+0xb4>)
 80017da:	0124      	lsls	r4, r4, #4
 80017dc:	192f      	adds	r7, r5, r4
 80017de:	7b3b      	ldrb	r3, [r7, #12]
 80017e0:	4213      	tst	r3, r2
 80017e2:	d013      	beq.n	800180c <simpleserial_get+0x4c>
		uint8_t l = 0;
 80017e4:	466a      	mov	r2, sp
 80017e6:	2300      	movs	r3, #0
 80017e8:	7213      	strb	r3, [r2, #8]
		buff[0] = getch();
 80017ea:	f000 f90b 	bl	8001a04 <getch>
 80017ee:	ae12      	add	r6, sp, #72	@ 0x48
 80017f0:	7030      	strb	r0, [r6, #0]
		buff[1] = getch();
 80017f2:	f000 f907 	bl	8001a04 <getch>
		if (hex_decode(1, buff, &l))
 80017f6:	0031      	movs	r1, r6
		buff[1] = getch();
 80017f8:	7070      	strb	r0, [r6, #1]
		if (hex_decode(1, buff, &l))
 80017fa:	aa02      	add	r2, sp, #8
 80017fc:	2001      	movs	r0, #1
 80017fe:	f7ff ff71 	bl	80016e4 <hex_decode>
 8001802:	2800      	cmp	r0, #0
 8001804:	d121      	bne.n	800184a <simpleserial_get+0x8a>
		commands[cmd].len = l;
 8001806:	466b      	mov	r3, sp
 8001808:	7a1b      	ldrb	r3, [r3, #8]
 800180a:	607b      	str	r3, [r7, #4]
	for(cmd = 0; cmd < num_commands; cmd++)
 800180c:	2600      	movs	r6, #0
	for(int i = 0; i < 2*commands[cmd].len; i++)
 800180e:	192b      	adds	r3, r5, r4
 8001810:	685b      	ldr	r3, [r3, #4]
 8001812:	005b      	lsls	r3, r3, #1
 8001814:	42b3      	cmp	r3, r6
 8001816:	d820      	bhi.n	800185a <simpleserial_get+0x9a>
	c = getch();
 8001818:	f000 f8f4 	bl	8001a04 <getch>
	if(c != '\n' && c != '\r')
 800181c:	280a      	cmp	r0, #10
 800181e:	d001      	beq.n	8001824 <simpleserial_get+0x64>
 8001820:	280d      	cmp	r0, #13
 8001822:	d112      	bne.n	800184a <simpleserial_get+0x8a>
	if(hex_decode(commands[cmd].len, ascii_buf, data_buf))
 8001824:	192d      	adds	r5, r5, r4
 8001826:	686c      	ldr	r4, [r5, #4]
 8001828:	aa02      	add	r2, sp, #8
 800182a:	0020      	movs	r0, r4
 800182c:	a912      	add	r1, sp, #72	@ 0x48
 800182e:	f7ff ff59 	bl	80016e4 <hex_decode>
 8001832:	2800      	cmp	r0, #0
 8001834:	d109      	bne.n	800184a <simpleserial_get+0x8a>
	ret[0] = commands[cmd].fp(data_buf, commands[cmd].len);
 8001836:	b2e1      	uxtb	r1, r4
 8001838:	68ab      	ldr	r3, [r5, #8]
 800183a:	a802      	add	r0, sp, #8
 800183c:	4798      	blx	r3
 800183e:	aa01      	add	r2, sp, #4
 8001840:	7010      	strb	r0, [r2, #0]
    if (!output) return;
 8001842:	2101      	movs	r1, #1
 8001844:	207a      	movs	r0, #122	@ 0x7a
 8001846:	f7ff fefd 	bl	8001644 <simpleserial_put.part.0>
}
 800184a:	b033      	add	sp, #204	@ 0xcc
 800184c:	bdf0      	pop	{r4, r5, r6, r7, pc}
		if(commands[cmd].c == c)
 800184e:	0121      	lsls	r1, r4, #4
 8001850:	5c51      	ldrb	r1, [r2, r1]
 8001852:	4281      	cmp	r1, r0
 8001854:	d0bf      	beq.n	80017d6 <simpleserial_get+0x16>
	for(cmd = 0; cmd < num_commands; cmd++)
 8001856:	3401      	adds	r4, #1
 8001858:	e7ba      	b.n	80017d0 <simpleserial_get+0x10>
		c = getch();
 800185a:	f000 f8d3 	bl	8001a04 <getch>
		if(c == '\n' || c == '\r')
 800185e:	280a      	cmp	r0, #10
 8001860:	d0f3      	beq.n	800184a <simpleserial_get+0x8a>
 8001862:	280d      	cmp	r0, #13
 8001864:	d0f1      	beq.n	800184a <simpleserial_get+0x8a>
		ascii_buf[i] = c;
 8001866:	ab12      	add	r3, sp, #72	@ 0x48
 8001868:	54f0      	strb	r0, [r6, r3]
	for(int i = 0; i < 2*commands[cmd].len; i++)
 800186a:	3601      	adds	r6, #1
 800186c:	e7cf      	b.n	800180e <simpleserial_get+0x4e>
 800186e:	46c0      	nop			@ (mov r8, r8)
 8001870:	20000628 	.word	0x20000628
 8001874:	2000062c 	.word	0x2000062c

08001878 <simpleserial_put>:
{
 8001878:	b510      	push	{r4, lr}
    if (!output) return;
 800187a:	2a00      	cmp	r2, #0
 800187c:	d001      	beq.n	8001882 <simpleserial_put+0xa>
 800187e:	f7ff fee1 	bl	8001644 <simpleserial_put.part.0>
}
 8001882:	bd10      	pop	{r4, pc}

08001884 <platform_init>:
    GPIO_InitTypeDef GpioInit;
	GpioInit.Pin       = GPIO_PIN_2;
	GpioInit.Mode      = GPIO_MODE_OUTPUT_PP;
	GpioInit.Pull      = GPIO_NOPULL;
	GpioInit.Speed     = GPIO_SPEED_FREQ_HIGH;
	HAL_GPIO_Init(GPIOA, &GpioInit);
 8001884:	2090      	movs	r0, #144	@ 0x90
{
 8001886:	b570      	push	{r4, r5, r6, lr}
	GpioInit.Pin       = GPIO_PIN_2;
 8001888:	2304      	movs	r3, #4
	GpioInit.Pull      = GPIO_NOPULL;
 800188a:	2400      	movs	r4, #0
	GpioInit.Mode      = GPIO_MODE_OUTPUT_PP;
 800188c:	2501      	movs	r5, #1
	GpioInit.Speed     = GPIO_SPEED_FREQ_HIGH;
 800188e:	2603      	movs	r6, #3
{
 8001890:	b096      	sub	sp, #88	@ 0x58
	HAL_GPIO_Init(GPIOA, &GpioInit);
 8001892:	a905      	add	r1, sp, #20
 8001894:	05c0      	lsls	r0, r0, #23
	GpioInit.Pin       = GPIO_PIN_2;
 8001896:	9305      	str	r3, [sp, #20]
	GpioInit.Mode      = GPIO_MODE_OUTPUT_PP;
 8001898:	9506      	str	r5, [sp, #24]
	GpioInit.Pull      = GPIO_NOPULL;
 800189a:	9407      	str	r4, [sp, #28]
	GpioInit.Speed     = GPIO_SPEED_FREQ_HIGH;
 800189c:	9608      	str	r6, [sp, #32]
	HAL_GPIO_Init(GPIOA, &GpioInit);
 800189e:	f000 fb47 	bl	8001f30 <HAL_GPIO_Init>
    
	GpioInit.Pin       = GPIO_PIN_4;
	GpioInit.Mode      = GPIO_MODE_OUTPUT_PP;
	GpioInit.Pull      = GPIO_NOPULL;
	GpioInit.Speed     = GPIO_SPEED_FREQ_HIGH;
	HAL_GPIO_Init(GPIOA, &GpioInit);
 80018a2:	2090      	movs	r0, #144	@ 0x90
	GpioInit.Pin       = GPIO_PIN_4;
 80018a4:	2310      	movs	r3, #16
	HAL_GPIO_Init(GPIOA, &GpioInit);
 80018a6:	a905      	add	r1, sp, #20
 80018a8:	05c0      	lsls	r0, r0, #23
	GpioInit.Pin       = GPIO_PIN_4;
 80018aa:	9305      	str	r3, [sp, #20]
	GpioInit.Mode      = GPIO_MODE_OUTPUT_PP;
 80018ac:	9506      	str	r5, [sp, #24]
	GpioInit.Pull      = GPIO_NOPULL;
 80018ae:	9407      	str	r4, [sp, #28]
	GpioInit.Speed     = GPIO_SPEED_FREQ_HIGH;
 80018b0:	9608      	str	r6, [sp, #32]
	HAL_GPIO_Init(GPIOA, &GpioInit);
 80018b2:	f000 fb3d 	bl	8001f30 <HAL_GPIO_Init>
  uint32_t flash_latency = 0;
  HAL_RCC_ClockConfig(&RCC_ClkInitStruct, flash_latency);
#else
	RCC_OscInitTypeDef RCC_OscInitStruct;
	RCC_OscInitStruct.OscillatorType = RCC_OSCILLATORTYPE_HSE | RCC_OSCILLATORTYPE_HSI;
	RCC_OscInitStruct.HSEState       = RCC_HSE_BYPASS;
 80018b6:	2305      	movs	r3, #5
	RCC_OscInitStruct.HSIState       = RCC_HSI_OFF;
	RCC_OscInitStruct.PLL.PLLSource  = RCC_PLL_NONE;
	HAL_RCC_OscConfig(&RCC_OscInitStruct);
 80018b8:	a80a      	add	r0, sp, #40	@ 0x28
	RCC_OscInitStruct.HSEState       = RCC_HSE_BYPASS;
 80018ba:	930b      	str	r3, [sp, #44]	@ 0x2c
	RCC_OscInitStruct.OscillatorType = RCC_OSCILLATORTYPE_HSE | RCC_OSCILLATORTYPE_HSI;
 80018bc:	960a      	str	r6, [sp, #40]	@ 0x28
	RCC_OscInitStruct.HSIState       = RCC_HSI_OFF;
 80018be:	940d      	str	r4, [sp, #52]	@ 0x34
	RCC_OscInitStruct.PLL.PLLSource  = RCC_PLL_NONE;
 80018c0:	9413      	str	r4, [sp, #76]	@ 0x4c
	HAL_RCC_OscConfig(&RCC_OscInitStruct);
 80018c2:	f000 f8cd 	bl	8001a60 <HAL_RCC_OscConfig>

	RCC_ClkInitTypeDef RCC_ClkInitStruct;
	RCC_ClkInitStruct.ClockType      = (RCC_CLOCKTYPE_SYSCLK | RCC_CLOCKTYPE_HCLK | RCC_CLOCKTYPE_PCLK1);
 80018c6:	2307      	movs	r3, #7
	RCC_ClkInitStruct.SYSCLKSource   = RCC_SYSCLKSOURCE_HSE;
	RCC_ClkInitStruct.AHBCLKDivider  = RCC_SYSCLK_DIV1;
	RCC_ClkInitStruct.APB1CLKDivider = RCC_HCLK_DIV1;
	HAL_RCC_ClockConfig(&RCC_ClkInitStruct, FLASH_LATENCY_0);
 80018c8:	0021      	movs	r1, r4
 80018ca:	a801      	add	r0, sp, #4
	RCC_ClkInitStruct.ClockType      = (RCC_CLOCKTYPE_SYSCLK | RCC_CLOCKTYPE_HCLK | RCC_CLOCKTYPE_PCLK1);
 80018cc:	9301      	str	r3, [sp, #4]
	RCC_ClkInitStruct.SYSCLKSource   = RCC_SYSCLKSOURCE_HSE;
 80018ce:	9502      	str	r5, [sp, #8]
	RCC_ClkInitStruct.AHBCLKDivider  = RCC_SYSCLK_DIV1;
 80018d0:	9403      	str	r4, [sp, #12]
	RCC_ClkInitStruct.APB1CLKDivider = RCC_HCLK_DIV1;
 80018d2:	9404      	str	r4, [sp, #16]
	HAL_RCC_ClockConfig(&RCC_ClkInitStruct, FLASH_LATENCY_0);
 80018d4:	f000 faa2 	bl	8001e1c <HAL_RCC_ClockConfig>
#endif
}
 80018d8:	b016      	add	sp, #88	@ 0x58
 80018da:	bd70      	pop	{r4, r5, r6, pc}

080018dc <init_uart>:

void init_uart(void)
{
	__HAL_RCC_GPIOA_CLK_ENABLE();
 80018dc:	2280      	movs	r2, #128	@ 0x80
{
 80018de:	b570      	push	{r4, r5, r6, lr}
	__HAL_RCC_GPIOA_CLK_ENABLE();
 80018e0:	4c1b      	ldr	r4, [pc, #108]	@ (8001950 <init_uart+0x74>)
 80018e2:	0292      	lsls	r2, r2, #10
 80018e4:	6963      	ldr	r3, [r4, #20]
{
 80018e6:	b088      	sub	sp, #32
	__HAL_RCC_GPIOA_CLK_ENABLE();
 80018e8:	4313      	orrs	r3, r2
 80018ea:	6163      	str	r3, [r4, #20]
 80018ec:	6963      	ldr	r3, [r4, #20]
	GpioInit.Pin       = GPIO_PIN_9 | GPIO_PIN_10;
	GpioInit.Mode      = GPIO_MODE_AF_PP;
	GpioInit.Pull      = GPIO_PULLUP;
	GpioInit.Speed     = GPIO_SPEED_FREQ_HIGH;
	GpioInit.Alternate = GPIO_AF1_USART1;
	HAL_GPIO_Init(GPIOA, &GpioInit);
 80018ee:	2090      	movs	r0, #144	@ 0x90
	__HAL_RCC_GPIOA_CLK_ENABLE();
 80018f0:	4013      	ands	r3, r2
 80018f2:	9301      	str	r3, [sp, #4]
 80018f4:	9b01      	ldr	r3, [sp, #4]
	GpioInit.Pin       = GPIO_PIN_9 | GPIO_PIN_10;
 80018f6:	23c0      	movs	r3, #192	@ 0xc0
 80018f8:	00db      	lsls	r3, r3, #3
	GpioInit.Pull      = GPIO_PULLUP;
 80018fa:	2501      	movs	r5, #1
	GpioInit.Speed     = GPIO_SPEED_FREQ_HIGH;
 80018fc:	2603      	movs	r6, #3
	GpioInit.Pin       = GPIO_PIN_9 | GPIO_PIN_10;
 80018fe:	9303      	str	r3, [sp, #12]
	GpioInit.Mode      = GPIO_MODE_AF_PP;
 8001900:	2302      	movs	r3, #2
	HAL_GPIO_Init(GPIOA, &GpioInit);
 8001902:	a903      	add	r1, sp, #12
 8001904:	05c0      	lsls	r0, r0, #23
	GpioInit.Mode      = GPIO_MODE_AF_PP;
 8001906:	9304      	str	r3, [sp, #16]
	GpioInit.Pull      = GPIO_PULLUP;
 8001908:	9505      	str	r5, [sp, #20]
	GpioInit.Alternate = GPIO_AF1_USART1;
 800190a:	9507      	str	r5, [sp, #28]
	GpioInit.Speed     = GPIO_SPEED_FREQ_HIGH;
 800190c:	9606      	str	r6, [sp, #24]
	HAL_GPIO_Init(GPIOA, &GpioInit);
 800190e:	f000 fb0f 	bl	8001f30 <HAL_GPIO_Init>

	__HAL_RCC_USART1_CLK_ENABLE();
 8001912:	2280      	movs	r2, #128	@ 0x80
 8001914:	69a3      	ldr	r3, [r4, #24]
 8001916:	01d2      	lsls	r2, r2, #7
 8001918:	4313      	orrs	r3, r2
 800191a:	61a3      	str	r3, [r4, #24]
 800191c:	69a3      	ldr	r3, [r4, #24]
	__HAL_RCC_USART1_CONFIG(RCC_USART1CLKSOURCE_SYSCLK);
	UartHandle.Instance        = USART1;
 800191e:	480d      	ldr	r0, [pc, #52]	@ (8001954 <init_uart+0x78>)
	__HAL_RCC_USART1_CLK_ENABLE();
 8001920:	4013      	ands	r3, r2
 8001922:	9302      	str	r3, [sp, #8]
 8001924:	9b02      	ldr	r3, [sp, #8]
	__HAL_RCC_USART1_CONFIG(RCC_USART1CLKSOURCE_SYSCLK);
 8001926:	6b23      	ldr	r3, [r4, #48]	@ 0x30
 8001928:	43b3      	bics	r3, r6
 800192a:	431d      	orrs	r5, r3
	UartHandle.Instance        = USART1;
 800192c:	4b0a      	ldr	r3, [pc, #40]	@ (8001958 <init_uart+0x7c>)
	__HAL_RCC_USART1_CONFIG(RCC_USART1CLKSOURCE_SYSCLK);
 800192e:	6325      	str	r5, [r4, #48]	@ 0x30
	UartHandle.Instance        = USART1;
 8001930:	6003      	str	r3, [r0, #0]
  #if SS_VER==SS_VER_2_1
  UartHandle.Init.BaudRate   = 230400;
  #else
  UartHandle.Init.BaudRate   = 38400;
 8001932:	2396      	movs	r3, #150	@ 0x96
 8001934:	021b      	lsls	r3, r3, #8
 8001936:	6043      	str	r3, [r0, #4]
  #endif
	UartHandle.Init.WordLength = UART_WORDLENGTH_8B;
 8001938:	2300      	movs	r3, #0
 800193a:	6083      	str	r3, [r0, #8]
	UartHandle.Init.StopBits   = UART_STOPBITS_1;
 800193c:	60c3      	str	r3, [r0, #12]
	UartHandle.Init.Parity     = UART_PARITY_NONE;
 800193e:	6103      	str	r3, [r0, #16]
	UartHandle.Init.HwFlowCtl  = UART_HWCONTROL_NONE;
 8001940:	6183      	str	r3, [r0, #24]
	UartHandle.Init.Mode       = UART_MODE_TX_RX;
 8001942:	330c      	adds	r3, #12
 8001944:	6143      	str	r3, [r0, #20]
	HAL_UART_Init(&UartHandle);
 8001946:	f000 fc5d 	bl	8002204 <HAL_UART_Init>
}
 800194a:	b008      	add	sp, #32
 800194c:	bd70      	pop	{r4, r5, r6, pc}
 800194e:	46c0      	nop			@ (mov r8, r8)
 8001950:	40021000 	.word	0x40021000
 8001954:	2000082c 	.word	0x2000082c
 8001958:	40013800 	.word	0x40013800

0800195c <trigger_setup>:

void trigger_setup(void)
{
	__HAL_RCC_GPIOA_CLK_ENABLE();
 800195c:	2180      	movs	r1, #128	@ 0x80
	GPIO_InitTypeDef GpioInit;
	GpioInit.Pin       = GPIO_PIN_7;
	GpioInit.Mode      = GPIO_MODE_OUTPUT_PP;
	GpioInit.Pull      = GPIO_NOPULL;
	GpioInit.Speed     = GPIO_SPEED_FREQ_HIGH;
	HAL_GPIO_Init(GPIOA, &GpioInit);
 800195e:	2090      	movs	r0, #144	@ 0x90
{
 8001960:	b5f0      	push	{r4, r5, r6, r7, lr}
	GpioInit.Mode      = GPIO_MODE_OUTPUT_PP;
 8001962:	2401      	movs	r4, #1
	GpioInit.Pull      = GPIO_NOPULL;
 8001964:	2500      	movs	r5, #0
	GpioInit.Speed     = GPIO_SPEED_FREQ_HIGH;
 8001966:	2603      	movs	r6, #3
	GpioInit.Pin       = GPIO_PIN_7;
 8001968:	2780      	movs	r7, #128	@ 0x80
	__HAL_RCC_GPIOA_CLK_ENABLE();
 800196a:	4b1d      	ldr	r3, [pc, #116]	@ (80019e0 <trigger_setup+0x84>)
 800196c:	0289      	lsls	r1, r1, #10
 800196e:	695a      	ldr	r2, [r3, #20]
{
 8001970:	b087      	sub	sp, #28
	__HAL_RCC_GPIOA_CLK_ENABLE();
 8001972:	430a      	orrs	r2, r1
 8001974:	615a      	str	r2, [r3, #20]
 8001976:	695b      	ldr	r3, [r3, #20]
	HAL_GPIO_Init(GPIOA, &GpioInit);
 8001978:	05c0      	lsls	r0, r0, #23
	__HAL_RCC_GPIOA_CLK_ENABLE();
 800197a:	400b      	ands	r3, r1
 800197c:	9300      	str	r3, [sp, #0]
	HAL_GPIO_Init(GPIOA, &GpioInit);
 800197e:	a901      	add	r1, sp, #4
	__HAL_RCC_GPIOA_CLK_ENABLE();
 8001980:	9b00      	ldr	r3, [sp, #0]
	GpioInit.Pin       = GPIO_PIN_7;
 8001982:	9701      	str	r7, [sp, #4]
	GpioInit.Mode      = GPIO_MODE_OUTPUT_PP;
 8001984:	9402      	str	r4, [sp, #8]
	GpioInit.Pull      = GPIO_NOPULL;
 8001986:	9503      	str	r5, [sp, #12]
	GpioInit.Speed     = GPIO_SPEED_FREQ_HIGH;
 8001988:	9604      	str	r6, [sp, #16]
	HAL_GPIO_Init(GPIOA, &GpioInit);
 800198a:	f000 fad1 	bl	8001f30 <HAL_GPIO_Init>

	GpioInit.Pin       = GPIO_PIN_4;
	GpioInit.Mode      = GPIO_MODE_OUTPUT_PP;
	GpioInit.Pull      = GPIO_NOPULL;
	GpioInit.Speed     = GPIO_SPEED_FREQ_HIGH;
	HAL_GPIO_Init(GPIOA, &GpioInit);
 800198e:	2090      	movs	r0, #144	@ 0x90
	GpioInit.Pin       = GPIO_PIN_4;
 8001990:	2310      	movs	r3, #16
	HAL_GPIO_Init(GPIOA, &GpioInit);
 8001992:	a901      	add	r1, sp, #4
 8001994:	05c0      	lsls	r0, r0, #23
	GpioInit.Pin       = GPIO_PIN_4;
 8001996:	9301      	str	r3, [sp, #4]
	GpioInit.Mode      = GPIO_MODE_OUTPUT_PP;
 8001998:	9402      	str	r4, [sp, #8]
	GpioInit.Pull      = GPIO_NOPULL;
 800199a:	9503      	str	r5, [sp, #12]
	GpioInit.Speed     = GPIO_SPEED_FREQ_HIGH;
 800199c:	9604      	str	r6, [sp, #16]
	HAL_GPIO_Init(GPIOA, &GpioInit);
 800199e:	f000 fac7 	bl	8001f30 <HAL_GPIO_Init>

	GpioInit.Pin       = GPIO_PIN_2;
	GpioInit.Mode      = GPIO_MODE_OUTPUT_PP;
	GpioInit.Pull      = GPIO_NOPULL;
	GpioInit.Speed     = GPIO_SPEED_FREQ_HIGH;
	HAL_GPIO_Init(GPIOA, &GpioInit);
 80019a2:	2090      	movs	r0, #144	@ 0x90
	GpioInit.Pin       = GPIO_PIN_2;
 80019a4:	2304      	movs	r3, #4
	HAL_GPIO_Init(GPIOA, &GpioInit);
 80019a6:	a901      	add	r1, sp, #4
 80019a8:	05c0      	lsls	r0, r0, #23
	GpioInit.Pin       = GPIO_PIN_2;
 80019aa:	9301      	str	r3, [sp, #4]
	GpioInit.Mode      = GPIO_MODE_OUTPUT_PP;
 80019ac:	9402      	str	r4, [sp, #8]
	GpioInit.Pull      = GPIO_NOPULL;
 80019ae:	9503      	str	r5, [sp, #12]
	GpioInit.Speed     = GPIO_SPEED_FREQ_HIGH;
 80019b0:	9604      	str	r6, [sp, #16]
	HAL_GPIO_Init(GPIOA, &GpioInit);
 80019b2:	f000 fabd 	bl	8001f30 <HAL_GPIO_Init>
	
	HAL_GPIO_WritePin(GPIOA, GPIO_PIN_7, RESET);
 80019b6:	2090      	movs	r0, #144	@ 0x90
 80019b8:	002a      	movs	r2, r5
 80019ba:	0039      	movs	r1, r7
 80019bc:	05c0      	lsls	r0, r0, #23
 80019be:	f000 fb69 	bl	8002094 <HAL_GPIO_WritePin>
	HAL_GPIO_WritePin(GPIOA, GPIO_PIN_4, SET);
 80019c2:	2090      	movs	r0, #144	@ 0x90
 80019c4:	0022      	movs	r2, r4
 80019c6:	2110      	movs	r1, #16
 80019c8:	05c0      	lsls	r0, r0, #23
 80019ca:	f000 fb63 	bl	8002094 <HAL_GPIO_WritePin>
	HAL_GPIO_WritePin(GPIOA, GPIO_PIN_2, SET);
 80019ce:	2090      	movs	r0, #144	@ 0x90
 80019d0:	0022      	movs	r2, r4
 80019d2:	2104      	movs	r1, #4
 80019d4:	05c0      	lsls	r0, r0, #23
 80019d6:	f000 fb5d 	bl	8002094 <HAL_GPIO_WritePin>
}
 80019da:	b007      	add	sp, #28
 80019dc:	bdf0      	pop	{r4, r5, r6, r7, pc}
 80019de:	46c0      	nop			@ (mov r8, r8)
 80019e0:	40021000 	.word	0x40021000

080019e4 <trigger_high>:

void trigger_high(void)
{
	HAL_GPIO_WritePin(GPIOA, GPIO_PIN_7, SET);
 80019e4:	2090      	movs	r0, #144	@ 0x90
{
 80019e6:	b510      	push	{r4, lr}
	HAL_GPIO_WritePin(GPIOA, GPIO_PIN_7, SET);
 80019e8:	2201      	movs	r2, #1
 80019ea:	2180      	movs	r1, #128	@ 0x80
 80019ec:	05c0      	lsls	r0, r0, #23
 80019ee:	f000 fb51 	bl	8002094 <HAL_GPIO_WritePin>
}
 80019f2:	bd10      	pop	{r4, pc}

080019f4 <trigger_low>:

void trigger_low(void)
{
	HAL_GPIO_WritePin(GPIOA, GPIO_PIN_7, RESET);
 80019f4:	2090      	movs	r0, #144	@ 0x90
{
 80019f6:	b510      	push	{r4, lr}
	HAL_GPIO_WritePin(GPIOA, GPIO_PIN_7, RESET);
 80019f8:	2200      	movs	r2, #0
 80019fa:	2180      	movs	r1, #128	@ 0x80
 80019fc:	05c0      	lsls	r0, r0, #23
 80019fe:	f000 fb49 	bl	8002094 <HAL_GPIO_WritePin>
}   
 8001a02:	bd10      	pop	{r4, pc}

08001a04 <getch>:

char getch(void)
{
 8001a04:	b537      	push	{r0, r1, r2, r4, r5, lr}
	uint8_t d;
	while(HAL_UART_Receive(&UartHandle, &d, 1, 50) != HAL_OK)
		USART1->ICR |= (1 << 3); // make sure overrun error is cleared, otherwise can stall here
 8001a06:	2408      	movs	r4, #8
	while(HAL_UART_Receive(&UartHandle, &d, 1, 50) != HAL_OK)
 8001a08:	466b      	mov	r3, sp
 8001a0a:	1ddd      	adds	r5, r3, #7
 8001a0c:	2201      	movs	r2, #1
 8001a0e:	2332      	movs	r3, #50	@ 0x32
 8001a10:	0029      	movs	r1, r5
 8001a12:	4806      	ldr	r0, [pc, #24]	@ (8001a2c <getch+0x28>)
 8001a14:	f000 fc28 	bl	8002268 <HAL_UART_Receive>
 8001a18:	2800      	cmp	r0, #0
 8001a1a:	d101      	bne.n	8001a20 <getch+0x1c>
	return d;
 8001a1c:	7828      	ldrb	r0, [r5, #0]
}
 8001a1e:	bd3e      	pop	{r1, r2, r3, r4, r5, pc}
		USART1->ICR |= (1 << 3); // make sure overrun error is cleared, otherwise can stall here
 8001a20:	4a03      	ldr	r2, [pc, #12]	@ (8001a30 <getch+0x2c>)
 8001a22:	6a13      	ldr	r3, [r2, #32]
 8001a24:	4323      	orrs	r3, r4
 8001a26:	6213      	str	r3, [r2, #32]
 8001a28:	e7ee      	b.n	8001a08 <getch+0x4>
 8001a2a:	46c0      	nop			@ (mov r8, r8)
 8001a2c:	2000082c 	.word	0x2000082c
 8001a30:	40013800 	.word	0x40013800

08001a34 <putch>:

void putch(char c)
{
 8001a34:	b507      	push	{r0, r1, r2, lr}
	uint8_t d  = c;
 8001a36:	466b      	mov	r3, sp
 8001a38:	1dd9      	adds	r1, r3, #7
 8001a3a:	7008      	strb	r0, [r1, #0]
	HAL_UART_Transmit(&UartHandle,  &d, 1, 5000);
 8001a3c:	2201      	movs	r2, #1
 8001a3e:	4802      	ldr	r0, [pc, #8]	@ (8001a48 <putch+0x14>)
 8001a40:	4b02      	ldr	r3, [pc, #8]	@ (8001a4c <putch+0x18>)
 8001a42:	f000 fc87 	bl	8002354 <HAL_UART_Transmit>
}
 8001a46:	bd07      	pop	{r0, r1, r2, pc}
 8001a48:	2000082c 	.word	0x2000082c
 8001a4c:	00001388 	.word	0x00001388

08001a50 <HAL_GetTick>:
#define assert_param(expr) ((void)0U)

uint32_t HAL_GetTick(void)
{
	static uint32_t tick;
	return tick++;;
 8001a50:	4b02      	ldr	r3, [pc, #8]	@ (8001a5c <HAL_GetTick+0xc>)
 8001a52:	6818      	ldr	r0, [r3, #0]
 8001a54:	1c42      	adds	r2, r0, #1
 8001a56:	601a      	str	r2, [r3, #0]
}
 8001a58:	4770      	bx	lr
 8001a5a:	46c0      	nop			@ (mov r8, r8)
 8001a5c:	2000089c 	.word	0x2000089c

08001a60 <HAL_RCC_OscConfig>:
  *         supported by this macro. User should request a transition to HSE Off
  *         first and then HSE On or HSE Bypass.
  * @retval HAL status
  */
HAL_StatusTypeDef HAL_RCC_OscConfig(RCC_OscInitTypeDef  *RCC_OscInitStruct)
{
 8001a60:	b5f0      	push	{r4, r5, r6, r7, lr}
  /* Check the parameters */
  assert_param(RCC_OscInitStruct != NULL);
  assert_param(IS_RCC_OSCILLATORTYPE(RCC_OscInitStruct->OscillatorType));

  /*------------------------------- HSE Configuration ------------------------*/ 
  if(((RCC_OscInitStruct->OscillatorType) & RCC_OSCILLATORTYPE_HSE) == RCC_OSCILLATORTYPE_HSE)
 8001a62:	6803      	ldr	r3, [r0, #0]
{
 8001a64:	0004      	movs	r4, r0
 8001a66:	b085      	sub	sp, #20
  if(((RCC_OscInitStruct->OscillatorType) & RCC_OSCILLATORTYPE_HSE) == RCC_OSCILLATORTYPE_HSE)
 8001a68:	07db      	lsls	r3, r3, #31
 8001a6a:	d42f      	bmi.n	8001acc <HAL_RCC_OscConfig+0x6c>
        }
      }
    }
  }
  /*----------------------------- HSI Configuration --------------------------*/ 
  if(((RCC_OscInitStruct->OscillatorType) & RCC_OSCILLATORTYPE_HSI) == RCC_OSCILLATORTYPE_HSI)
 8001a6c:	6823      	ldr	r3, [r4, #0]
 8001a6e:	079b      	lsls	r3, r3, #30
 8001a70:	d500      	bpl.n	8001a74 <HAL_RCC_OscConfig+0x14>
 8001a72:	e081      	b.n	8001b78 <HAL_RCC_OscConfig+0x118>
        }
      }
    }
  }
  /*------------------------------ LSI Configuration -------------------------*/ 
  if(((RCC_OscInitStruct->OscillatorType) & RCC_OSCILLATORTYPE_LSI) == RCC_OSCILLATORTYPE_LSI)
 8001a74:	6823      	ldr	r3, [r4, #0]
 8001a76:	071b      	lsls	r3, r3, #28
 8001a78:	d500      	bpl.n	8001a7c <HAL_RCC_OscConfig+0x1c>
 8001a7a:	e0bc      	b.n	8001bf6 <HAL_RCC_OscConfig+0x196>
        }
      }
    }
  }
  /*------------------------------ LSE Configuration -------------------------*/ 
  if(((RCC_OscInitStruct->OscillatorType) & RCC_OSCILLATORTYPE_LSE) == RCC_OSCILLATORTYPE_LSE)
 8001a7c:	6823      	ldr	r3, [r4, #0]
 8001a7e:	075b      	lsls	r3, r3, #29
 8001a80:	d500      	bpl.n	8001a84 <HAL_RCC_OscConfig+0x24>
 8001a82:	e0df      	b.n	8001c44 <HAL_RCC_OscConfig+0x1e4>
      __HAL_RCC_PWR_CLK_DISABLE();
    }
  }

  /*----------------------------- HSI14 Configuration --------------------------*/
  if(((RCC_OscInitStruct->OscillatorType) & RCC_OSCILLATORTYPE_HSI14) == RCC_OSCILLATORTYPE_HSI14)
 8001a84:	6823      	ldr	r3, [r4, #0]
 8001a86:	06db      	lsls	r3, r3, #27
 8001a88:	d51a      	bpl.n	8001ac0 <HAL_RCC_OscConfig+0x60>
    /* Check the parameters */
    assert_param(IS_RCC_HSI14(RCC_OscInitStruct->HSI14State));
    assert_param(IS_RCC_CALIBRATION_VALUE(RCC_OscInitStruct->HSI14CalibrationValue));

    /* Check the HSI14 State */
    if(RCC_OscInitStruct->HSI14State == RCC_HSI14_ON)
 8001a8a:	6962      	ldr	r2, [r4, #20]
 8001a8c:	2304      	movs	r3, #4
 8001a8e:	4db4      	ldr	r5, [pc, #720]	@ (8001d60 <HAL_RCC_OscConfig+0x300>)
 8001a90:	2a01      	cmp	r2, #1
 8001a92:	d000      	beq.n	8001a96 <HAL_RCC_OscConfig+0x36>
 8001a94:	e148      	b.n	8001d28 <HAL_RCC_OscConfig+0x2c8>
    {
      /* Disable ADC control of the Internal High Speed oscillator HSI14 */
      __HAL_RCC_HSI14ADC_DISABLE();
 8001a96:	6b69      	ldr	r1, [r5, #52]	@ 0x34

      /* Get Start Tick */
      tickstart = HAL_GetTick();
      
      /* Wait till HSI is ready */  
      while(__HAL_RCC_GET_FLAG(RCC_FLAG_HSI14RDY) == RESET)
 8001a98:	2702      	movs	r7, #2
      __HAL_RCC_HSI14ADC_DISABLE();
 8001a9a:	430b      	orrs	r3, r1
 8001a9c:	636b      	str	r3, [r5, #52]	@ 0x34
      __HAL_RCC_HSI14_ENABLE();
 8001a9e:	6b6b      	ldr	r3, [r5, #52]	@ 0x34
 8001aa0:	431a      	orrs	r2, r3
 8001aa2:	636a      	str	r2, [r5, #52]	@ 0x34
      tickstart = HAL_GetTick();
 8001aa4:	f7ff ffd4 	bl	8001a50 <HAL_GetTick>
 8001aa8:	0006      	movs	r6, r0
      while(__HAL_RCC_GET_FLAG(RCC_FLAG_HSI14RDY) == RESET)
 8001aaa:	6b6b      	ldr	r3, [r5, #52]	@ 0x34
 8001aac:	423b      	tst	r3, r7
 8001aae:	d100      	bne.n	8001ab2 <HAL_RCC_OscConfig+0x52>
 8001ab0:	e133      	b.n	8001d1a <HAL_RCC_OscConfig+0x2ba>
    {
      /* Enable ADC control of the Internal High Speed oscillator HSI14 */
      __HAL_RCC_HSI14ADC_ENABLE();

      /* Adjusts the Internal High Speed oscillator 14Mhz (HSI14) calibration value. */
      __HAL_RCC_HSI14_CALIBRATIONVALUE_ADJUST(RCC_OscInitStruct->HSI14CalibrationValue);
 8001ab2:	21f8      	movs	r1, #248	@ 0xf8
 8001ab4:	6b6a      	ldr	r2, [r5, #52]	@ 0x34
 8001ab6:	69a3      	ldr	r3, [r4, #24]
 8001ab8:	438a      	bics	r2, r1
 8001aba:	00db      	lsls	r3, r3, #3
 8001abc:	4313      	orrs	r3, r2
 8001abe:	636b      	str	r3, [r5, #52]	@ 0x34
#endif /* RCC_HSI48_SUPPORT */
       
  /*-------------------------------- PLL Configuration -----------------------*/
  /* Check the parameters */
  assert_param(IS_RCC_PLL(RCC_OscInitStruct->PLL.PLLState));
  if ((RCC_OscInitStruct->PLL.PLLState) != RCC_PLL_NONE)
 8001ac0:	6a21      	ldr	r1, [r4, #32]
 8001ac2:	2900      	cmp	r1, #0
 8001ac4:	d000      	beq.n	8001ac8 <HAL_RCC_OscConfig+0x68>
 8001ac6:	e157      	b.n	8001d78 <HAL_RCC_OscConfig+0x318>
    {
      return HAL_ERROR;
    }
  }
  
  return HAL_OK;
 8001ac8:	2000      	movs	r0, #0
 8001aca:	e02a      	b.n	8001b22 <HAL_RCC_OscConfig+0xc2>
    if((__HAL_RCC_GET_SYSCLK_SOURCE() == RCC_SYSCLKSOURCE_STATUS_HSE) 
 8001acc:	220c      	movs	r2, #12
 8001ace:	4da4      	ldr	r5, [pc, #656]	@ (8001d60 <HAL_RCC_OscConfig+0x300>)
 8001ad0:	686b      	ldr	r3, [r5, #4]
 8001ad2:	4013      	ands	r3, r2
 8001ad4:	2b04      	cmp	r3, #4
 8001ad6:	d006      	beq.n	8001ae6 <HAL_RCC_OscConfig+0x86>
       || ((__HAL_RCC_GET_SYSCLK_SOURCE() == RCC_SYSCLKSOURCE_STATUS_PLLCLK) && (__HAL_RCC_GET_PLL_OSCSOURCE() == RCC_PLLSOURCE_HSE)))
 8001ad8:	686b      	ldr	r3, [r5, #4]
 8001ada:	4013      	ands	r3, r2
 8001adc:	2b08      	cmp	r3, #8
 8001ade:	d10a      	bne.n	8001af6 <HAL_RCC_OscConfig+0x96>
 8001ae0:	686b      	ldr	r3, [r5, #4]
 8001ae2:	03db      	lsls	r3, r3, #15
 8001ae4:	d507      	bpl.n	8001af6 <HAL_RCC_OscConfig+0x96>
      if((__HAL_RCC_GET_FLAG(RCC_FLAG_HSERDY) != RESET) && (RCC_OscInitStruct->HSEState == RCC_HSE_OFF))
 8001ae6:	682b      	ldr	r3, [r5, #0]
 8001ae8:	039b      	lsls	r3, r3, #14
 8001aea:	d5bf      	bpl.n	8001a6c <HAL_RCC_OscConfig+0xc>
 8001aec:	6863      	ldr	r3, [r4, #4]
 8001aee:	2b00      	cmp	r3, #0
 8001af0:	d1bc      	bne.n	8001a6c <HAL_RCC_OscConfig+0xc>
        return HAL_ERROR;
 8001af2:	2001      	movs	r0, #1
 8001af4:	e015      	b.n	8001b22 <HAL_RCC_OscConfig+0xc2>
      __HAL_RCC_HSE_CONFIG(RCC_OscInitStruct->HSEState);
 8001af6:	6863      	ldr	r3, [r4, #4]
 8001af8:	2b01      	cmp	r3, #1
 8001afa:	d114      	bne.n	8001b26 <HAL_RCC_OscConfig+0xc6>
 8001afc:	2380      	movs	r3, #128	@ 0x80
 8001afe:	682a      	ldr	r2, [r5, #0]
 8001b00:	025b      	lsls	r3, r3, #9
 8001b02:	4313      	orrs	r3, r2
 8001b04:	602b      	str	r3, [r5, #0]
        tickstart = HAL_GetTick();
 8001b06:	f7ff ffa3 	bl	8001a50 <HAL_GetTick>
        while(__HAL_RCC_GET_FLAG(RCC_FLAG_HSERDY) == RESET)
 8001b0a:	2780      	movs	r7, #128	@ 0x80
        tickstart = HAL_GetTick();
 8001b0c:	0006      	movs	r6, r0
        while(__HAL_RCC_GET_FLAG(RCC_FLAG_HSERDY) == RESET)
 8001b0e:	02bf      	lsls	r7, r7, #10
 8001b10:	682b      	ldr	r3, [r5, #0]
 8001b12:	423b      	tst	r3, r7
 8001b14:	d1aa      	bne.n	8001a6c <HAL_RCC_OscConfig+0xc>
          if((HAL_GetTick() - tickstart ) > HSE_TIMEOUT_VALUE)
 8001b16:	f7ff ff9b 	bl	8001a50 <HAL_GetTick>
 8001b1a:	1b80      	subs	r0, r0, r6
 8001b1c:	2864      	cmp	r0, #100	@ 0x64
 8001b1e:	d9f7      	bls.n	8001b10 <HAL_RCC_OscConfig+0xb0>
            return HAL_TIMEOUT;
 8001b20:	2003      	movs	r0, #3
}
 8001b22:	b005      	add	sp, #20
 8001b24:	bdf0      	pop	{r4, r5, r6, r7, pc}
      __HAL_RCC_HSE_CONFIG(RCC_OscInitStruct->HSEState);
 8001b26:	2b00      	cmp	r3, #0
 8001b28:	d116      	bne.n	8001b58 <HAL_RCC_OscConfig+0xf8>
 8001b2a:	682b      	ldr	r3, [r5, #0]
 8001b2c:	4a8d      	ldr	r2, [pc, #564]	@ (8001d64 <HAL_RCC_OscConfig+0x304>)
        while(__HAL_RCC_GET_FLAG(RCC_FLAG_HSERDY) != RESET)
 8001b2e:	2780      	movs	r7, #128	@ 0x80
      __HAL_RCC_HSE_CONFIG(RCC_OscInitStruct->HSEState);
 8001b30:	4013      	ands	r3, r2
 8001b32:	602b      	str	r3, [r5, #0]
 8001b34:	682b      	ldr	r3, [r5, #0]
 8001b36:	4a8c      	ldr	r2, [pc, #560]	@ (8001d68 <HAL_RCC_OscConfig+0x308>)
        while(__HAL_RCC_GET_FLAG(RCC_FLAG_HSERDY) != RESET)
 8001b38:	02bf      	lsls	r7, r7, #10
      __HAL_RCC_HSE_CONFIG(RCC_OscInitStruct->HSEState);
 8001b3a:	4013      	ands	r3, r2
 8001b3c:	602b      	str	r3, [r5, #0]
        tickstart = HAL_GetTick();
 8001b3e:	f7ff ff87 	bl	8001a50 <HAL_GetTick>
 8001b42:	0006      	movs	r6, r0
        while(__HAL_RCC_GET_FLAG(RCC_FLAG_HSERDY) != RESET)
 8001b44:	682b      	ldr	r3, [r5, #0]
 8001b46:	423b      	tst	r3, r7
 8001b48:	d100      	bne.n	8001b4c <HAL_RCC_OscConfig+0xec>
 8001b4a:	e78f      	b.n	8001a6c <HAL_RCC_OscConfig+0xc>
           if((HAL_GetTick() - tickstart ) > HSE_TIMEOUT_VALUE)
 8001b4c:	f7ff ff80 	bl	8001a50 <HAL_GetTick>
 8001b50:	1b80      	subs	r0, r0, r6
 8001b52:	2864      	cmp	r0, #100	@ 0x64
 8001b54:	d9f6      	bls.n	8001b44 <HAL_RCC_OscConfig+0xe4>
 8001b56:	e7e3      	b.n	8001b20 <HAL_RCC_OscConfig+0xc0>
      __HAL_RCC_HSE_CONFIG(RCC_OscInitStruct->HSEState);
 8001b58:	2b05      	cmp	r3, #5
 8001b5a:	d105      	bne.n	8001b68 <HAL_RCC_OscConfig+0x108>
 8001b5c:	2380      	movs	r3, #128	@ 0x80
 8001b5e:	682a      	ldr	r2, [r5, #0]
 8001b60:	02db      	lsls	r3, r3, #11
 8001b62:	4313      	orrs	r3, r2
 8001b64:	602b      	str	r3, [r5, #0]
 8001b66:	e7c9      	b.n	8001afc <HAL_RCC_OscConfig+0x9c>
 8001b68:	682b      	ldr	r3, [r5, #0]
 8001b6a:	4a7e      	ldr	r2, [pc, #504]	@ (8001d64 <HAL_RCC_OscConfig+0x304>)
 8001b6c:	4013      	ands	r3, r2
 8001b6e:	602b      	str	r3, [r5, #0]
 8001b70:	682b      	ldr	r3, [r5, #0]
 8001b72:	4a7d      	ldr	r2, [pc, #500]	@ (8001d68 <HAL_RCC_OscConfig+0x308>)
 8001b74:	4013      	ands	r3, r2
 8001b76:	e7c5      	b.n	8001b04 <HAL_RCC_OscConfig+0xa4>
    if((__HAL_RCC_GET_SYSCLK_SOURCE() == RCC_SYSCLKSOURCE_STATUS_HSI) 
 8001b78:	220c      	movs	r2, #12
 8001b7a:	4d79      	ldr	r5, [pc, #484]	@ (8001d60 <HAL_RCC_OscConfig+0x300>)
 8001b7c:	686b      	ldr	r3, [r5, #4]
 8001b7e:	4213      	tst	r3, r2
 8001b80:	d006      	beq.n	8001b90 <HAL_RCC_OscConfig+0x130>
       || ((__HAL_RCC_GET_SYSCLK_SOURCE() == RCC_SYSCLKSOURCE_STATUS_PLLCLK) && (__HAL_RCC_GET_PLL_OSCSOURCE() == RCC_PLLSOURCE_HSI)))
 8001b82:	686b      	ldr	r3, [r5, #4]
 8001b84:	4013      	ands	r3, r2
 8001b86:	2b08      	cmp	r3, #8
 8001b88:	d110      	bne.n	8001bac <HAL_RCC_OscConfig+0x14c>
 8001b8a:	686b      	ldr	r3, [r5, #4]
 8001b8c:	03db      	lsls	r3, r3, #15
 8001b8e:	d40d      	bmi.n	8001bac <HAL_RCC_OscConfig+0x14c>
      if((__HAL_RCC_GET_FLAG(RCC_FLAG_HSIRDY) != RESET) && (RCC_OscInitStruct->HSIState != RCC_HSI_ON))
 8001b90:	682b      	ldr	r3, [r5, #0]
 8001b92:	079b      	lsls	r3, r3, #30
 8001b94:	d502      	bpl.n	8001b9c <HAL_RCC_OscConfig+0x13c>
 8001b96:	68e3      	ldr	r3, [r4, #12]
 8001b98:	2b01      	cmp	r3, #1
 8001b9a:	d1aa      	bne.n	8001af2 <HAL_RCC_OscConfig+0x92>
        __HAL_RCC_HSI_CALIBRATIONVALUE_ADJUST(RCC_OscInitStruct->HSICalibrationValue);
 8001b9c:	21f8      	movs	r1, #248	@ 0xf8
 8001b9e:	682a      	ldr	r2, [r5, #0]
 8001ba0:	6923      	ldr	r3, [r4, #16]
 8001ba2:	438a      	bics	r2, r1
 8001ba4:	00db      	lsls	r3, r3, #3
 8001ba6:	4313      	orrs	r3, r2
 8001ba8:	602b      	str	r3, [r5, #0]
 8001baa:	e763      	b.n	8001a74 <HAL_RCC_OscConfig+0x14>
      if(RCC_OscInitStruct->HSIState != RCC_HSI_OFF)
 8001bac:	68e2      	ldr	r2, [r4, #12]
 8001bae:	2301      	movs	r3, #1
 8001bb0:	2a00      	cmp	r2, #0
 8001bb2:	d00f      	beq.n	8001bd4 <HAL_RCC_OscConfig+0x174>
        __HAL_RCC_HSI_ENABLE();
 8001bb4:	682a      	ldr	r2, [r5, #0]
        while(__HAL_RCC_GET_FLAG(RCC_FLAG_HSIRDY) == RESET)
 8001bb6:	2702      	movs	r7, #2
        __HAL_RCC_HSI_ENABLE();
 8001bb8:	4313      	orrs	r3, r2
 8001bba:	602b      	str	r3, [r5, #0]
        tickstart = HAL_GetTick();
 8001bbc:	f7ff ff48 	bl	8001a50 <HAL_GetTick>
 8001bc0:	0006      	movs	r6, r0
        while(__HAL_RCC_GET_FLAG(RCC_FLAG_HSIRDY) == RESET)
 8001bc2:	682b      	ldr	r3, [r5, #0]
 8001bc4:	423b      	tst	r3, r7
 8001bc6:	d1e9      	bne.n	8001b9c <HAL_RCC_OscConfig+0x13c>
          if((HAL_GetTick() - tickstart ) > HSI_TIMEOUT_VALUE)
 8001bc8:	f7ff ff42 	bl	8001a50 <HAL_GetTick>
 8001bcc:	1b80      	subs	r0, r0, r6
 8001bce:	2802      	cmp	r0, #2
 8001bd0:	d9f7      	bls.n	8001bc2 <HAL_RCC_OscConfig+0x162>
 8001bd2:	e7a5      	b.n	8001b20 <HAL_RCC_OscConfig+0xc0>
        __HAL_RCC_HSI_DISABLE();
 8001bd4:	682a      	ldr	r2, [r5, #0]
        while(__HAL_RCC_GET_FLAG(RCC_FLAG_HSIRDY) != RESET)
 8001bd6:	2702      	movs	r7, #2
        __HAL_RCC_HSI_DISABLE();
 8001bd8:	439a      	bics	r2, r3
 8001bda:	602a      	str	r2, [r5, #0]
        tickstart = HAL_GetTick();
 8001bdc:	f7ff ff38 	bl	8001a50 <HAL_GetTick>
 8001be0:	0006      	movs	r6, r0
        while(__HAL_RCC_GET_FLAG(RCC_FLAG_HSIRDY) != RESET)
 8001be2:	682b      	ldr	r3, [r5, #0]
 8001be4:	423b      	tst	r3, r7
 8001be6:	d100      	bne.n	8001bea <HAL_RCC_OscConfig+0x18a>
 8001be8:	e744      	b.n	8001a74 <HAL_RCC_OscConfig+0x14>
          if((HAL_GetTick() - tickstart ) > HSI_TIMEOUT_VALUE)
 8001bea:	f7ff ff31 	bl	8001a50 <HAL_GetTick>
 8001bee:	1b80      	subs	r0, r0, r6
 8001bf0:	2802      	cmp	r0, #2
 8001bf2:	d9f6      	bls.n	8001be2 <HAL_RCC_OscConfig+0x182>
 8001bf4:	e794      	b.n	8001b20 <HAL_RCC_OscConfig+0xc0>
    if(RCC_OscInitStruct->LSIState != RCC_LSI_OFF)
 8001bf6:	69e2      	ldr	r2, [r4, #28]
 8001bf8:	2301      	movs	r3, #1
 8001bfa:	4d59      	ldr	r5, [pc, #356]	@ (8001d60 <HAL_RCC_OscConfig+0x300>)
 8001bfc:	2a00      	cmp	r2, #0
 8001bfe:	d010      	beq.n	8001c22 <HAL_RCC_OscConfig+0x1c2>
      __HAL_RCC_LSI_ENABLE();
 8001c00:	6a6a      	ldr	r2, [r5, #36]	@ 0x24
      while(__HAL_RCC_GET_FLAG(RCC_FLAG_LSIRDY) == RESET)
 8001c02:	2702      	movs	r7, #2
      __HAL_RCC_LSI_ENABLE();
 8001c04:	4313      	orrs	r3, r2
 8001c06:	626b      	str	r3, [r5, #36]	@ 0x24
      tickstart = HAL_GetTick();
 8001c08:	f7ff ff22 	bl	8001a50 <HAL_GetTick>
 8001c0c:	0006      	movs	r6, r0
      while(__HAL_RCC_GET_FLAG(RCC_FLAG_LSIRDY) == RESET)
 8001c0e:	6a6b      	ldr	r3, [r5, #36]	@ 0x24
 8001c10:	423b      	tst	r3, r7
 8001c12:	d000      	beq.n	8001c16 <HAL_RCC_OscConfig+0x1b6>
 8001c14:	e732      	b.n	8001a7c <HAL_RCC_OscConfig+0x1c>
        if((HAL_GetTick() - tickstart ) > LSI_TIMEOUT_VALUE)
 8001c16:	f7ff ff1b 	bl	8001a50 <HAL_GetTick>
 8001c1a:	1b80      	subs	r0, r0, r6
 8001c1c:	2802      	cmp	r0, #2
 8001c1e:	d9f6      	bls.n	8001c0e <HAL_RCC_OscConfig+0x1ae>
 8001c20:	e77e      	b.n	8001b20 <HAL_RCC_OscConfig+0xc0>
      __HAL_RCC_LSI_DISABLE();
 8001c22:	6a6a      	ldr	r2, [r5, #36]	@ 0x24
      while(__HAL_RCC_GET_FLAG(RCC_FLAG_LSIRDY) != RESET)
 8001c24:	2702      	movs	r7, #2
      __HAL_RCC_LSI_DISABLE();
 8001c26:	439a      	bics	r2, r3
 8001c28:	626a      	str	r2, [r5, #36]	@ 0x24
      tickstart = HAL_GetTick();
 8001c2a:	f7ff ff11 	bl	8001a50 <HAL_GetTick>
 8001c2e:	0006      	movs	r6, r0
      while(__HAL_RCC_GET_FLAG(RCC_FLAG_LSIRDY) != RESET)
 8001c30:	6a6b      	ldr	r3, [r5, #36]	@ 0x24
 8001c32:	423b      	tst	r3, r7
 8001c34:	d100      	bne.n	8001c38 <HAL_RCC_OscConfig+0x1d8>
 8001c36:	e721      	b.n	8001a7c <HAL_RCC_OscConfig+0x1c>
        if((HAL_GetTick() - tickstart ) > LSI_TIMEOUT_VALUE)
 8001c38:	f7ff ff0a 	bl	8001a50 <HAL_GetTick>
 8001c3c:	1b80      	subs	r0, r0, r6
 8001c3e:	2802      	cmp	r0, #2
 8001c40:	d9f6      	bls.n	8001c30 <HAL_RCC_OscConfig+0x1d0>
 8001c42:	e76d      	b.n	8001b20 <HAL_RCC_OscConfig+0xc0>
    if(__HAL_RCC_PWR_IS_CLK_DISABLED())
 8001c44:	2280      	movs	r2, #128	@ 0x80
    FlagStatus       pwrclkchanged = RESET;
 8001c46:	2100      	movs	r1, #0
    if(__HAL_RCC_PWR_IS_CLK_DISABLED())
 8001c48:	4d45      	ldr	r5, [pc, #276]	@ (8001d60 <HAL_RCC_OscConfig+0x300>)
 8001c4a:	0552      	lsls	r2, r2, #21
 8001c4c:	69eb      	ldr	r3, [r5, #28]
    FlagStatus       pwrclkchanged = RESET;
 8001c4e:	9100      	str	r1, [sp, #0]
    if(__HAL_RCC_PWR_IS_CLK_DISABLED())
 8001c50:	4213      	tst	r3, r2
 8001c52:	d108      	bne.n	8001c66 <HAL_RCC_OscConfig+0x206>
      __HAL_RCC_PWR_CLK_ENABLE();
 8001c54:	69eb      	ldr	r3, [r5, #28]
 8001c56:	4313      	orrs	r3, r2
 8001c58:	61eb      	str	r3, [r5, #28]
 8001c5a:	69eb      	ldr	r3, [r5, #28]
 8001c5c:	4013      	ands	r3, r2
 8001c5e:	9303      	str	r3, [sp, #12]
 8001c60:	9b03      	ldr	r3, [sp, #12]
      pwrclkchanged = SET;
 8001c62:	2301      	movs	r3, #1
 8001c64:	9300      	str	r3, [sp, #0]
    if(HAL_IS_BIT_CLR(PWR->CR, PWR_CR_DBP))
 8001c66:	2780      	movs	r7, #128	@ 0x80
 8001c68:	4e40      	ldr	r6, [pc, #256]	@ (8001d6c <HAL_RCC_OscConfig+0x30c>)
 8001c6a:	007f      	lsls	r7, r7, #1
 8001c6c:	6833      	ldr	r3, [r6, #0]
 8001c6e:	423b      	tst	r3, r7
 8001c70:	d015      	beq.n	8001c9e <HAL_RCC_OscConfig+0x23e>
    __HAL_RCC_LSE_CONFIG(RCC_OscInitStruct->LSEState);
 8001c72:	68a3      	ldr	r3, [r4, #8]
 8001c74:	2b01      	cmp	r3, #1
 8001c76:	d122      	bne.n	8001cbe <HAL_RCC_OscConfig+0x25e>
 8001c78:	6a2a      	ldr	r2, [r5, #32]
 8001c7a:	4313      	orrs	r3, r2
 8001c7c:	622b      	str	r3, [r5, #32]
      tickstart = HAL_GetTick();
 8001c7e:	f7ff fee7 	bl	8001a50 <HAL_GetTick>
      while(__HAL_RCC_GET_FLAG(RCC_FLAG_LSERDY) == RESET)
 8001c82:	2702      	movs	r7, #2
      tickstart = HAL_GetTick();
 8001c84:	0006      	movs	r6, r0
      while(__HAL_RCC_GET_FLAG(RCC_FLAG_LSERDY) == RESET)
 8001c86:	6a2b      	ldr	r3, [r5, #32]
 8001c88:	423b      	tst	r3, r7
 8001c8a:	d03f      	beq.n	8001d0c <HAL_RCC_OscConfig+0x2ac>
    if(pwrclkchanged == SET)
 8001c8c:	9b00      	ldr	r3, [sp, #0]
 8001c8e:	2b01      	cmp	r3, #1
 8001c90:	d000      	beq.n	8001c94 <HAL_RCC_OscConfig+0x234>
 8001c92:	e6f7      	b.n	8001a84 <HAL_RCC_OscConfig+0x24>
      __HAL_RCC_PWR_CLK_DISABLE();
 8001c94:	69eb      	ldr	r3, [r5, #28]
 8001c96:	4a36      	ldr	r2, [pc, #216]	@ (8001d70 <HAL_RCC_OscConfig+0x310>)
 8001c98:	4013      	ands	r3, r2
 8001c9a:	61eb      	str	r3, [r5, #28]
 8001c9c:	e6f2      	b.n	8001a84 <HAL_RCC_OscConfig+0x24>
      SET_BIT(PWR->CR, PWR_CR_DBP);
 8001c9e:	6833      	ldr	r3, [r6, #0]
 8001ca0:	433b      	orrs	r3, r7
 8001ca2:	6033      	str	r3, [r6, #0]
      tickstart = HAL_GetTick();
 8001ca4:	f7ff fed4 	bl	8001a50 <HAL_GetTick>
 8001ca8:	9001      	str	r0, [sp, #4]
      while(HAL_IS_BIT_CLR(PWR->CR, PWR_CR_DBP))
 8001caa:	6833      	ldr	r3, [r6, #0]
 8001cac:	423b      	tst	r3, r7
 8001cae:	d1e0      	bne.n	8001c72 <HAL_RCC_OscConfig+0x212>
        if((HAL_GetTick() - tickstart) > RCC_DBP_TIMEOUT_VALUE)
 8001cb0:	f7ff fece 	bl	8001a50 <HAL_GetTick>
 8001cb4:	9b01      	ldr	r3, [sp, #4]
 8001cb6:	1ac0      	subs	r0, r0, r3
 8001cb8:	2864      	cmp	r0, #100	@ 0x64
 8001cba:	d9f6      	bls.n	8001caa <HAL_RCC_OscConfig+0x24a>
 8001cbc:	e730      	b.n	8001b20 <HAL_RCC_OscConfig+0xc0>
    __HAL_RCC_LSE_CONFIG(RCC_OscInitStruct->LSEState);
 8001cbe:	2201      	movs	r2, #1
 8001cc0:	2b00      	cmp	r3, #0
 8001cc2:	d114      	bne.n	8001cee <HAL_RCC_OscConfig+0x28e>
 8001cc4:	6a2b      	ldr	r3, [r5, #32]
      while(__HAL_RCC_GET_FLAG(RCC_FLAG_LSERDY) != RESET)
 8001cc6:	2702      	movs	r7, #2
    __HAL_RCC_LSE_CONFIG(RCC_OscInitStruct->LSEState);
 8001cc8:	4393      	bics	r3, r2
 8001cca:	622b      	str	r3, [r5, #32]
 8001ccc:	6a2b      	ldr	r3, [r5, #32]
 8001cce:	3203      	adds	r2, #3
 8001cd0:	4393      	bics	r3, r2
 8001cd2:	622b      	str	r3, [r5, #32]
      tickstart = HAL_GetTick();
 8001cd4:	f7ff febc 	bl	8001a50 <HAL_GetTick>
 8001cd8:	0006      	movs	r6, r0
      while(__HAL_RCC_GET_FLAG(RCC_FLAG_LSERDY) != RESET)
 8001cda:	6a2b      	ldr	r3, [r5, #32]
 8001cdc:	423b      	tst	r3, r7
 8001cde:	d0d5      	beq.n	8001c8c <HAL_RCC_OscConfig+0x22c>
        if((HAL_GetTick() - tickstart ) > RCC_LSE_TIMEOUT_VALUE)
 8001ce0:	f7ff feb6 	bl	8001a50 <HAL_GetTick>
 8001ce4:	4b23      	ldr	r3, [pc, #140]	@ (8001d74 <HAL_RCC_OscConfig+0x314>)
 8001ce6:	1b80      	subs	r0, r0, r6
 8001ce8:	4298      	cmp	r0, r3
 8001cea:	d9f6      	bls.n	8001cda <HAL_RCC_OscConfig+0x27a>
 8001cec:	e718      	b.n	8001b20 <HAL_RCC_OscConfig+0xc0>
    __HAL_RCC_LSE_CONFIG(RCC_OscInitStruct->LSEState);
 8001cee:	2b05      	cmp	r3, #5
 8001cf0:	d105      	bne.n	8001cfe <HAL_RCC_OscConfig+0x29e>
 8001cf2:	6a29      	ldr	r1, [r5, #32]
 8001cf4:	3b01      	subs	r3, #1
 8001cf6:	430b      	orrs	r3, r1
 8001cf8:	622b      	str	r3, [r5, #32]
 8001cfa:	6a2b      	ldr	r3, [r5, #32]
 8001cfc:	e7bd      	b.n	8001c7a <HAL_RCC_OscConfig+0x21a>
 8001cfe:	6a2b      	ldr	r3, [r5, #32]
 8001d00:	4393      	bics	r3, r2
 8001d02:	2204      	movs	r2, #4
 8001d04:	622b      	str	r3, [r5, #32]
 8001d06:	6a2b      	ldr	r3, [r5, #32]
 8001d08:	4393      	bics	r3, r2
 8001d0a:	e7b7      	b.n	8001c7c <HAL_RCC_OscConfig+0x21c>
        if((HAL_GetTick() - tickstart ) > RCC_LSE_TIMEOUT_VALUE)
 8001d0c:	f7ff fea0 	bl	8001a50 <HAL_GetTick>
 8001d10:	4b18      	ldr	r3, [pc, #96]	@ (8001d74 <HAL_RCC_OscConfig+0x314>)
 8001d12:	1b80      	subs	r0, r0, r6
 8001d14:	4298      	cmp	r0, r3
 8001d16:	d9b6      	bls.n	8001c86 <HAL_RCC_OscConfig+0x226>
 8001d18:	e702      	b.n	8001b20 <HAL_RCC_OscConfig+0xc0>
        if((HAL_GetTick() - tickstart) > HSI14_TIMEOUT_VALUE)
 8001d1a:	f7ff fe99 	bl	8001a50 <HAL_GetTick>
 8001d1e:	1b80      	subs	r0, r0, r6
 8001d20:	2802      	cmp	r0, #2
 8001d22:	d800      	bhi.n	8001d26 <HAL_RCC_OscConfig+0x2c6>
 8001d24:	e6c1      	b.n	8001aaa <HAL_RCC_OscConfig+0x4a>
 8001d26:	e6fb      	b.n	8001b20 <HAL_RCC_OscConfig+0xc0>
    else if(RCC_OscInitStruct->HSI14State == RCC_HSI14_ADC_CONTROL)
 8001d28:	3205      	adds	r2, #5
 8001d2a:	d103      	bne.n	8001d34 <HAL_RCC_OscConfig+0x2d4>
      __HAL_RCC_HSI14ADC_ENABLE();
 8001d2c:	6b6a      	ldr	r2, [r5, #52]	@ 0x34
 8001d2e:	439a      	bics	r2, r3
 8001d30:	636a      	str	r2, [r5, #52]	@ 0x34
 8001d32:	e6be      	b.n	8001ab2 <HAL_RCC_OscConfig+0x52>
      __HAL_RCC_HSI14ADC_DISABLE();
 8001d34:	6b6a      	ldr	r2, [r5, #52]	@ 0x34
      while(__HAL_RCC_GET_FLAG(RCC_FLAG_HSI14RDY) != RESET)
 8001d36:	2702      	movs	r7, #2
      __HAL_RCC_HSI14ADC_DISABLE();
 8001d38:	4313      	orrs	r3, r2
      __HAL_RCC_HSI14_DISABLE();
 8001d3a:	2201      	movs	r2, #1
      __HAL_RCC_HSI14ADC_DISABLE();
 8001d3c:	636b      	str	r3, [r5, #52]	@ 0x34
      __HAL_RCC_HSI14_DISABLE();
 8001d3e:	6b6b      	ldr	r3, [r5, #52]	@ 0x34
 8001d40:	4393      	bics	r3, r2
 8001d42:	636b      	str	r3, [r5, #52]	@ 0x34
      tickstart = HAL_GetTick();
 8001d44:	f7ff fe84 	bl	8001a50 <HAL_GetTick>
 8001d48:	0006      	movs	r6, r0
      while(__HAL_RCC_GET_FLAG(RCC_FLAG_HSI14RDY) != RESET)
 8001d4a:	6b6b      	ldr	r3, [r5, #52]	@ 0x34
 8001d4c:	423b      	tst	r3, r7
 8001d4e:	d100      	bne.n	8001d52 <HAL_RCC_OscConfig+0x2f2>
 8001d50:	e6b6      	b.n	8001ac0 <HAL_RCC_OscConfig+0x60>
        if((HAL_GetTick() - tickstart) > HSI14_TIMEOUT_VALUE)
 8001d52:	f7ff fe7d 	bl	8001a50 <HAL_GetTick>
 8001d56:	1b80      	subs	r0, r0, r6
 8001d58:	2802      	cmp	r0, #2
 8001d5a:	d9f6      	bls.n	8001d4a <HAL_RCC_OscConfig+0x2ea>
 8001d5c:	e6e0      	b.n	8001b20 <HAL_RCC_OscConfig+0xc0>
 8001d5e:	46c0      	nop			@ (mov r8, r8)
 8001d60:	40021000 	.word	0x40021000
 8001d64:	fffeffff 	.word	0xfffeffff
 8001d68:	fffbffff 	.word	0xfffbffff
 8001d6c:	40007000 	.word	0x40007000
 8001d70:	efffffff 	.word	0xefffffff
 8001d74:	00001388 	.word	0x00001388
    if(__HAL_RCC_GET_SYSCLK_SOURCE() != RCC_SYSCLKSOURCE_STATUS_PLLCLK)
 8001d78:	220c      	movs	r2, #12
 8001d7a:	4d25      	ldr	r5, [pc, #148]	@ (8001e10 <HAL_RCC_OscConfig+0x3b0>)
 8001d7c:	686b      	ldr	r3, [r5, #4]
 8001d7e:	4013      	ands	r3, r2
 8001d80:	2b08      	cmp	r3, #8
 8001d82:	d100      	bne.n	8001d86 <HAL_RCC_OscConfig+0x326>
 8001d84:	e6b5      	b.n	8001af2 <HAL_RCC_OscConfig+0x92>
        __HAL_RCC_PLL_DISABLE();
 8001d86:	682b      	ldr	r3, [r5, #0]
 8001d88:	4a22      	ldr	r2, [pc, #136]	@ (8001e14 <HAL_RCC_OscConfig+0x3b4>)
 8001d8a:	4013      	ands	r3, r2
 8001d8c:	602b      	str	r3, [r5, #0]
      if((RCC_OscInitStruct->PLL.PLLState) == RCC_PLL_ON)
 8001d8e:	2902      	cmp	r1, #2
 8001d90:	d12f      	bne.n	8001df2 <HAL_RCC_OscConfig+0x392>
        tickstart = HAL_GetTick();
 8001d92:	f7ff fe5d 	bl	8001a50 <HAL_GetTick>
        while(__HAL_RCC_GET_FLAG(RCC_FLAG_PLLRDY)  != RESET)
 8001d96:	2780      	movs	r7, #128	@ 0x80
        tickstart = HAL_GetTick();
 8001d98:	0006      	movs	r6, r0
        while(__HAL_RCC_GET_FLAG(RCC_FLAG_PLLRDY)  != RESET)
 8001d9a:	04bf      	lsls	r7, r7, #18
 8001d9c:	682b      	ldr	r3, [r5, #0]
 8001d9e:	423b      	tst	r3, r7
 8001da0:	d121      	bne.n	8001de6 <HAL_RCC_OscConfig+0x386>
        __HAL_RCC_PLL_CONFIG(RCC_OscInitStruct->PLL.PLLSource,
 8001da2:	220f      	movs	r2, #15
 8001da4:	6aeb      	ldr	r3, [r5, #44]	@ 0x2c
        while(__HAL_RCC_GET_FLAG(RCC_FLAG_PLLRDY)  == RESET)
 8001da6:	2680      	movs	r6, #128	@ 0x80
        __HAL_RCC_PLL_CONFIG(RCC_OscInitStruct->PLL.PLLSource,
 8001da8:	4393      	bics	r3, r2
 8001daa:	6ae2      	ldr	r2, [r4, #44]	@ 0x2c
        while(__HAL_RCC_GET_FLAG(RCC_FLAG_PLLRDY)  == RESET)
 8001dac:	04b6      	lsls	r6, r6, #18
        __HAL_RCC_PLL_CONFIG(RCC_OscInitStruct->PLL.PLLSource,
 8001dae:	4313      	orrs	r3, r2
 8001db0:	62eb      	str	r3, [r5, #44]	@ 0x2c
 8001db2:	6a61      	ldr	r1, [r4, #36]	@ 0x24
 8001db4:	6aa3      	ldr	r3, [r4, #40]	@ 0x28
 8001db6:	686a      	ldr	r2, [r5, #4]
 8001db8:	430b      	orrs	r3, r1
 8001dba:	4917      	ldr	r1, [pc, #92]	@ (8001e18 <HAL_RCC_OscConfig+0x3b8>)
 8001dbc:	400a      	ands	r2, r1
 8001dbe:	4313      	orrs	r3, r2
 8001dc0:	606b      	str	r3, [r5, #4]
        __HAL_RCC_PLL_ENABLE();
 8001dc2:	2380      	movs	r3, #128	@ 0x80
 8001dc4:	682a      	ldr	r2, [r5, #0]
 8001dc6:	045b      	lsls	r3, r3, #17
 8001dc8:	4313      	orrs	r3, r2
 8001dca:	602b      	str	r3, [r5, #0]
        tickstart = HAL_GetTick();
 8001dcc:	f7ff fe40 	bl	8001a50 <HAL_GetTick>
 8001dd0:	0004      	movs	r4, r0
        while(__HAL_RCC_GET_FLAG(RCC_FLAG_PLLRDY)  == RESET)
 8001dd2:	682b      	ldr	r3, [r5, #0]
 8001dd4:	4233      	tst	r3, r6
 8001dd6:	d000      	beq.n	8001dda <HAL_RCC_OscConfig+0x37a>
 8001dd8:	e676      	b.n	8001ac8 <HAL_RCC_OscConfig+0x68>
          if((HAL_GetTick() - tickstart ) > PLL_TIMEOUT_VALUE)
 8001dda:	f7ff fe39 	bl	8001a50 <HAL_GetTick>
 8001dde:	1b00      	subs	r0, r0, r4
 8001de0:	2802      	cmp	r0, #2
 8001de2:	d9f6      	bls.n	8001dd2 <HAL_RCC_OscConfig+0x372>
 8001de4:	e69c      	b.n	8001b20 <HAL_RCC_OscConfig+0xc0>
          if((HAL_GetTick() - tickstart ) > PLL_TIMEOUT_VALUE)
 8001de6:	f7ff fe33 	bl	8001a50 <HAL_GetTick>
 8001dea:	1b80      	subs	r0, r0, r6
 8001dec:	2802      	cmp	r0, #2
 8001dee:	d9d5      	bls.n	8001d9c <HAL_RCC_OscConfig+0x33c>
 8001df0:	e696      	b.n	8001b20 <HAL_RCC_OscConfig+0xc0>
        tickstart = HAL_GetTick();
 8001df2:	f7ff fe2d 	bl	8001a50 <HAL_GetTick>
        while(__HAL_RCC_GET_FLAG(RCC_FLAG_PLLRDY)  != RESET)
 8001df6:	2680      	movs	r6, #128	@ 0x80
        tickstart = HAL_GetTick();
 8001df8:	0004      	movs	r4, r0
        while(__HAL_RCC_GET_FLAG(RCC_FLAG_PLLRDY)  != RESET)
 8001dfa:	04b6      	lsls	r6, r6, #18
 8001dfc:	682b      	ldr	r3, [r5, #0]
 8001dfe:	4233      	tst	r3, r6
 8001e00:	d100      	bne.n	8001e04 <HAL_RCC_OscConfig+0x3a4>
 8001e02:	e661      	b.n	8001ac8 <HAL_RCC_OscConfig+0x68>
          if((HAL_GetTick() - tickstart ) > PLL_TIMEOUT_VALUE)
 8001e04:	f7ff fe24 	bl	8001a50 <HAL_GetTick>
 8001e08:	1b00      	subs	r0, r0, r4
 8001e0a:	2802      	cmp	r0, #2
 8001e0c:	d9f6      	bls.n	8001dfc <HAL_RCC_OscConfig+0x39c>
 8001e0e:	e687      	b.n	8001b20 <HAL_RCC_OscConfig+0xc0>
 8001e10:	40021000 	.word	0x40021000
 8001e14:	feffffff 	.word	0xfeffffff
 8001e18:	ffc2ffff 	.word	0xffc2ffff

08001e1c <HAL_RCC_ClockConfig>:
  *         You can use @ref HAL_RCC_GetClockConfig() function to know which clock is
  *         currently used as system clock source.
  * @retval HAL status
  */
HAL_StatusTypeDef HAL_RCC_ClockConfig(RCC_ClkInitTypeDef  *RCC_ClkInitStruct, uint32_t FLatency)
{
 8001e1c:	b5f7      	push	{r0, r1, r2, r4, r5, r6, r7, lr}
  /* To correctly read data from FLASH memory, the number of wait states (LATENCY) 
  must be correctly programmed according to the frequency of the CPU clock 
    (HCLK) of the device. */

  /* Increasing the number of wait states because of higher CPU frequency */
  if(FLatency > (FLASH->ACR & FLASH_ACR_LATENCY))
 8001e1e:	2201      	movs	r2, #1
 8001e20:	4d3e      	ldr	r5, [pc, #248]	@ (8001f1c <HAL_RCC_ClockConfig+0x100>)
{
 8001e22:	0004      	movs	r4, r0
  if(FLatency > (FLASH->ACR & FLASH_ACR_LATENCY))
 8001e24:	682b      	ldr	r3, [r5, #0]
{
 8001e26:	000f      	movs	r7, r1
  if(FLatency > (FLASH->ACR & FLASH_ACR_LATENCY))
 8001e28:	4013      	ands	r3, r2
 8001e2a:	428b      	cmp	r3, r1
 8001e2c:	d312      	bcc.n	8001e54 <HAL_RCC_ClockConfig+0x38>
      return HAL_ERROR;
    }
  }

  /*-------------------------- HCLK Configuration --------------------------*/
  if(((RCC_ClkInitStruct->ClockType) & RCC_CLOCKTYPE_HCLK) == RCC_CLOCKTYPE_HCLK)
 8001e2e:	6822      	ldr	r2, [r4, #0]
 8001e30:	0793      	lsls	r3, r2, #30
 8001e32:	d419      	bmi.n	8001e68 <HAL_RCC_ClockConfig+0x4c>
    assert_param(IS_RCC_HCLK(RCC_ClkInitStruct->AHBCLKDivider));
    MODIFY_REG(RCC->CFGR, RCC_CFGR_HPRE, RCC_ClkInitStruct->AHBCLKDivider);
  }

  /*------------------------- SYSCLK Configuration ---------------------------*/ 
  if(((RCC_ClkInitStruct->ClockType) & RCC_CLOCKTYPE_SYSCLK) == RCC_CLOCKTYPE_SYSCLK)
 8001e34:	07d2      	lsls	r2, r2, #31
 8001e36:	d41f      	bmi.n	8001e78 <HAL_RCC_ClockConfig+0x5c>
        }
      }
    }      
  }    
  /* Decreasing the number of wait states because of lower CPU frequency */
  if(FLatency < (FLASH->ACR & FLASH_ACR_LATENCY))
 8001e38:	2301      	movs	r3, #1
 8001e3a:	682a      	ldr	r2, [r5, #0]
 8001e3c:	401a      	ands	r2, r3
 8001e3e:	42ba      	cmp	r2, r7
 8001e40:	d85d      	bhi.n	8001efe <HAL_RCC_ClockConfig+0xe2>
      return HAL_ERROR;
    }
  }    

  /*-------------------------- PCLK1 Configuration ---------------------------*/ 
  if(((RCC_ClkInitStruct->ClockType) & RCC_CLOCKTYPE_PCLK1) == RCC_CLOCKTYPE_PCLK1)
 8001e42:	6823      	ldr	r3, [r4, #0]
 8001e44:	075b      	lsls	r3, r3, #29
 8001e46:	d461      	bmi.n	8001f0c <HAL_RCC_ClockConfig+0xf0>
    MODIFY_REG(RCC->CFGR, RCC_CFGR_PPRE, RCC_ClkInitStruct->APB1CLKDivider);
  }
  
  /* Update the SystemCoreClock global variable */
  //SystemCoreClock = HAL_RCC_GetSysClockFreq() >> AHBPrescTable[(RCC->CFGR & RCC_CFGR_HPRE)>> RCC_CFGR_HPRE_BITNUMBER];
  SystemCoreClock = 7372800;
 8001e48:	22e1      	movs	r2, #225	@ 0xe1
 8001e4a:	4b35      	ldr	r3, [pc, #212]	@ (8001f20 <HAL_RCC_ClockConfig+0x104>)
 8001e4c:	03d2      	lsls	r2, r2, #15
  
  /* Configure the source of time base considering new system clocks settings*/
  //HAL_InitTick (TICK_INT_PRIORITY);
  
  return HAL_OK;
 8001e4e:	2000      	movs	r0, #0
  SystemCoreClock = 7372800;
 8001e50:	601a      	str	r2, [r3, #0]
  return HAL_OK;
 8001e52:	e008      	b.n	8001e66 <HAL_RCC_ClockConfig+0x4a>
    __HAL_FLASH_SET_LATENCY(FLatency);
 8001e54:	682b      	ldr	r3, [r5, #0]
 8001e56:	4393      	bics	r3, r2
 8001e58:	430b      	orrs	r3, r1
 8001e5a:	602b      	str	r3, [r5, #0]
    if((FLASH->ACR & FLASH_ACR_LATENCY) != FLatency)
 8001e5c:	682b      	ldr	r3, [r5, #0]
 8001e5e:	4013      	ands	r3, r2
 8001e60:	428b      	cmp	r3, r1
 8001e62:	d0e4      	beq.n	8001e2e <HAL_RCC_ClockConfig+0x12>
      return HAL_ERROR;
 8001e64:	2001      	movs	r0, #1
}
 8001e66:	bdfe      	pop	{r1, r2, r3, r4, r5, r6, r7, pc}
    MODIFY_REG(RCC->CFGR, RCC_CFGR_HPRE, RCC_ClkInitStruct->AHBCLKDivider);
 8001e68:	20f0      	movs	r0, #240	@ 0xf0
 8001e6a:	492e      	ldr	r1, [pc, #184]	@ (8001f24 <HAL_RCC_ClockConfig+0x108>)
 8001e6c:	684b      	ldr	r3, [r1, #4]
 8001e6e:	4383      	bics	r3, r0
 8001e70:	68a0      	ldr	r0, [r4, #8]
 8001e72:	4303      	orrs	r3, r0
 8001e74:	604b      	str	r3, [r1, #4]
 8001e76:	e7dd      	b.n	8001e34 <HAL_RCC_ClockConfig+0x18>
    if(RCC_ClkInitStruct->SYSCLKSource == RCC_SYSCLKSOURCE_HSE)
 8001e78:	4e2a      	ldr	r6, [pc, #168]	@ (8001f24 <HAL_RCC_ClockConfig+0x108>)
 8001e7a:	6862      	ldr	r2, [r4, #4]
      if(__HAL_RCC_GET_FLAG(RCC_FLAG_HSERDY) == RESET)
 8001e7c:	6833      	ldr	r3, [r6, #0]
    if(RCC_ClkInitStruct->SYSCLKSource == RCC_SYSCLKSOURCE_HSE)
 8001e7e:	2a01      	cmp	r2, #1
 8001e80:	d11a      	bne.n	8001eb8 <HAL_RCC_ClockConfig+0x9c>
      if(__HAL_RCC_GET_FLAG(RCC_FLAG_HSERDY) == RESET)
 8001e82:	039b      	lsls	r3, r3, #14
 8001e84:	d5ee      	bpl.n	8001e64 <HAL_RCC_ClockConfig+0x48>
    __HAL_RCC_SYSCLK_CONFIG(RCC_ClkInitStruct->SYSCLKSource);
 8001e86:	2103      	movs	r1, #3
 8001e88:	6873      	ldr	r3, [r6, #4]
 8001e8a:	438b      	bics	r3, r1
 8001e8c:	4313      	orrs	r3, r2
 8001e8e:	6073      	str	r3, [r6, #4]
    tickstart = HAL_GetTick();
 8001e90:	f7ff fdde 	bl	8001a50 <HAL_GetTick>
    if(RCC_ClkInitStruct->SYSCLKSource == RCC_SYSCLKSOURCE_HSE)
 8001e94:	6863      	ldr	r3, [r4, #4]
    tickstart = HAL_GetTick();
 8001e96:	9001      	str	r0, [sp, #4]
    if(RCC_ClkInitStruct->SYSCLKSource == RCC_SYSCLKSOURCE_HSE)
 8001e98:	2b01      	cmp	r3, #1
 8001e9a:	d115      	bne.n	8001ec8 <HAL_RCC_ClockConfig+0xac>
      while (__HAL_RCC_GET_SYSCLK_SOURCE() != RCC_SYSCLKSOURCE_STATUS_HSE)
 8001e9c:	220c      	movs	r2, #12
 8001e9e:	6873      	ldr	r3, [r6, #4]
 8001ea0:	4013      	ands	r3, r2
 8001ea2:	2b04      	cmp	r3, #4
 8001ea4:	d0c8      	beq.n	8001e38 <HAL_RCC_ClockConfig+0x1c>
        if((HAL_GetTick() - tickstart ) > CLOCKSWITCH_TIMEOUT_VALUE)
 8001ea6:	f7ff fdd3 	bl	8001a50 <HAL_GetTick>
 8001eaa:	9b01      	ldr	r3, [sp, #4]
 8001eac:	1ac0      	subs	r0, r0, r3
 8001eae:	4b1e      	ldr	r3, [pc, #120]	@ (8001f28 <HAL_RCC_ClockConfig+0x10c>)
 8001eb0:	4298      	cmp	r0, r3
 8001eb2:	d9f3      	bls.n	8001e9c <HAL_RCC_ClockConfig+0x80>
          return HAL_TIMEOUT;
 8001eb4:	2003      	movs	r0, #3
 8001eb6:	e7d6      	b.n	8001e66 <HAL_RCC_ClockConfig+0x4a>
    else if(RCC_ClkInitStruct->SYSCLKSource == RCC_SYSCLKSOURCE_PLLCLK)
 8001eb8:	2a02      	cmp	r2, #2
 8001eba:	d102      	bne.n	8001ec2 <HAL_RCC_ClockConfig+0xa6>
      if(__HAL_RCC_GET_FLAG(RCC_FLAG_PLLRDY) == RESET)
 8001ebc:	019b      	lsls	r3, r3, #6
 8001ebe:	d4e2      	bmi.n	8001e86 <HAL_RCC_ClockConfig+0x6a>
 8001ec0:	e7d0      	b.n	8001e64 <HAL_RCC_ClockConfig+0x48>
      if(__HAL_RCC_GET_FLAG(RCC_FLAG_HSIRDY) == RESET)
 8001ec2:	079b      	lsls	r3, r3, #30
 8001ec4:	d4df      	bmi.n	8001e86 <HAL_RCC_ClockConfig+0x6a>
 8001ec6:	e7cd      	b.n	8001e64 <HAL_RCC_ClockConfig+0x48>
    else if(RCC_ClkInitStruct->SYSCLKSource == RCC_SYSCLKSOURCE_PLLCLK)
 8001ec8:	2b02      	cmp	r3, #2
 8001eca:	d012      	beq.n	8001ef2 <HAL_RCC_ClockConfig+0xd6>
      while (__HAL_RCC_GET_SYSCLK_SOURCE() != RCC_SYSCLKSOURCE_STATUS_HSI)
 8001ecc:	220c      	movs	r2, #12
 8001ece:	6873      	ldr	r3, [r6, #4]
 8001ed0:	4213      	tst	r3, r2
 8001ed2:	d0b1      	beq.n	8001e38 <HAL_RCC_ClockConfig+0x1c>
        if((HAL_GetTick() - tickstart ) > CLOCKSWITCH_TIMEOUT_VALUE)
 8001ed4:	f7ff fdbc 	bl	8001a50 <HAL_GetTick>
 8001ed8:	9b01      	ldr	r3, [sp, #4]
 8001eda:	1ac0      	subs	r0, r0, r3
 8001edc:	4b12      	ldr	r3, [pc, #72]	@ (8001f28 <HAL_RCC_ClockConfig+0x10c>)
 8001ede:	4298      	cmp	r0, r3
 8001ee0:	d9f4      	bls.n	8001ecc <HAL_RCC_ClockConfig+0xb0>
 8001ee2:	e7e7      	b.n	8001eb4 <HAL_RCC_ClockConfig+0x98>
        if((HAL_GetTick() - tickstart ) > CLOCKSWITCH_TIMEOUT_VALUE)
 8001ee4:	f7ff fdb4 	bl	8001a50 <HAL_GetTick>
 8001ee8:	9b01      	ldr	r3, [sp, #4]
 8001eea:	1ac0      	subs	r0, r0, r3
 8001eec:	4b0e      	ldr	r3, [pc, #56]	@ (8001f28 <HAL_RCC_ClockConfig+0x10c>)
 8001eee:	4298      	cmp	r0, r3
 8001ef0:	d8e0      	bhi.n	8001eb4 <HAL_RCC_ClockConfig+0x98>
      while (__HAL_RCC_GET_SYSCLK_SOURCE() != RCC_SYSCLKSOURCE_STATUS_PLLCLK)
 8001ef2:	220c      	movs	r2, #12
 8001ef4:	6873      	ldr	r3, [r6, #4]
 8001ef6:	4013      	ands	r3, r2
 8001ef8:	2b08      	cmp	r3, #8
 8001efa:	d1f3      	bne.n	8001ee4 <HAL_RCC_ClockConfig+0xc8>
 8001efc:	e79c      	b.n	8001e38 <HAL_RCC_ClockConfig+0x1c>
    __HAL_FLASH_SET_LATENCY(FLatency);
 8001efe:	682a      	ldr	r2, [r5, #0]
 8001f00:	439a      	bics	r2, r3
 8001f02:	602a      	str	r2, [r5, #0]
    if((FLASH->ACR & FLASH_ACR_LATENCY) != FLatency)
 8001f04:	682a      	ldr	r2, [r5, #0]
 8001f06:	421a      	tst	r2, r3
 8001f08:	d09b      	beq.n	8001e42 <HAL_RCC_ClockConfig+0x26>
 8001f0a:	e7ab      	b.n	8001e64 <HAL_RCC_ClockConfig+0x48>
    MODIFY_REG(RCC->CFGR, RCC_CFGR_PPRE, RCC_ClkInitStruct->APB1CLKDivider);
 8001f0c:	4a05      	ldr	r2, [pc, #20]	@ (8001f24 <HAL_RCC_ClockConfig+0x108>)
 8001f0e:	4907      	ldr	r1, [pc, #28]	@ (8001f2c <HAL_RCC_ClockConfig+0x110>)
 8001f10:	6853      	ldr	r3, [r2, #4]
 8001f12:	400b      	ands	r3, r1
 8001f14:	68e1      	ldr	r1, [r4, #12]
 8001f16:	430b      	orrs	r3, r1
 8001f18:	6053      	str	r3, [r2, #4]
 8001f1a:	e795      	b.n	8001e48 <HAL_RCC_ClockConfig+0x2c>
 8001f1c:	40022000 	.word	0x40022000
 8001f20:	20000000 	.word	0x20000000
 8001f24:	40021000 	.word	0x40021000
 8001f28:	00001388 	.word	0x00001388
 8001f2c:	fffff8ff 	.word	0xfffff8ff

08001f30 <HAL_GPIO_Init>:
  *         the configuration information for the specified GPIO peripheral.
  * @retval None
  */
void HAL_GPIO_Init(GPIO_TypeDef  *GPIOx, GPIO_InitTypeDef *GPIO_Init)
{ 
  uint32_t position = 0x00U;
 8001f30:	2300      	movs	r3, #0
{ 
 8001f32:	b5f0      	push	{r4, r5, r6, r7, lr}
 8001f34:	b087      	sub	sp, #28
  assert_param(IS_GPIO_PIN(GPIO_Init->Pin));
  assert_param(IS_GPIO_MODE(GPIO_Init->Mode));
  assert_param(IS_GPIO_PULL(GPIO_Init->Pull)); 

  /* Configure the port pins */
  while (((GPIO_Init->Pin) >> position) != RESET)
 8001f36:	680a      	ldr	r2, [r1, #0]
 8001f38:	0014      	movs	r4, r2
 8001f3a:	40dc      	lsrs	r4, r3
 8001f3c:	d101      	bne.n	8001f42 <HAL_GPIO_Init+0x12>
      }
    }
    
    position++;
  } 
}
 8001f3e:	b007      	add	sp, #28
 8001f40:	bdf0      	pop	{r4, r5, r6, r7, pc}
    iocurrent = (GPIO_Init->Pin) & (1U << position);
 8001f42:	2601      	movs	r6, #1
 8001f44:	0014      	movs	r4, r2
 8001f46:	409e      	lsls	r6, r3
 8001f48:	4034      	ands	r4, r6
 8001f4a:	9402      	str	r4, [sp, #8]
    if(iocurrent)
 8001f4c:	4232      	tst	r2, r6
 8001f4e:	d100      	bne.n	8001f52 <HAL_GPIO_Init+0x22>
 8001f50:	e092      	b.n	8002078 <HAL_GPIO_Init+0x148>
      if((GPIO_Init->Mode == GPIO_MODE_AF_PP) || (GPIO_Init->Mode == GPIO_MODE_AF_OD)) 
 8001f52:	684a      	ldr	r2, [r1, #4]
 8001f54:	0015      	movs	r5, r2
 8001f56:	9201      	str	r2, [sp, #4]
 8001f58:	2210      	movs	r2, #16
 8001f5a:	4395      	bics	r5, r2
 8001f5c:	9503      	str	r5, [sp, #12]
 8001f5e:	2d02      	cmp	r5, #2
 8001f60:	d10f      	bne.n	8001f82 <HAL_GPIO_Init+0x52>
        CLEAR_BIT(temp, 0xFU << ((uint32_t)(position & 0x07U) * 4U)) ;      
 8001f62:	2407      	movs	r4, #7
 8001f64:	250f      	movs	r5, #15
 8001f66:	401c      	ands	r4, r3
 8001f68:	00a4      	lsls	r4, r4, #2
 8001f6a:	40a5      	lsls	r5, r4
        temp = GPIOx->AFR[position >> 3];
 8001f6c:	08da      	lsrs	r2, r3, #3
 8001f6e:	0092      	lsls	r2, r2, #2
 8001f70:	1882      	adds	r2, r0, r2
 8001f72:	6a17      	ldr	r7, [r2, #32]
        CLEAR_BIT(temp, 0xFU << ((uint32_t)(position & 0x07U) * 4U)) ;      
 8001f74:	43af      	bics	r7, r5
 8001f76:	46bc      	mov	ip, r7
        SET_BIT(temp, (uint32_t)(GPIO_Init->Alternate) << (((uint32_t)position & 0x07U) * 4U));       
 8001f78:	690f      	ldr	r7, [r1, #16]
 8001f7a:	40a7      	lsls	r7, r4
 8001f7c:	4664      	mov	r4, ip
 8001f7e:	4327      	orrs	r7, r4
        GPIOx->AFR[position >> 3U] = temp;
 8001f80:	6217      	str	r7, [r2, #32]
      CLEAR_BIT(temp, GPIO_MODER_MODER0 << (position * 2U));   
 8001f82:	2203      	movs	r2, #3
 8001f84:	005c      	lsls	r4, r3, #1
 8001f86:	40a2      	lsls	r2, r4
 8001f88:	43d5      	mvns	r5, r2
 8001f8a:	46ac      	mov	ip, r5
      SET_BIT(temp, (GPIO_Init->Mode & GPIO_MODE) << (position * 2U));
 8001f8c:	2503      	movs	r5, #3
      temp = GPIOx->MODER;
 8001f8e:	6807      	ldr	r7, [r0, #0]
      CLEAR_BIT(temp, GPIO_MODER_MODER0 << (position * 2U));   
 8001f90:	4397      	bics	r7, r2
      SET_BIT(temp, (GPIO_Init->Mode & GPIO_MODE) << (position * 2U));
 8001f92:	9a01      	ldr	r2, [sp, #4]
 8001f94:	402a      	ands	r2, r5
 8001f96:	40a2      	lsls	r2, r4
      if ((GPIO_Init->Mode == GPIO_MODE_OUTPUT_PP) || (GPIO_Init->Mode == GPIO_MODE_AF_PP) ||
 8001f98:	9d03      	ldr	r5, [sp, #12]
      SET_BIT(temp, (GPIO_Init->Mode & GPIO_MODE) << (position * 2U));
 8001f9a:	433a      	orrs	r2, r7
      if ((GPIO_Init->Mode == GPIO_MODE_OUTPUT_PP) || (GPIO_Init->Mode == GPIO_MODE_AF_PP) ||
 8001f9c:	3d01      	subs	r5, #1
      GPIOx->MODER = temp;
 8001f9e:	6002      	str	r2, [r0, #0]
      if ((GPIO_Init->Mode == GPIO_MODE_OUTPUT_PP) || (GPIO_Init->Mode == GPIO_MODE_AF_PP) ||
 8001fa0:	2d01      	cmp	r5, #1
 8001fa2:	d80d      	bhi.n	8001fc0 <HAL_GPIO_Init+0x90>
        CLEAR_BIT(temp, GPIO_OSPEEDER_OSPEEDR0 << (position * 2U));
 8001fa4:	4662      	mov	r2, ip
        temp = GPIOx->OSPEEDR; 
 8001fa6:	6885      	ldr	r5, [r0, #8]
        CLEAR_BIT(temp, GPIO_OSPEEDER_OSPEEDR0 << (position * 2U));
 8001fa8:	4015      	ands	r5, r2
        SET_BIT(temp, GPIO_Init->Speed << (position * 2U));
 8001faa:	68ca      	ldr	r2, [r1, #12]
 8001fac:	40a2      	lsls	r2, r4
 8001fae:	432a      	orrs	r2, r5
        GPIOx->OSPEEDR = temp;
 8001fb0:	6082      	str	r2, [r0, #8]
        SET_BIT(temp, ((GPIO_Init->Mode & GPIO_OUTPUT_TYPE) >> 4U) << position);
 8001fb2:	9a01      	ldr	r2, [sp, #4]
        temp = GPIOx->OTYPER;
 8001fb4:	6845      	ldr	r5, [r0, #4]
        SET_BIT(temp, ((GPIO_Init->Mode & GPIO_OUTPUT_TYPE) >> 4U) << position);
 8001fb6:	0912      	lsrs	r2, r2, #4
 8001fb8:	409a      	lsls	r2, r3
        CLEAR_BIT(temp, GPIO_OTYPER_OT_0 << position) ;
 8001fba:	43b5      	bics	r5, r6
        SET_BIT(temp, ((GPIO_Init->Mode & GPIO_OUTPUT_TYPE) >> 4U) << position);
 8001fbc:	432a      	orrs	r2, r5
        GPIOx->OTYPER = temp;
 8001fbe:	6042      	str	r2, [r0, #4]
      CLEAR_BIT(temp, GPIO_PUPDR_PUPDR0 << (position * 2U));
 8001fc0:	4662      	mov	r2, ip
      temp = GPIOx->PUPDR;
 8001fc2:	68c5      	ldr	r5, [r0, #12]
      CLEAR_BIT(temp, GPIO_PUPDR_PUPDR0 << (position * 2U));
 8001fc4:	4015      	ands	r5, r2
      SET_BIT(temp, (GPIO_Init->Pull) << (position * 2U));
 8001fc6:	688a      	ldr	r2, [r1, #8]
 8001fc8:	40a2      	lsls	r2, r4
      if((GPIO_Init->Mode & EXTI_MODE) == EXTI_MODE) 
 8001fca:	2480      	movs	r4, #128	@ 0x80
      SET_BIT(temp, (GPIO_Init->Pull) << (position * 2U));
 8001fcc:	432a      	orrs	r2, r5
      GPIOx->PUPDR = temp;
 8001fce:	60c2      	str	r2, [r0, #12]
      if((GPIO_Init->Mode & EXTI_MODE) == EXTI_MODE) 
 8001fd0:	9a01      	ldr	r2, [sp, #4]
 8001fd2:	0564      	lsls	r4, r4, #21
 8001fd4:	4222      	tst	r2, r4
 8001fd6:	d04f      	beq.n	8002078 <HAL_GPIO_Init+0x148>
        __HAL_RCC_SYSCFG_CLK_ENABLE();
 8001fd8:	2501      	movs	r5, #1
 8001fda:	4a28      	ldr	r2, [pc, #160]	@ (800207c <HAL_GPIO_Init+0x14c>)
        SET_BIT(temp, (GPIO_GET_INDEX(GPIOx)) << (4U * (position & 0x03U)));
 8001fdc:	2790      	movs	r7, #144	@ 0x90
        __HAL_RCC_SYSCFG_CLK_ENABLE();
 8001fde:	6994      	ldr	r4, [r2, #24]
        SET_BIT(temp, (GPIO_GET_INDEX(GPIOx)) << (4U * (position & 0x03U)));
 8001fe0:	05ff      	lsls	r7, r7, #23
        __HAL_RCC_SYSCFG_CLK_ENABLE();
 8001fe2:	432c      	orrs	r4, r5
 8001fe4:	6194      	str	r4, [r2, #24]
 8001fe6:	6992      	ldr	r2, [r2, #24]
        temp = SYSCFG->EXTICR[position >> 2];
 8001fe8:	089c      	lsrs	r4, r3, #2
        __HAL_RCC_SYSCFG_CLK_ENABLE();
 8001fea:	402a      	ands	r2, r5
 8001fec:	9205      	str	r2, [sp, #20]
 8001fee:	9a05      	ldr	r2, [sp, #20]
        temp = SYSCFG->EXTICR[position >> 2];
 8001ff0:	4a23      	ldr	r2, [pc, #140]	@ (8002080 <HAL_GPIO_Init+0x150>)
 8001ff2:	00a4      	lsls	r4, r4, #2
 8001ff4:	18a4      	adds	r4, r4, r2
        CLEAR_BIT(temp, (0x0FU) << (4U * (position & 0x03U)));
 8001ff6:	220f      	movs	r2, #15
 8001ff8:	3502      	adds	r5, #2
 8001ffa:	401d      	ands	r5, r3
 8001ffc:	00ad      	lsls	r5, r5, #2
 8001ffe:	40aa      	lsls	r2, r5
        temp = SYSCFG->EXTICR[position >> 2];
 8002000:	68a6      	ldr	r6, [r4, #8]
        CLEAR_BIT(temp, (0x0FU) << (4U * (position & 0x03U)));
 8002002:	4396      	bics	r6, r2
        SET_BIT(temp, (GPIO_GET_INDEX(GPIOx)) << (4U * (position & 0x03U)));
 8002004:	2200      	movs	r2, #0
 8002006:	42b8      	cmp	r0, r7
 8002008:	d00c      	beq.n	8002024 <HAL_GPIO_Init+0xf4>
 800200a:	4f1e      	ldr	r7, [pc, #120]	@ (8002084 <HAL_GPIO_Init+0x154>)
 800200c:	3201      	adds	r2, #1
 800200e:	42b8      	cmp	r0, r7
 8002010:	d008      	beq.n	8002024 <HAL_GPIO_Init+0xf4>
 8002012:	4f1d      	ldr	r7, [pc, #116]	@ (8002088 <HAL_GPIO_Init+0x158>)
 8002014:	3201      	adds	r2, #1
 8002016:	42b8      	cmp	r0, r7
 8002018:	d004      	beq.n	8002024 <HAL_GPIO_Init+0xf4>
 800201a:	4f1c      	ldr	r7, [pc, #112]	@ (800208c <HAL_GPIO_Init+0x15c>)
 800201c:	3203      	adds	r2, #3
 800201e:	42b8      	cmp	r0, r7
 8002020:	d100      	bne.n	8002024 <HAL_GPIO_Init+0xf4>
 8002022:	3a02      	subs	r2, #2
 8002024:	40aa      	lsls	r2, r5
 8002026:	4332      	orrs	r2, r6
        SYSCFG->EXTICR[position >> 2] = temp;
 8002028:	60a2      	str	r2, [r4, #8]
        temp = EXTI->IMR;
 800202a:	4a19      	ldr	r2, [pc, #100]	@ (8002090 <HAL_GPIO_Init+0x160>)
        CLEAR_BIT(temp, (uint32_t)iocurrent);
 800202c:	9c02      	ldr	r4, [sp, #8]
        temp = EXTI->IMR;
 800202e:	6816      	ldr	r6, [r2, #0]
          SET_BIT(temp, iocurrent); 
 8002030:	9d02      	ldr	r5, [sp, #8]
        if((GPIO_Init->Mode & GPIO_MODE_IT) == GPIO_MODE_IT)
 8002032:	9f01      	ldr	r7, [sp, #4]
        CLEAR_BIT(temp, (uint32_t)iocurrent);
 8002034:	43e4      	mvns	r4, r4
          SET_BIT(temp, iocurrent); 
 8002036:	4335      	orrs	r5, r6
        if((GPIO_Init->Mode & GPIO_MODE_IT) == GPIO_MODE_IT)
 8002038:	03ff      	lsls	r7, r7, #15
 800203a:	d401      	bmi.n	8002040 <HAL_GPIO_Init+0x110>
        CLEAR_BIT(temp, (uint32_t)iocurrent);
 800203c:	0035      	movs	r5, r6
 800203e:	4025      	ands	r5, r4
        EXTI->IMR = temp;
 8002040:	6015      	str	r5, [r2, #0]
        temp = EXTI->EMR;
 8002042:	6856      	ldr	r6, [r2, #4]
          SET_BIT(temp, iocurrent); 
 8002044:	9d02      	ldr	r5, [sp, #8]
        if((GPIO_Init->Mode & GPIO_MODE_EVT) == GPIO_MODE_EVT)
 8002046:	9f01      	ldr	r7, [sp, #4]
          SET_BIT(temp, iocurrent); 
 8002048:	4335      	orrs	r5, r6
        if((GPIO_Init->Mode & GPIO_MODE_EVT) == GPIO_MODE_EVT)
 800204a:	03bf      	lsls	r7, r7, #14
 800204c:	d401      	bmi.n	8002052 <HAL_GPIO_Init+0x122>
        CLEAR_BIT(temp, (uint32_t)iocurrent);      
 800204e:	0035      	movs	r5, r6
 8002050:	4025      	ands	r5, r4
        EXTI->EMR = temp;
 8002052:	6055      	str	r5, [r2, #4]
        temp = EXTI->RTSR;
 8002054:	6896      	ldr	r6, [r2, #8]
          SET_BIT(temp, iocurrent); 
 8002056:	9d02      	ldr	r5, [sp, #8]
        if((GPIO_Init->Mode & RISING_EDGE) == RISING_EDGE)
 8002058:	9f01      	ldr	r7, [sp, #4]
          SET_BIT(temp, iocurrent); 
 800205a:	4335      	orrs	r5, r6
        if((GPIO_Init->Mode & RISING_EDGE) == RISING_EDGE)
 800205c:	02ff      	lsls	r7, r7, #11
 800205e:	d401      	bmi.n	8002064 <HAL_GPIO_Init+0x134>
        CLEAR_BIT(temp, (uint32_t)iocurrent); 
 8002060:	0035      	movs	r5, r6
 8002062:	4025      	ands	r5, r4
        EXTI->RTSR = temp;
 8002064:	6095      	str	r5, [r2, #8]
        temp = EXTI->FTSR;
 8002066:	68d5      	ldr	r5, [r2, #12]
          SET_BIT(temp, iocurrent); 
 8002068:	9e02      	ldr	r6, [sp, #8]
        if((GPIO_Init->Mode & FALLING_EDGE) == FALLING_EDGE)
 800206a:	9f01      	ldr	r7, [sp, #4]
          SET_BIT(temp, iocurrent); 
 800206c:	432e      	orrs	r6, r5
        if((GPIO_Init->Mode & FALLING_EDGE) == FALLING_EDGE)
 800206e:	02bf      	lsls	r7, r7, #10
 8002070:	d401      	bmi.n	8002076 <HAL_GPIO_Init+0x146>
        CLEAR_BIT(temp, (uint32_t)iocurrent); 
 8002072:	4025      	ands	r5, r4
 8002074:	002e      	movs	r6, r5
        EXTI->FTSR = temp;
 8002076:	60d6      	str	r6, [r2, #12]
    position++;
 8002078:	3301      	adds	r3, #1
 800207a:	e75c      	b.n	8001f36 <HAL_GPIO_Init+0x6>
 800207c:	40021000 	.word	0x40021000
 8002080:	40010000 	.word	0x40010000
 8002084:	48000400 	.word	0x48000400
 8002088:	48000800 	.word	0x48000800
 800208c:	48000c00 	.word	0x48000c00
 8002090:	40010400 	.word	0x40010400

08002094 <HAL_GPIO_WritePin>:
{
  /* Check the parameters */
  assert_param(IS_GPIO_PIN(GPIO_Pin));
  assert_param(IS_GPIO_PIN_ACTION(PinState));

  if (PinState != GPIO_PIN_RESET)
 8002094:	2a00      	cmp	r2, #0
 8002096:	d001      	beq.n	800209c <HAL_GPIO_WritePin+0x8>
  {
    GPIOx->BSRR = (uint32_t)GPIO_Pin;
 8002098:	6181      	str	r1, [r0, #24]
  }
  else
  {
    GPIOx->BRR = (uint32_t)GPIO_Pin;
  }
}										  
 800209a:	4770      	bx	lr
    GPIOx->BRR = (uint32_t)GPIO_Pin;
 800209c:	6281      	str	r1, [r0, #40]	@ 0x28
}										  
 800209e:	e7fc      	b.n	800209a <HAL_GPIO_WritePin+0x6>

080020a0 <UART_WaitOnFlagUntilTimeout>:
  * @param  Tickstart Tick start value
  * @param  Timeout Timeout duration
  * @retval HAL status
  */
HAL_StatusTypeDef UART_WaitOnFlagUntilTimeout(UART_HandleTypeDef *huart, uint32_t Flag, FlagStatus Status, uint32_t Tickstart, uint32_t Timeout)
{
 80020a0:	b5f7      	push	{r0, r1, r2, r4, r5, r6, r7, lr}
 80020a2:	0004      	movs	r4, r0
 80020a4:	000e      	movs	r6, r1
 80020a6:	0017      	movs	r7, r2
 80020a8:	9301      	str	r3, [sp, #4]
  /* Wait until flag is set */
  while((__HAL_UART_GET_FLAG(huart, Flag) ? SET : RESET) == Status)
 80020aa:	6825      	ldr	r5, [r4, #0]
 80020ac:	69eb      	ldr	r3, [r5, #28]
 80020ae:	4033      	ands	r3, r6
 80020b0:	1b9b      	subs	r3, r3, r6
 80020b2:	425a      	negs	r2, r3
 80020b4:	4153      	adcs	r3, r2
 80020b6:	42bb      	cmp	r3, r7
 80020b8:	d001      	beq.n	80020be <UART_WaitOnFlagUntilTimeout+0x1e>
        __HAL_UNLOCK(huart);
        return HAL_TIMEOUT;
      }
    }
  }
  return HAL_OK;
 80020ba:	2000      	movs	r0, #0
 80020bc:	e017      	b.n	80020ee <UART_WaitOnFlagUntilTimeout+0x4e>
    if(Timeout != HAL_MAX_DELAY)
 80020be:	9b08      	ldr	r3, [sp, #32]
 80020c0:	3301      	adds	r3, #1
 80020c2:	d0f3      	beq.n	80020ac <UART_WaitOnFlagUntilTimeout+0xc>
      if((Timeout == 0U) || ((HAL_GetTick()-Tickstart) > Timeout))
 80020c4:	9b08      	ldr	r3, [sp, #32]
 80020c6:	2b00      	cmp	r3, #0
 80020c8:	d112      	bne.n	80020f0 <UART_WaitOnFlagUntilTimeout+0x50>
        CLEAR_BIT(huart->Instance->CR1, (USART_CR1_RXNEIE | USART_CR1_PEIE | USART_CR1_TXEIE));
 80020ca:	682b      	ldr	r3, [r5, #0]
 80020cc:	4a0c      	ldr	r2, [pc, #48]	@ (8002100 <UART_WaitOnFlagUntilTimeout+0x60>)
        return HAL_TIMEOUT;
 80020ce:	2003      	movs	r0, #3
        CLEAR_BIT(huart->Instance->CR1, (USART_CR1_RXNEIE | USART_CR1_PEIE | USART_CR1_TXEIE));
 80020d0:	4013      	ands	r3, r2
 80020d2:	602b      	str	r3, [r5, #0]
        CLEAR_BIT(huart->Instance->CR3, USART_CR3_EIE);
 80020d4:	68ab      	ldr	r3, [r5, #8]
 80020d6:	32a3      	adds	r2, #163	@ 0xa3
 80020d8:	32ff      	adds	r2, #255	@ 0xff
 80020da:	4393      	bics	r3, r2
        huart->gState  = HAL_UART_STATE_READY;
 80020dc:	0022      	movs	r2, r4
        CLEAR_BIT(huart->Instance->CR3, USART_CR3_EIE);
 80020de:	60ab      	str	r3, [r5, #8]
        huart->gState  = HAL_UART_STATE_READY;
 80020e0:	2320      	movs	r3, #32
 80020e2:	3269      	adds	r2, #105	@ 0x69
 80020e4:	7013      	strb	r3, [r2, #0]
        huart->RxState = HAL_UART_STATE_READY;
 80020e6:	7053      	strb	r3, [r2, #1]
        __HAL_UNLOCK(huart);
 80020e8:	2300      	movs	r3, #0
 80020ea:	3468      	adds	r4, #104	@ 0x68
 80020ec:	7023      	strb	r3, [r4, #0]
}
 80020ee:	bdfe      	pop	{r1, r2, r3, r4, r5, r6, r7, pc}
      if((Timeout == 0U) || ((HAL_GetTick()-Tickstart) > Timeout))
 80020f0:	f7ff fcae 	bl	8001a50 <HAL_GetTick>
 80020f4:	9b01      	ldr	r3, [sp, #4]
 80020f6:	1ac0      	subs	r0, r0, r3
 80020f8:	9b08      	ldr	r3, [sp, #32]
 80020fa:	4298      	cmp	r0, r3
 80020fc:	d9d5      	bls.n	80020aa <UART_WaitOnFlagUntilTimeout+0xa>
 80020fe:	e7e4      	b.n	80020ca <UART_WaitOnFlagUntilTimeout+0x2a>
 8002100:	fffffe5f 	.word	0xfffffe5f

08002104 <UART_SetConfig>:

  return HAL_OK;
}

HAL_StatusTypeDef UART_SetConfig(UART_HandleTypeDef *huart)
{
 8002104:	0003      	movs	r3, r0
 8002106:	b570      	push	{r4, r5, r6, lr}
   *  the UART Word Length, Parity, Mode and oversampling:
   *  set the M bits according to huart->Init.WordLength value
   *  set PCE and PS bits according to huart->Init.Parity value
   *  set TE and RE bits according to huart->Init.Mode value
   *  set OVER8 bit according to huart->Init.OverSampling value */
  tmpreg = (uint32_t)huart->Init.WordLength | huart->Init.Parity | huart->Init.Mode | huart->Init.OverSampling ;
 8002108:	689a      	ldr	r2, [r3, #8]
 800210a:	691d      	ldr	r5, [r3, #16]
  MODIFY_REG(huart->Instance->CR1, UART_CR1_FIELDS, tmpreg);
 800210c:	6804      	ldr	r4, [r0, #0]
  tmpreg = (uint32_t)huart->Init.WordLength | huart->Init.Parity | huart->Init.Mode | huart->Init.OverSampling ;
 800210e:	432a      	orrs	r2, r5
 8002110:	695d      	ldr	r5, [r3, #20]
 8002112:	69c1      	ldr	r1, [r0, #28]
 8002114:	432a      	orrs	r2, r5
  MODIFY_REG(huart->Instance->CR1, UART_CR1_FIELDS, tmpreg);
 8002116:	6820      	ldr	r0, [r4, #0]
 8002118:	4d33      	ldr	r5, [pc, #204]	@ (80021e8 <UART_SetConfig+0xe4>)
  tmpreg = (uint32_t)huart->Init.WordLength | huart->Init.Parity | huart->Init.Mode | huart->Init.OverSampling ;
 800211a:	430a      	orrs	r2, r1
  MODIFY_REG(huart->Instance->CR1, UART_CR1_FIELDS, tmpreg);
 800211c:	4028      	ands	r0, r5
 800211e:	4302      	orrs	r2, r0
 8002120:	6022      	str	r2, [r4, #0]

  /*-------------------------- USART CR2 Configuration -----------------------*/
  /* Configure the UART Stop Bits: Set STOP[13:12] bits according
   * to huart->Init.StopBits value */
  MODIFY_REG(huart->Instance->CR2, USART_CR2_STOP, huart->Init.StopBits);
 8002122:	6862      	ldr	r2, [r4, #4]
 8002124:	4831      	ldr	r0, [pc, #196]	@ (80021ec <UART_SetConfig+0xe8>)
  /* Configure
   * - UART HardWare Flow Control: set CTSE and RTSE bits according
   *   to huart->Init.HwFlowCtl value
   * - one-bit sampling method versus three samples' majority rule according
   *   to huart->Init.OneBitSampling */
  tmpreg = (uint32_t)huart->Init.HwFlowCtl | huart->Init.OneBitSampling ;
 8002126:	6a1d      	ldr	r5, [r3, #32]
  MODIFY_REG(huart->Instance->CR2, USART_CR2_STOP, huart->Init.StopBits);
 8002128:	4002      	ands	r2, r0
 800212a:	68d8      	ldr	r0, [r3, #12]
 800212c:	4302      	orrs	r2, r0
 800212e:	6062      	str	r2, [r4, #4]
  tmpreg = (uint32_t)huart->Init.HwFlowCtl | huart->Init.OneBitSampling ;
 8002130:	699a      	ldr	r2, [r3, #24]
  MODIFY_REG(huart->Instance->CR3, (USART_CR3_RTSE | USART_CR3_CTSE | USART_CR3_ONEBIT), tmpreg);
 8002132:	68a0      	ldr	r0, [r4, #8]
  tmpreg = (uint32_t)huart->Init.HwFlowCtl | huart->Init.OneBitSampling ;
 8002134:	432a      	orrs	r2, r5
  MODIFY_REG(huart->Instance->CR3, (USART_CR3_RTSE | USART_CR3_CTSE | USART_CR3_ONEBIT), tmpreg);
 8002136:	4d2e      	ldr	r5, [pc, #184]	@ (80021f0 <UART_SetConfig+0xec>)
 8002138:	4028      	ands	r0, r5
 800213a:	4302      	orrs	r2, r0

  /*-------------------------- USART BRR Configuration -----------------------*/
  UART_GETCLOCKSOURCE(huart, clocksource);
 800213c:	2003      	movs	r0, #3
 800213e:	2580      	movs	r5, #128	@ 0x80
  MODIFY_REG(huart->Instance->CR3, (USART_CR3_RTSE | USART_CR3_CTSE | USART_CR3_ONEBIT), tmpreg);
 8002140:	60a2      	str	r2, [r4, #8]
  UART_GETCLOCKSOURCE(huart, clocksource);
 8002142:	4a2c      	ldr	r2, [pc, #176]	@ (80021f4 <UART_SetConfig+0xf0>)
 8002144:	022d      	lsls	r5, r5, #8
 8002146:	6b12      	ldr	r2, [r2, #48]	@ 0x30
 8002148:	4002      	ands	r2, r0
 800214a:	3a01      	subs	r2, #1
 800214c:	2a02      	cmp	r2, #2
 800214e:	d837      	bhi.n	80021c0 <UART_SetConfig+0xbc>
 8002150:	4829      	ldr	r0, [pc, #164]	@ (80021f8 <UART_SetConfig+0xf4>)
 8002152:	5c80      	ldrb	r0, [r0, r2]
  
  /* Check UART Over Sampling to set Baud Rate Register */
  if (huart->Init.OverSampling == UART_OVERSAMPLING_8)
 8002154:	42a9      	cmp	r1, r5
 8002156:	d114      	bne.n	8002182 <UART_SetConfig+0x7e>
  {
    switch (clocksource)
 8002158:	2808      	cmp	r0, #8
 800215a:	d80f      	bhi.n	800217c <UART_SetConfig+0x78>
 800215c:	f7fe f860 	bl	8000220 <__gnu_thumb1_case_uqi>
 8002160:	0e050e32 	.word	0x0e050e32
 8002164:	0e0e0e32 	.word	0x0e0e0e32
 8002168:	09          	.byte	0x09
 8002169:	00          	.byte	0x00
    {
      case UART_CLOCKSOURCE_PCLK1:
        usartdiv = (uint16_t)(UART_DIV_SAMPLING8(HAL_RCC_GetPCLK1Freq(), huart->Init.BaudRate));
        break;
      case UART_CLOCKSOURCE_HSI:
        usartdiv = (uint16_t)(UART_DIV_SAMPLING8(HSI_VALUE, huart->Init.BaudRate));
 800216a:	6859      	ldr	r1, [r3, #4]
 800216c:	4b23      	ldr	r3, [pc, #140]	@ (80021fc <UART_SetConfig+0xf8>)
 800216e:	0848      	lsrs	r0, r1, #1
 8002170:	e02c      	b.n	80021cc <UART_SetConfig+0xc8>
        break;
      case UART_CLOCKSOURCE_SYSCLK:
        usartdiv = (uint16_t)(UART_DIV_SAMPLING8(HAL_RCC_GetSysClockFreq(), huart->Init.BaudRate));
        break;
      case UART_CLOCKSOURCE_LSE:
        usartdiv = (uint16_t)(UART_DIV_SAMPLING8(LSE_VALUE, huart->Init.BaudRate));
 8002172:	6859      	ldr	r1, [r3, #4]
 8002174:	2380      	movs	r3, #128	@ 0x80
 8002176:	0848      	lsrs	r0, r1, #1
 8002178:	025b      	lsls	r3, r3, #9
 800217a:	e027      	b.n	80021cc <UART_SetConfig+0xc8>
    switch (clocksource)
 800217c:	2001      	movs	r0, #1
 800217e:	2300      	movs	r3, #0
 8002180:	e029      	b.n	80021d6 <UART_SetConfig+0xd2>
    brrtemp |= (uint16_t)((usartdiv & (uint16_t)0x000FU) >> 1U);
    huart->Instance->BRR = brrtemp;
  }
  else
  {
    switch (clocksource)
 8002182:	2808      	cmp	r0, #8
 8002184:	d81a      	bhi.n	80021bc <UART_SetConfig+0xb8>
 8002186:	f7fe f84b 	bl	8000220 <__gnu_thumb1_case_uqi>
 800218a:	190f      	.short	0x190f
 800218c:	190f1905 	.word	0x190f1905
 8002190:	1919      	.short	0x1919
 8002192:	14          	.byte	0x14
 8002193:	00          	.byte	0x00
    {
      case UART_CLOCKSOURCE_PCLK1:
        huart->Instance->BRR = (uint16_t)(UART_DIV_SAMPLING16(HAL_RCC_GetPCLK1Freq(), huart->Init.BaudRate));
        break;
      case UART_CLOCKSOURCE_HSI:
        huart->Instance->BRR = (uint16_t)(UART_DIV_SAMPLING16(HSI_VALUE, huart->Init.BaudRate));
 8002194:	6859      	ldr	r1, [r3, #4]
 8002196:	4b1a      	ldr	r3, [pc, #104]	@ (8002200 <UART_SetConfig+0xfc>)
 8002198:	0848      	lsrs	r0, r1, #1
 800219a:	18c0      	adds	r0, r0, r3
 800219c:	f7fe f84a 	bl	8000234 <__udivsi3>
 80021a0:	b280      	uxth	r0, r0
 80021a2:	60e0      	str	r0, [r4, #12]
  HAL_StatusTypeDef ret               = HAL_OK;
 80021a4:	2000      	movs	r0, #0
 80021a6:	e01d      	b.n	80021e4 <UART_SetConfig+0xe0>
        break;
      case UART_CLOCKSOURCE_SYSCLK:
        huart->Instance->BRR = (uint16_t)(UART_DIV_SAMPLING16(HAL_RCC_GetSysClockFreq(), huart->Init.BaudRate));
 80021a8:	6859      	ldr	r1, [r3, #4]
 80021aa:	23e1      	movs	r3, #225	@ 0xe1
 80021ac:	0848      	lsrs	r0, r1, #1
 80021ae:	03db      	lsls	r3, r3, #15
 80021b0:	e7f3      	b.n	800219a <UART_SetConfig+0x96>
        break;
      case UART_CLOCKSOURCE_LSE:
        huart->Instance->BRR = (uint16_t)(UART_DIV_SAMPLING16(LSE_VALUE, huart->Init.BaudRate));
 80021b2:	6859      	ldr	r1, [r3, #4]
 80021b4:	2380      	movs	r3, #128	@ 0x80
 80021b6:	0848      	lsrs	r0, r1, #1
 80021b8:	021b      	lsls	r3, r3, #8
 80021ba:	e7ee      	b.n	800219a <UART_SetConfig+0x96>
    switch (clocksource)
 80021bc:	2001      	movs	r0, #1
        ret = HAL_ERROR;
        break;
    }
  }

  return ret;
 80021be:	e011      	b.n	80021e4 <UART_SetConfig+0xe0>
  if (huart->Init.OverSampling == UART_OVERSAMPLING_8)
 80021c0:	42a9      	cmp	r1, r5
 80021c2:	d1f1      	bne.n	80021a8 <UART_SetConfig+0xa4>
        usartdiv = (uint16_t)(UART_DIV_SAMPLING8(HAL_RCC_GetPCLK1Freq(), huart->Init.BaudRate));
 80021c4:	6859      	ldr	r1, [r3, #4]
 80021c6:	23e1      	movs	r3, #225	@ 0xe1
 80021c8:	0848      	lsrs	r0, r1, #1
 80021ca:	041b      	lsls	r3, r3, #16
        usartdiv = (uint16_t)(UART_DIV_SAMPLING8(LSE_VALUE, huart->Init.BaudRate));
 80021cc:	18c0      	adds	r0, r0, r3
 80021ce:	f7fe f831 	bl	8000234 <__udivsi3>
 80021d2:	b283      	uxth	r3, r0
  HAL_StatusTypeDef ret               = HAL_OK;
 80021d4:	2000      	movs	r0, #0
    brrtemp = usartdiv & 0xFFF0U;
 80021d6:	0019      	movs	r1, r3
 80021d8:	220f      	movs	r2, #15
    brrtemp |= (uint16_t)((usartdiv & (uint16_t)0x000FU) >> 1U);
 80021da:	071b      	lsls	r3, r3, #28
    brrtemp = usartdiv & 0xFFF0U;
 80021dc:	4391      	bics	r1, r2
    brrtemp |= (uint16_t)((usartdiv & (uint16_t)0x000FU) >> 1U);
 80021de:	0f5b      	lsrs	r3, r3, #29
    huart->Instance->BRR = brrtemp;
 80021e0:	430b      	orrs	r3, r1
 80021e2:	60e3      	str	r3, [r4, #12]

}
 80021e4:	bd70      	pop	{r4, r5, r6, pc}
 80021e6:	46c0      	nop			@ (mov r8, r8)
 80021e8:	ffff69f3 	.word	0xffff69f3
 80021ec:	ffffcfff 	.word	0xffffcfff
 80021f0:	fffff4ff 	.word	0xfffff4ff
 80021f4:	40021000 	.word	0x40021000
 80021f8:	08002688 	.word	0x08002688
 80021fc:	01e84800 	.word	0x01e84800
 8002200:	00f42400 	.word	0x00f42400

08002204 <HAL_UART_Init>:
  *        parameters in the UART_InitTypeDef and initialize the associated handle.
  * @param huart: UART handle.
  * @retval HAL status
  */
HAL_StatusTypeDef HAL_UART_Init(UART_HandleTypeDef *huart)
{
 8002204:	b5f8      	push	{r3, r4, r5, r6, r7, lr}
 8002206:	1e04      	subs	r4, r0, #0
  /* Check the UART handle allocation */
  if(huart == NULL)
 8002208:	d101      	bne.n	800220e <HAL_UART_Init+0xa>
  {
    return HAL_ERROR;
 800220a:	2001      	movs	r0, #1
  /* Enable the Peripheral */
  __HAL_UART_ENABLE(huart);

  /* TEACK and/or REACK to check before moving huart->gState and huart->RxState to Ready */
  return (UART_CheckIdleState(huart));
}
 800220c:	bdf8      	pop	{r3, r4, r5, r6, r7, pc}
  if(huart->gState == HAL_UART_STATE_RESET)
 800220e:	0007      	movs	r7, r0
 8002210:	3769      	adds	r7, #105	@ 0x69
 8002212:	783b      	ldrb	r3, [r7, #0]
 8002214:	b2da      	uxtb	r2, r3
 8002216:	2b00      	cmp	r3, #0
 8002218:	d102      	bne.n	8002220 <HAL_UART_Init+0x1c>
    huart->Lock = HAL_UNLOCKED;
 800221a:	0003      	movs	r3, r0
 800221c:	3368      	adds	r3, #104	@ 0x68
 800221e:	701a      	strb	r2, [r3, #0]
  huart->gState = HAL_UART_STATE_BUSY;
 8002220:	2324      	movs	r3, #36	@ 0x24
  __HAL_UART_DISABLE(huart);
 8002222:	2601      	movs	r6, #1
  huart->gState = HAL_UART_STATE_BUSY;
 8002224:	703b      	strb	r3, [r7, #0]
  __HAL_UART_DISABLE(huart);
 8002226:	6825      	ldr	r5, [r4, #0]
  if (UART_SetConfig(huart) == HAL_ERROR)
 8002228:	0020      	movs	r0, r4
  __HAL_UART_DISABLE(huart);
 800222a:	682b      	ldr	r3, [r5, #0]
 800222c:	43b3      	bics	r3, r6
 800222e:	602b      	str	r3, [r5, #0]
  if (UART_SetConfig(huart) == HAL_ERROR)
 8002230:	f7ff ff68 	bl	8002104 <UART_SetConfig>
 8002234:	42b0      	cmp	r0, r6
 8002236:	d0e8      	beq.n	800220a <HAL_UART_Init+0x6>
  CLEAR_BIT(huart->Instance->CR2, USART_CR2_CLKEN);
 8002238:	686b      	ldr	r3, [r5, #4]
 800223a:	4a0a      	ldr	r2, [pc, #40]	@ (8002264 <HAL_UART_Init+0x60>)
  huart->RxState = HAL_UART_STATE_READY;
 800223c:	0021      	movs	r1, r4
  CLEAR_BIT(huart->Instance->CR2, USART_CR2_CLKEN);
 800223e:	4013      	ands	r3, r2
  CLEAR_BIT(huart->Instance->CR3, USART_CR3_HDSEL);
 8002240:	2208      	movs	r2, #8
  CLEAR_BIT(huart->Instance->CR2, USART_CR2_CLKEN);
 8002242:	606b      	str	r3, [r5, #4]
  CLEAR_BIT(huart->Instance->CR3, USART_CR3_HDSEL);
 8002244:	68ab      	ldr	r3, [r5, #8]
  huart->RxState = HAL_UART_STATE_READY;
 8002246:	316a      	adds	r1, #106	@ 0x6a
  CLEAR_BIT(huart->Instance->CR3, USART_CR3_HDSEL);
 8002248:	4393      	bics	r3, r2
 800224a:	60ab      	str	r3, [r5, #8]
  __HAL_UART_ENABLE(huart);
 800224c:	682b      	ldr	r3, [r5, #0]
  huart->gState  = HAL_UART_STATE_READY;
 800224e:	3218      	adds	r2, #24
  __HAL_UART_ENABLE(huart);
 8002250:	431e      	orrs	r6, r3
  huart->ErrorCode = HAL_UART_ERROR_NONE;
 8002252:	2300      	movs	r3, #0
  __HAL_UART_ENABLE(huart);
 8002254:	602e      	str	r6, [r5, #0]
  __HAL_UNLOCK(huart);
 8002256:	3468      	adds	r4, #104	@ 0x68
  huart->ErrorCode = HAL_UART_ERROR_NONE;
 8002258:	6063      	str	r3, [r4, #4]
  huart->gState  = HAL_UART_STATE_READY;
 800225a:	703a      	strb	r2, [r7, #0]
  huart->RxState = HAL_UART_STATE_READY;
 800225c:	700a      	strb	r2, [r1, #0]
  __HAL_UNLOCK(huart);
 800225e:	7023      	strb	r3, [r4, #0]
  return (UART_CheckIdleState(huart));
 8002260:	e7d4      	b.n	800220c <HAL_UART_Init+0x8>
 8002262:	46c0      	nop			@ (mov r8, r8)
 8002264:	fffff7ff 	.word	0xfffff7ff

08002268 <HAL_UART_Receive>:
  *         (as received data will be handled using u16 pointer cast). Depending on compilation chain,
  *         use of specific alignment compilation directives or pragmas might be required to ensure proper alignment for pData.
  * @retval HAL status
  */
HAL_StatusTypeDef HAL_UART_Receive(UART_HandleTypeDef *huart, uint8_t *pData, uint16_t Size, uint32_t Timeout)
{
 8002268:	b5f0      	push	{r4, r5, r6, r7, lr}
 800226a:	b085      	sub	sp, #20
 800226c:	9303      	str	r3, [sp, #12]
  uint16_t* tmp;
  uint16_t uhMask;
  uint32_t tickstart = 0;

  /* Check that a Rx process is not already ongoing */
  if(huart->RxState == HAL_UART_STATE_READY)
 800226e:	0003      	movs	r3, r0
 8002270:	336a      	adds	r3, #106	@ 0x6a
{
 8002272:	0016      	movs	r6, r2
  if(huart->RxState == HAL_UART_STATE_READY)
 8002274:	781a      	ldrb	r2, [r3, #0]
{
 8002276:	0004      	movs	r4, r0
 8002278:	000d      	movs	r5, r1
        return  HAL_ERROR;
      }
    }

    /* Process Locked */
    __HAL_LOCK(huart);
 800227a:	2002      	movs	r0, #2
  if(huart->RxState == HAL_UART_STATE_READY)
 800227c:	2a20      	cmp	r2, #32
 800227e:	d13b      	bne.n	80022f8 <HAL_UART_Receive+0x90>
      return  HAL_ERROR;
 8002280:	3801      	subs	r0, #1
    if((pData == NULL ) || (Size == 0U))
 8002282:	2900      	cmp	r1, #0
 8002284:	d038      	beq.n	80022f8 <HAL_UART_Receive+0x90>
 8002286:	2e00      	cmp	r6, #0
 8002288:	d036      	beq.n	80022f8 <HAL_UART_Receive+0x90>
    if ((huart->Init.WordLength == UART_WORDLENGTH_9B) && (huart->Init.Parity == UART_PARITY_NONE))
 800228a:	2280      	movs	r2, #128	@ 0x80
 800228c:	68a1      	ldr	r1, [r4, #8]
 800228e:	0152      	lsls	r2, r2, #5
 8002290:	4291      	cmp	r1, r2
 8002292:	d104      	bne.n	800229e <HAL_UART_Receive+0x36>
 8002294:	6922      	ldr	r2, [r4, #16]
 8002296:	2a00      	cmp	r2, #0
 8002298:	d101      	bne.n	800229e <HAL_UART_Receive+0x36>
      if((((uint32_t)pData)&1U) != 0U)
 800229a:	4205      	tst	r5, r0
 800229c:	d12c      	bne.n	80022f8 <HAL_UART_Receive+0x90>
    __HAL_LOCK(huart);
 800229e:	0022      	movs	r2, r4
 80022a0:	3268      	adds	r2, #104	@ 0x68
 80022a2:	7811      	ldrb	r1, [r2, #0]
 80022a4:	2002      	movs	r0, #2
 80022a6:	2901      	cmp	r1, #1
 80022a8:	d026      	beq.n	80022f8 <HAL_UART_Receive+0x90>
 80022aa:	2101      	movs	r1, #1
 80022ac:	7011      	strb	r1, [r2, #0]

    huart->ErrorCode = HAL_UART_ERROR_NONE;
 80022ae:	2200      	movs	r2, #0
 80022b0:	66e2      	str	r2, [r4, #108]	@ 0x6c
    huart->RxState = HAL_UART_STATE_BUSY_RX;
 80022b2:	3222      	adds	r2, #34	@ 0x22
 80022b4:	701a      	strb	r2, [r3, #0]

    /* Init tickstart for timeout managment*/
    tickstart = HAL_GetTick();
 80022b6:	f7ff fbcb 	bl	8001a50 <HAL_GetTick>

    huart->RxXferSize = Size;
 80022ba:	0023      	movs	r3, r4
    huart->RxXferCount = Size;

    /* Computation of UART mask to apply to RDR register */
    UART_MASK_COMPUTATION(huart);
 80022bc:	2180      	movs	r1, #128	@ 0x80
 80022be:	68a2      	ldr	r2, [r4, #8]
    huart->RxXferSize = Size;
 80022c0:	3358      	adds	r3, #88	@ 0x58
 80022c2:	801e      	strh	r6, [r3, #0]
    huart->RxXferCount = Size;
 80022c4:	805e      	strh	r6, [r3, #2]
    tickstart = HAL_GetTick();
 80022c6:	9002      	str	r0, [sp, #8]
    UART_MASK_COMPUTATION(huart);
 80022c8:	0149      	lsls	r1, r1, #5
 80022ca:	3304      	adds	r3, #4
 80022cc:	428a      	cmp	r2, r1
 80022ce:	d117      	bne.n	8002300 <HAL_UART_Receive+0x98>
 80022d0:	6922      	ldr	r2, [r4, #16]
 80022d2:	2a00      	cmp	r2, #0
 80022d4:	d112      	bne.n	80022fc <HAL_UART_Receive+0x94>
 80022d6:	4a1e      	ldr	r2, [pc, #120]	@ (8002350 <HAL_UART_Receive+0xe8>)
 80022d8:	801a      	strh	r2, [r3, #0]
      huart->RxXferCount--;
      if(UART_WaitOnFlagUntilTimeout(huart, UART_FLAG_RXNE, RESET, tickstart, Timeout) != HAL_OK)
      {
        return HAL_TIMEOUT;
      }
      if ((huart->Init.WordLength == UART_WORDLENGTH_9B) && (huart->Init.Parity == UART_PARITY_NONE))
 80022da:	2780      	movs	r7, #128	@ 0x80
    uhMask = huart->Mask;
 80022dc:	881e      	ldrh	r6, [r3, #0]
      if ((huart->Init.WordLength == UART_WORDLENGTH_9B) && (huart->Init.Parity == UART_PARITY_NONE))
 80022de:	017f      	lsls	r7, r7, #5
    while(huart->RxXferCount > 0U)
 80022e0:	0022      	movs	r2, r4
 80022e2:	325a      	adds	r2, #90	@ 0x5a
 80022e4:	8813      	ldrh	r3, [r2, #0]
 80022e6:	b298      	uxth	r0, r3
 80022e8:	2b00      	cmp	r3, #0
 80022ea:	d110      	bne.n	800230e <HAL_UART_Receive+0xa6>
        *pData++ = (uint8_t)(huart->Instance->RDR & (uint8_t)uhMask);
      }
    }

    /* At end of Rx process, restore huart->RxState to Ready */
    huart->RxState = HAL_UART_STATE_READY;
 80022ec:	0023      	movs	r3, r4
 80022ee:	2220      	movs	r2, #32
 80022f0:	336a      	adds	r3, #106	@ 0x6a

    /* Process Unlocked */
    __HAL_UNLOCK(huart);
 80022f2:	3468      	adds	r4, #104	@ 0x68
    huart->RxState = HAL_UART_STATE_READY;
 80022f4:	701a      	strb	r2, [r3, #0]
    __HAL_UNLOCK(huart);
 80022f6:	7020      	strb	r0, [r4, #0]
  }
  else
  {
    return HAL_BUSY;
  }
}
 80022f8:	b005      	add	sp, #20
 80022fa:	bdf0      	pop	{r4, r5, r6, r7, pc}
    UART_MASK_COMPUTATION(huart);
 80022fc:	22ff      	movs	r2, #255	@ 0xff
 80022fe:	e7eb      	b.n	80022d8 <HAL_UART_Receive+0x70>
 8002300:	2a00      	cmp	r2, #0
 8002302:	d1ea      	bne.n	80022da <HAL_UART_Receive+0x72>
 8002304:	6922      	ldr	r2, [r4, #16]
 8002306:	2a00      	cmp	r2, #0
 8002308:	d0f8      	beq.n	80022fc <HAL_UART_Receive+0x94>
 800230a:	227f      	movs	r2, #127	@ 0x7f
 800230c:	e7e4      	b.n	80022d8 <HAL_UART_Receive+0x70>
      huart->RxXferCount--;
 800230e:	8813      	ldrh	r3, [r2, #0]
      if(UART_WaitOnFlagUntilTimeout(huart, UART_FLAG_RXNE, RESET, tickstart, Timeout) != HAL_OK)
 8002310:	2120      	movs	r1, #32
      huart->RxXferCount--;
 8002312:	3b01      	subs	r3, #1
 8002314:	b29b      	uxth	r3, r3
 8002316:	8013      	strh	r3, [r2, #0]
      if(UART_WaitOnFlagUntilTimeout(huart, UART_FLAG_RXNE, RESET, tickstart, Timeout) != HAL_OK)
 8002318:	9b03      	ldr	r3, [sp, #12]
 800231a:	2200      	movs	r2, #0
 800231c:	9300      	str	r3, [sp, #0]
 800231e:	0020      	movs	r0, r4
 8002320:	9b02      	ldr	r3, [sp, #8]
 8002322:	f7ff febd 	bl	80020a0 <UART_WaitOnFlagUntilTimeout>
 8002326:	2800      	cmp	r0, #0
 8002328:	d110      	bne.n	800234c <HAL_UART_Receive+0xe4>
      if ((huart->Init.WordLength == UART_WORDLENGTH_9B) && (huart->Init.Parity == UART_PARITY_NONE))
 800232a:	68a2      	ldr	r2, [r4, #8]
        *tmp = (uint16_t)(huart->Instance->RDR & uhMask);
 800232c:	6823      	ldr	r3, [r4, #0]
      if ((huart->Init.WordLength == UART_WORDLENGTH_9B) && (huart->Init.Parity == UART_PARITY_NONE))
 800232e:	42ba      	cmp	r2, r7
 8002330:	d107      	bne.n	8002342 <HAL_UART_Receive+0xda>
 8002332:	6922      	ldr	r2, [r4, #16]
 8002334:	2a00      	cmp	r2, #0
 8002336:	d104      	bne.n	8002342 <HAL_UART_Receive+0xda>
        *tmp = (uint16_t)(huart->Instance->RDR & uhMask);
 8002338:	8c9b      	ldrh	r3, [r3, #36]	@ 0x24
 800233a:	4033      	ands	r3, r6
 800233c:	802b      	strh	r3, [r5, #0]
        pData +=2U;
 800233e:	3502      	adds	r5, #2
 8002340:	e7ce      	b.n	80022e0 <HAL_UART_Receive+0x78>
        *pData++ = (uint8_t)(huart->Instance->RDR & (uint8_t)uhMask);
 8002342:	8c9b      	ldrh	r3, [r3, #36]	@ 0x24
 8002344:	4033      	ands	r3, r6
 8002346:	702b      	strb	r3, [r5, #0]
 8002348:	3501      	adds	r5, #1
 800234a:	e7c9      	b.n	80022e0 <HAL_UART_Receive+0x78>
        return HAL_TIMEOUT;
 800234c:	2003      	movs	r0, #3
 800234e:	e7d3      	b.n	80022f8 <HAL_UART_Receive+0x90>
 8002350:	000001ff 	.word	0x000001ff

08002354 <HAL_UART_Transmit>:
  *         (as sent data will be handled using u16 pointer cast). Depending on compilation chain,
  *         use of specific alignment compilation directives or pragmas might be required to ensure proper alignment for pData.
  * @retval HAL status
  */
HAL_StatusTypeDef HAL_UART_Transmit(UART_HandleTypeDef *huart, uint8_t *pData, uint16_t Size, uint32_t Timeout)
{
 8002354:	b5f0      	push	{r4, r5, r6, r7, lr}
  uint16_t* tmp;
  uint32_t tickstart = 0U;

  /* Check that a Tx process is not already ongoing */
  if(huart->gState == HAL_UART_STATE_READY)
 8002356:	0007      	movs	r7, r0
{
 8002358:	b085      	sub	sp, #20
 800235a:	9303      	str	r3, [sp, #12]
  if(huart->gState == HAL_UART_STATE_READY)
 800235c:	3769      	adds	r7, #105	@ 0x69
 800235e:	783b      	ldrb	r3, [r7, #0]
{
 8002360:	0004      	movs	r4, r0
 8002362:	000d      	movs	r5, r1
 8002364:	0016      	movs	r6, r2
        return  HAL_ERROR;
      }
    }

    /* Process Locked */
    __HAL_LOCK(huart);
 8002366:	2002      	movs	r0, #2
  if(huart->gState == HAL_UART_STATE_READY)
 8002368:	2b20      	cmp	r3, #32
 800236a:	d146      	bne.n	80023fa <HAL_UART_Transmit+0xa6>
      return  HAL_ERROR;
 800236c:	3801      	subs	r0, #1
    if((pData == NULL ) || (Size == 0U))
 800236e:	2900      	cmp	r1, #0
 8002370:	d043      	beq.n	80023fa <HAL_UART_Transmit+0xa6>
 8002372:	2a00      	cmp	r2, #0
 8002374:	d041      	beq.n	80023fa <HAL_UART_Transmit+0xa6>
    if ((huart->Init.WordLength == UART_WORDLENGTH_9B) && (huart->Init.Parity == UART_PARITY_NONE))
 8002376:	2380      	movs	r3, #128	@ 0x80
 8002378:	68a2      	ldr	r2, [r4, #8]
 800237a:	015b      	lsls	r3, r3, #5
 800237c:	429a      	cmp	r2, r3
 800237e:	d104      	bne.n	800238a <HAL_UART_Transmit+0x36>
 8002380:	6923      	ldr	r3, [r4, #16]
 8002382:	2b00      	cmp	r3, #0
 8002384:	d101      	bne.n	800238a <HAL_UART_Transmit+0x36>
      if((((uint32_t)pData)&1U) != 0U)
 8002386:	4201      	tst	r1, r0
 8002388:	d137      	bne.n	80023fa <HAL_UART_Transmit+0xa6>
    __HAL_LOCK(huart);
 800238a:	0023      	movs	r3, r4
 800238c:	3368      	adds	r3, #104	@ 0x68
 800238e:	781a      	ldrb	r2, [r3, #0]
 8002390:	2002      	movs	r0, #2
 8002392:	2a01      	cmp	r2, #1
 8002394:	d031      	beq.n	80023fa <HAL_UART_Transmit+0xa6>
 8002396:	2201      	movs	r2, #1
 8002398:	701a      	strb	r2, [r3, #0]

    huart->ErrorCode = HAL_UART_ERROR_NONE;
 800239a:	2300      	movs	r3, #0
 800239c:	66e3      	str	r3, [r4, #108]	@ 0x6c
    huart->gState = HAL_UART_STATE_BUSY_TX;
 800239e:	3321      	adds	r3, #33	@ 0x21
 80023a0:	703b      	strb	r3, [r7, #0]

    /* Init tickstart for timeout managment*/
    tickstart = HAL_GetTick();
 80023a2:	f7ff fb55 	bl	8001a50 <HAL_GetTick>

    huart->TxXferSize = Size;
 80023a6:	0023      	movs	r3, r4
 80023a8:	3350      	adds	r3, #80	@ 0x50
 80023aa:	801e      	strh	r6, [r3, #0]
    huart->TxXferCount = Size;
 80023ac:	805e      	strh	r6, [r3, #2]
      huart->TxXferCount--;
      if(UART_WaitOnFlagUntilTimeout(huart, UART_FLAG_TXE, RESET, tickstart, Timeout) != HAL_OK)
      {
        return HAL_TIMEOUT;
      }
      if ((huart->Init.WordLength == UART_WORDLENGTH_9B) && (huart->Init.Parity == UART_PARITY_NONE))
 80023ae:	2680      	movs	r6, #128	@ 0x80
    tickstart = HAL_GetTick();
 80023b0:	9002      	str	r0, [sp, #8]
      if ((huart->Init.WordLength == UART_WORDLENGTH_9B) && (huart->Init.Parity == UART_PARITY_NONE))
 80023b2:	0176      	lsls	r6, r6, #5
    while(huart->TxXferCount > 0)
 80023b4:	0021      	movs	r1, r4
 80023b6:	3152      	adds	r1, #82	@ 0x52
 80023b8:	880b      	ldrh	r3, [r1, #0]
 80023ba:	b29a      	uxth	r2, r3
 80023bc:	2b00      	cmp	r3, #0
 80023be:	d10d      	bne.n	80023dc <HAL_UART_Transmit+0x88>
      else
      {
        huart->Instance->TDR = (*pData++ & (uint8_t)0xFFU);
      }
    }
    if(UART_WaitOnFlagUntilTimeout(huart, UART_FLAG_TC, RESET, tickstart, Timeout) != HAL_OK)
 80023c0:	9b03      	ldr	r3, [sp, #12]
 80023c2:	2140      	movs	r1, #64	@ 0x40
 80023c4:	9300      	str	r3, [sp, #0]
 80023c6:	0020      	movs	r0, r4
 80023c8:	9b02      	ldr	r3, [sp, #8]
 80023ca:	f7ff fe69 	bl	80020a0 <UART_WaitOnFlagUntilTimeout>
 80023ce:	2800      	cmp	r0, #0
 80023d0:	d112      	bne.n	80023f8 <HAL_UART_Transmit+0xa4>
    {
      return HAL_TIMEOUT;
    }

    /* At end of Tx process, restore huart->gState to Ready */
    huart->gState = HAL_UART_STATE_READY;
 80023d2:	2320      	movs	r3, #32

    /* Process Unlocked */
    __HAL_UNLOCK(huart);
 80023d4:	3468      	adds	r4, #104	@ 0x68
    huart->gState = HAL_UART_STATE_READY;
 80023d6:	703b      	strb	r3, [r7, #0]
    __HAL_UNLOCK(huart);
 80023d8:	7020      	strb	r0, [r4, #0]

    return HAL_OK;
 80023da:	e00e      	b.n	80023fa <HAL_UART_Transmit+0xa6>
      huart->TxXferCount--;
 80023dc:	880b      	ldrh	r3, [r1, #0]
      if(UART_WaitOnFlagUntilTimeout(huart, UART_FLAG_TXE, RESET, tickstart, Timeout) != HAL_OK)
 80023de:	2200      	movs	r2, #0
      huart->TxXferCount--;
 80023e0:	3b01      	subs	r3, #1
 80023e2:	b29b      	uxth	r3, r3
 80023e4:	800b      	strh	r3, [r1, #0]
      if(UART_WaitOnFlagUntilTimeout(huart, UART_FLAG_TXE, RESET, tickstart, Timeout) != HAL_OK)
 80023e6:	9b03      	ldr	r3, [sp, #12]
 80023e8:	2180      	movs	r1, #128	@ 0x80
 80023ea:	9300      	str	r3, [sp, #0]
 80023ec:	0020      	movs	r0, r4
 80023ee:	9b02      	ldr	r3, [sp, #8]
 80023f0:	f7ff fe56 	bl	80020a0 <UART_WaitOnFlagUntilTimeout>
 80023f4:	2800      	cmp	r0, #0
 80023f6:	d002      	beq.n	80023fe <HAL_UART_Transmit+0xaa>
        return HAL_TIMEOUT;
 80023f8:	2003      	movs	r0, #3
  }
  else
  {
    return HAL_BUSY;
  }
}
 80023fa:	b005      	add	sp, #20
 80023fc:	bdf0      	pop	{r4, r5, r6, r7, pc}
      if ((huart->Init.WordLength == UART_WORDLENGTH_9B) && (huart->Init.Parity == UART_PARITY_NONE))
 80023fe:	68a3      	ldr	r3, [r4, #8]
        huart->Instance->TDR = (*tmp & (uint16_t)0x01FFU);
 8002400:	6822      	ldr	r2, [r4, #0]
      if ((huart->Init.WordLength == UART_WORDLENGTH_9B) && (huart->Init.Parity == UART_PARITY_NONE))
 8002402:	42b3      	cmp	r3, r6
 8002404:	d108      	bne.n	8002418 <HAL_UART_Transmit+0xc4>
 8002406:	6923      	ldr	r3, [r4, #16]
 8002408:	2b00      	cmp	r3, #0
 800240a:	d105      	bne.n	8002418 <HAL_UART_Transmit+0xc4>
        huart->Instance->TDR = (*tmp & (uint16_t)0x01FFU);
 800240c:	882b      	ldrh	r3, [r5, #0]
        pData += 2;
 800240e:	3502      	adds	r5, #2
        huart->Instance->TDR = (*tmp & (uint16_t)0x01FFU);
 8002410:	05db      	lsls	r3, r3, #23
 8002412:	0ddb      	lsrs	r3, r3, #23
 8002414:	8513      	strh	r3, [r2, #40]	@ 0x28
        pData += 2;
 8002416:	e7cd      	b.n	80023b4 <HAL_UART_Transmit+0x60>
        huart->Instance->TDR = (*pData++ & (uint8_t)0xFFU);
 8002418:	782b      	ldrb	r3, [r5, #0]
 800241a:	3501      	adds	r5, #1
 800241c:	8513      	strh	r3, [r2, #40]	@ 0x28
 800241e:	e7c9      	b.n	80023b4 <HAL_UART_Transmit+0x60>

08002420 <Reset_Handler>:
 8002420:	2100      	movs	r1, #0
 8002422:	e003      	b.n	800242c <LoopCopyDataInit>

08002424 <CopyDataInit>:
 8002424:	4b0b      	ldr	r3, [pc, #44]	@ (8002454 <LoopForever+0x2>)
 8002426:	585b      	ldr	r3, [r3, r1]
 8002428:	5043      	str	r3, [r0, r1]
 800242a:	3104      	adds	r1, #4

0800242c <LoopCopyDataInit>:
 800242c:	480a      	ldr	r0, [pc, #40]	@ (8002458 <LoopForever+0x6>)
 800242e:	4b0b      	ldr	r3, [pc, #44]	@ (800245c <LoopForever+0xa>)
 8002430:	1842      	adds	r2, r0, r1
 8002432:	429a      	cmp	r2, r3
 8002434:	d3f6      	bcc.n	8002424 <CopyDataInit>
 8002436:	4a0a      	ldr	r2, [pc, #40]	@ (8002460 <LoopForever+0xe>)
 8002438:	e002      	b.n	8002440 <LoopFillZerobss>

0800243a <FillZerobss>:
 800243a:	2300      	movs	r3, #0
 800243c:	6013      	str	r3, [r2, #0]
 800243e:	3204      	adds	r2, #4

08002440 <LoopFillZerobss>:
 8002440:	4b08      	ldr	r3, [pc, #32]	@ (8002464 <LoopForever+0x12>)
 8002442:	429a      	cmp	r2, r3
 8002444:	d3f9      	bcc.n	800243a <FillZerobss>
 8002446:	e000      	b.n	800244a <LoopFillZerobss+0xa>
 8002448:	bf00      	nop
 800244a:	f7fe f881 	bl	8000550 <__libc_init_array>
 800244e:	f7fe f981 	bl	8000754 <main>

08002452 <LoopForever>:
 8002452:	e7fe      	b.n	8002452 <LoopForever>
 8002454:	08002698 	.word	0x08002698
 8002458:	20000000 	.word	0x20000000
 800245c:	20000004 	.word	0x20000004
 8002460:	20000008 	.word	0x20000008
 8002464:	200008a0 	.word	0x200008a0

08002468 <BusFault_Handler>:
 8002468:	e7fe      	b.n	8002468 <BusFault_Handler>
 800246a:	0000      	movs	r0, r0

0800246c <_init>:
 800246c:	b5f8      	push	{r3, r4, r5, r6, r7, lr}
 800246e:	46c0      	nop			@ (mov r8, r8)
 8002470:	bcf8      	pop	{r3, r4, r5, r6, r7}
 8002472:	bc08      	pop	{r3}
 8002474:	469e      	mov	lr, r3
 8002476:	4770      	bx	lr

08002478 <_fini>:
 8002478:	b5f8      	push	{r3, r4, r5, r6, r7, lr}
 800247a:	46c0      	nop			@ (mov r8, r8)
 800247c:	bcf8      	pop	{r3, r4, r5, r6, r7}
 800247e:	bc08      	pop	{r3}
 8002480:	469e      	mov	lr, r3
 8002482:	4770      	bx	lr
